
major-project-base.elf:     file format elf32-littlearm

Sections:
Idx Name          Size      VMA       LMA       File off  Algn
  0 .isr_vector   00000188  08000000  08000000  00010000  2**0
                  CONTENTS, ALLOC, LOAD, READONLY, DATA
  1 .text         0000bae4  08000190  08000190  00010190  2**4
                  CONTENTS, ALLOC, LOAD, READONLY, CODE
  2 .rodata       00000898  0800bc78  0800bc78  0001bc78  2**3
                  CONTENTS, ALLOC, LOAD, READONLY, DATA
  3 .ARM.extab    00000000  0800c510  0800c510  00020410  2**0
                  CONTENTS
  4 .ARM          00000000  0800c510  0800c510  00020410  2**0
                  CONTENTS
  5 .preinit_array 00000000  0800c510  0800c510  00020410  2**0
                  CONTENTS, ALLOC, LOAD, DATA
  6 .init_array   00000004  0800c510  0800c510  0001c510  2**2
                  CONTENTS, ALLOC, LOAD, DATA
  7 .fini_array   00000004  0800c514  0800c514  0001c514  2**2
                  CONTENTS, ALLOC, LOAD, DATA
  8 .data         00000410  20000000  0800c518  00020000  2**2
                  CONTENTS, ALLOC, LOAD, DATA
  9 .ccmram       00000000  10000000  10000000  00020410  2**0
                  CONTENTS
 10 .bss          000004e0  20000410  20000410  00020410  2**2
                  ALLOC
 11 ._user_heap_stack 00000600  200008f0  200008f0  00020410  2**0
                  ALLOC
 12 .ARM.attributes 00000030  00000000  00000000  00020410  2**0
                  CONTENTS, READONLY
 13 .debug_info   00003689  00000000  00000000  00020440  2**0
                  CONTENTS, READONLY, DEBUGGING, OCTETS
 14 .debug_abbrev 00000b9f  00000000  00000000  00023ac9  2**0
                  CONTENTS, READONLY, DEBUGGING, OCTETS
 15 .debug_aranges 00001248  00000000  00000000  00024668  2**0
                  CONTENTS, READONLY, DEBUGGING, OCTETS
 16 .debug_ranges 000010f8  00000000  00000000  000258b0  2**0
                  CONTENTS, READONLY, DEBUGGING, OCTETS
 17 .debug_line   0000e91d  00000000  00000000  000269a8  2**0
                  CONTENTS, READONLY, DEBUGGING, OCTETS
 18 .debug_str    00003004  00000000  00000000  000352c5  2**0
                  CONTENTS, READONLY, DEBUGGING, OCTETS
 19 .comment      00000050  00000000  00000000  000382c9  2**0
                  CONTENTS, READONLY
 20 .debug_frame  00006554  00000000  00000000  0003831c  2**2
                  CONTENTS, READONLY, DEBUGGING, OCTETS

Disassembly of section .text:

08000190 <__do_global_dtors_aux>:
 8000190:	b510      	push	{r4, lr}
 8000192:	4c05      	ldr	r4, [pc, #20]	; (80001a8 <__do_global_dtors_aux+0x18>)
 8000194:	7823      	ldrb	r3, [r4, #0]
 8000196:	b933      	cbnz	r3, 80001a6 <__do_global_dtors_aux+0x16>
 8000198:	4b04      	ldr	r3, [pc, #16]	; (80001ac <__do_global_dtors_aux+0x1c>)
 800019a:	b113      	cbz	r3, 80001a2 <__do_global_dtors_aux+0x12>
 800019c:	4804      	ldr	r0, [pc, #16]	; (80001b0 <__do_global_dtors_aux+0x20>)
 800019e:	f3af 8000 	nop.w
 80001a2:	2301      	movs	r3, #1
 80001a4:	7023      	strb	r3, [r4, #0]
 80001a6:	bd10      	pop	{r4, pc}
 80001a8:	20000410 	.word	0x20000410
 80001ac:	00000000 	.word	0x00000000
 80001b0:	0800bc5c 	.word	0x0800bc5c

080001b4 <frame_dummy>:
 80001b4:	b508      	push	{r3, lr}
 80001b6:	4b03      	ldr	r3, [pc, #12]	; (80001c4 <frame_dummy+0x10>)
 80001b8:	b11b      	cbz	r3, 80001c2 <frame_dummy+0xe>
 80001ba:	4903      	ldr	r1, [pc, #12]	; (80001c8 <frame_dummy+0x14>)
 80001bc:	4803      	ldr	r0, [pc, #12]	; (80001cc <frame_dummy+0x18>)
 80001be:	f3af 8000 	nop.w
 80001c2:	bd08      	pop	{r3, pc}
 80001c4:	00000000 	.word	0x00000000
 80001c8:	20000414 	.word	0x20000414
 80001cc:	0800bc5c 	.word	0x0800bc5c

080001d0 <strlen>:
 80001d0:	4603      	mov	r3, r0
 80001d2:	f813 2b01 	ldrb.w	r2, [r3], #1
 80001d6:	2a00      	cmp	r2, #0
 80001d8:	d1fb      	bne.n	80001d2 <strlen+0x2>
 80001da:	1a18      	subs	r0, r3, r0
 80001dc:	3801      	subs	r0, #1
 80001de:	4770      	bx	lr

080001e0 <memchr>:
 80001e0:	f001 01ff 	and.w	r1, r1, #255	; 0xff
 80001e4:	2a10      	cmp	r2, #16
 80001e6:	db2b      	blt.n	8000240 <memchr+0x60>
 80001e8:	f010 0f07 	tst.w	r0, #7
 80001ec:	d008      	beq.n	8000200 <memchr+0x20>
 80001ee:	f810 3b01 	ldrb.w	r3, [r0], #1
 80001f2:	3a01      	subs	r2, #1
 80001f4:	428b      	cmp	r3, r1
 80001f6:	d02d      	beq.n	8000254 <memchr+0x74>
 80001f8:	f010 0f07 	tst.w	r0, #7
 80001fc:	b342      	cbz	r2, 8000250 <memchr+0x70>
 80001fe:	d1f6      	bne.n	80001ee <memchr+0xe>
 8000200:	b4f0      	push	{r4, r5, r6, r7}
 8000202:	ea41 2101 	orr.w	r1, r1, r1, lsl #8
 8000206:	ea41 4101 	orr.w	r1, r1, r1, lsl #16
 800020a:	f022 0407 	bic.w	r4, r2, #7
 800020e:	f07f 0700 	mvns.w	r7, #0
 8000212:	2300      	movs	r3, #0
 8000214:	e8f0 5602 	ldrd	r5, r6, [r0], #8
 8000218:	3c08      	subs	r4, #8
 800021a:	ea85 0501 	eor.w	r5, r5, r1
 800021e:	ea86 0601 	eor.w	r6, r6, r1
 8000222:	fa85 f547 	uadd8	r5, r5, r7
 8000226:	faa3 f587 	sel	r5, r3, r7
 800022a:	fa86 f647 	uadd8	r6, r6, r7
 800022e:	faa5 f687 	sel	r6, r5, r7
 8000232:	b98e      	cbnz	r6, 8000258 <memchr+0x78>
 8000234:	d1ee      	bne.n	8000214 <memchr+0x34>
 8000236:	bcf0      	pop	{r4, r5, r6, r7}
 8000238:	f001 01ff 	and.w	r1, r1, #255	; 0xff
 800023c:	f002 0207 	and.w	r2, r2, #7
 8000240:	b132      	cbz	r2, 8000250 <memchr+0x70>
 8000242:	f810 3b01 	ldrb.w	r3, [r0], #1
 8000246:	3a01      	subs	r2, #1
 8000248:	ea83 0301 	eor.w	r3, r3, r1
 800024c:	b113      	cbz	r3, 8000254 <memchr+0x74>
 800024e:	d1f8      	bne.n	8000242 <memchr+0x62>
 8000250:	2000      	movs	r0, #0
 8000252:	4770      	bx	lr
 8000254:	3801      	subs	r0, #1
 8000256:	4770      	bx	lr
 8000258:	2d00      	cmp	r5, #0
 800025a:	bf06      	itte	eq
 800025c:	4635      	moveq	r5, r6
 800025e:	3803      	subeq	r0, #3
 8000260:	3807      	subne	r0, #7
 8000262:	f015 0f01 	tst.w	r5, #1
 8000266:	d107      	bne.n	8000278 <memchr+0x98>
 8000268:	3001      	adds	r0, #1
 800026a:	f415 7f80 	tst.w	r5, #256	; 0x100
 800026e:	bf02      	ittt	eq
 8000270:	3001      	addeq	r0, #1
 8000272:	f415 3fc0 	tsteq.w	r5, #98304	; 0x18000
 8000276:	3001      	addeq	r0, #1
 8000278:	bcf0      	pop	{r4, r5, r6, r7}
 800027a:	3801      	subs	r0, #1
 800027c:	4770      	bx	lr
 800027e:	bf00      	nop

08000280 <__aeabi_drsub>:
 8000280:	f081 4100 	eor.w	r1, r1, #2147483648	; 0x80000000
 8000284:	e002      	b.n	800028c <__adddf3>
 8000286:	bf00      	nop

08000288 <__aeabi_dsub>:
 8000288:	f083 4300 	eor.w	r3, r3, #2147483648	; 0x80000000

0800028c <__adddf3>:
 800028c:	b530      	push	{r4, r5, lr}
 800028e:	ea4f 0441 	mov.w	r4, r1, lsl #1
 8000292:	ea4f 0543 	mov.w	r5, r3, lsl #1
 8000296:	ea94 0f05 	teq	r4, r5
 800029a:	bf08      	it	eq
 800029c:	ea90 0f02 	teqeq	r0, r2
 80002a0:	bf1f      	itttt	ne
 80002a2:	ea54 0c00 	orrsne.w	ip, r4, r0
 80002a6:	ea55 0c02 	orrsne.w	ip, r5, r2
 80002aa:	ea7f 5c64 	mvnsne.w	ip, r4, asr #21
 80002ae:	ea7f 5c65 	mvnsne.w	ip, r5, asr #21
 80002b2:	f000 80e2 	beq.w	800047a <__adddf3+0x1ee>
 80002b6:	ea4f 5454 	mov.w	r4, r4, lsr #21
 80002ba:	ebd4 5555 	rsbs	r5, r4, r5, lsr #21
 80002be:	bfb8      	it	lt
 80002c0:	426d      	neglt	r5, r5
 80002c2:	dd0c      	ble.n	80002de <__adddf3+0x52>
 80002c4:	442c      	add	r4, r5
 80002c6:	ea80 0202 	eor.w	r2, r0, r2
 80002ca:	ea81 0303 	eor.w	r3, r1, r3
 80002ce:	ea82 0000 	eor.w	r0, r2, r0
 80002d2:	ea83 0101 	eor.w	r1, r3, r1
 80002d6:	ea80 0202 	eor.w	r2, r0, r2
 80002da:	ea81 0303 	eor.w	r3, r1, r3
 80002de:	2d36      	cmp	r5, #54	; 0x36
 80002e0:	bf88      	it	hi
 80002e2:	bd30      	pophi	{r4, r5, pc}
 80002e4:	f011 4f00 	tst.w	r1, #2147483648	; 0x80000000
 80002e8:	ea4f 3101 	mov.w	r1, r1, lsl #12
 80002ec:	f44f 1c80 	mov.w	ip, #1048576	; 0x100000
 80002f0:	ea4c 3111 	orr.w	r1, ip, r1, lsr #12
 80002f4:	d002      	beq.n	80002fc <__adddf3+0x70>
 80002f6:	4240      	negs	r0, r0
 80002f8:	eb61 0141 	sbc.w	r1, r1, r1, lsl #1
 80002fc:	f013 4f00 	tst.w	r3, #2147483648	; 0x80000000
 8000300:	ea4f 3303 	mov.w	r3, r3, lsl #12
 8000304:	ea4c 3313 	orr.w	r3, ip, r3, lsr #12
 8000308:	d002      	beq.n	8000310 <__adddf3+0x84>
 800030a:	4252      	negs	r2, r2
 800030c:	eb63 0343 	sbc.w	r3, r3, r3, lsl #1
 8000310:	ea94 0f05 	teq	r4, r5
 8000314:	f000 80a7 	beq.w	8000466 <__adddf3+0x1da>
 8000318:	f1a4 0401 	sub.w	r4, r4, #1
 800031c:	f1d5 0e20 	rsbs	lr, r5, #32
 8000320:	db0d      	blt.n	800033e <__adddf3+0xb2>
 8000322:	fa02 fc0e 	lsl.w	ip, r2, lr
 8000326:	fa22 f205 	lsr.w	r2, r2, r5
 800032a:	1880      	adds	r0, r0, r2
 800032c:	f141 0100 	adc.w	r1, r1, #0
 8000330:	fa03 f20e 	lsl.w	r2, r3, lr
 8000334:	1880      	adds	r0, r0, r2
 8000336:	fa43 f305 	asr.w	r3, r3, r5
 800033a:	4159      	adcs	r1, r3
 800033c:	e00e      	b.n	800035c <__adddf3+0xd0>
 800033e:	f1a5 0520 	sub.w	r5, r5, #32
 8000342:	f10e 0e20 	add.w	lr, lr, #32
 8000346:	2a01      	cmp	r2, #1
 8000348:	fa03 fc0e 	lsl.w	ip, r3, lr
 800034c:	bf28      	it	cs
 800034e:	f04c 0c02 	orrcs.w	ip, ip, #2
 8000352:	fa43 f305 	asr.w	r3, r3, r5
 8000356:	18c0      	adds	r0, r0, r3
 8000358:	eb51 71e3 	adcs.w	r1, r1, r3, asr #31
 800035c:	f001 4500 	and.w	r5, r1, #2147483648	; 0x80000000
 8000360:	d507      	bpl.n	8000372 <__adddf3+0xe6>
 8000362:	f04f 0e00 	mov.w	lr, #0
 8000366:	f1dc 0c00 	rsbs	ip, ip, #0
 800036a:	eb7e 0000 	sbcs.w	r0, lr, r0
 800036e:	eb6e 0101 	sbc.w	r1, lr, r1
 8000372:	f5b1 1f80 	cmp.w	r1, #1048576	; 0x100000
 8000376:	d31b      	bcc.n	80003b0 <__adddf3+0x124>
 8000378:	f5b1 1f00 	cmp.w	r1, #2097152	; 0x200000
 800037c:	d30c      	bcc.n	8000398 <__adddf3+0x10c>
 800037e:	0849      	lsrs	r1, r1, #1
 8000380:	ea5f 0030 	movs.w	r0, r0, rrx
 8000384:	ea4f 0c3c 	mov.w	ip, ip, rrx
 8000388:	f104 0401 	add.w	r4, r4, #1
 800038c:	ea4f 5244 	mov.w	r2, r4, lsl #21
 8000390:	f512 0f80 	cmn.w	r2, #4194304	; 0x400000
 8000394:	f080 809a 	bcs.w	80004cc <__adddf3+0x240>
 8000398:	f1bc 4f00 	cmp.w	ip, #2147483648	; 0x80000000
 800039c:	bf08      	it	eq
 800039e:	ea5f 0c50 	movseq.w	ip, r0, lsr #1
 80003a2:	f150 0000 	adcs.w	r0, r0, #0
 80003a6:	eb41 5104 	adc.w	r1, r1, r4, lsl #20
 80003aa:	ea41 0105 	orr.w	r1, r1, r5
 80003ae:	bd30      	pop	{r4, r5, pc}
 80003b0:	ea5f 0c4c 	movs.w	ip, ip, lsl #1
 80003b4:	4140      	adcs	r0, r0
 80003b6:	eb41 0101 	adc.w	r1, r1, r1
 80003ba:	3c01      	subs	r4, #1
 80003bc:	bf28      	it	cs
 80003be:	f5b1 1f80 	cmpcs.w	r1, #1048576	; 0x100000
 80003c2:	d2e9      	bcs.n	8000398 <__adddf3+0x10c>
 80003c4:	f091 0f00 	teq	r1, #0
 80003c8:	bf04      	itt	eq
 80003ca:	4601      	moveq	r1, r0
 80003cc:	2000      	moveq	r0, #0
 80003ce:	fab1 f381 	clz	r3, r1
 80003d2:	bf08      	it	eq
 80003d4:	3320      	addeq	r3, #32
 80003d6:	f1a3 030b 	sub.w	r3, r3, #11
 80003da:	f1b3 0220 	subs.w	r2, r3, #32
 80003de:	da0c      	bge.n	80003fa <__adddf3+0x16e>
 80003e0:	320c      	adds	r2, #12
 80003e2:	dd08      	ble.n	80003f6 <__adddf3+0x16a>
 80003e4:	f102 0c14 	add.w	ip, r2, #20
 80003e8:	f1c2 020c 	rsb	r2, r2, #12
 80003ec:	fa01 f00c 	lsl.w	r0, r1, ip
 80003f0:	fa21 f102 	lsr.w	r1, r1, r2
 80003f4:	e00c      	b.n	8000410 <__adddf3+0x184>
 80003f6:	f102 0214 	add.w	r2, r2, #20
 80003fa:	bfd8      	it	le
 80003fc:	f1c2 0c20 	rsble	ip, r2, #32
 8000400:	fa01 f102 	lsl.w	r1, r1, r2
 8000404:	fa20 fc0c 	lsr.w	ip, r0, ip
 8000408:	bfdc      	itt	le
 800040a:	ea41 010c 	orrle.w	r1, r1, ip
 800040e:	4090      	lslle	r0, r2
 8000410:	1ae4      	subs	r4, r4, r3
 8000412:	bfa2      	ittt	ge
 8000414:	eb01 5104 	addge.w	r1, r1, r4, lsl #20
 8000418:	4329      	orrge	r1, r5
 800041a:	bd30      	popge	{r4, r5, pc}
 800041c:	ea6f 0404 	mvn.w	r4, r4
 8000420:	3c1f      	subs	r4, #31
 8000422:	da1c      	bge.n	800045e <__adddf3+0x1d2>
 8000424:	340c      	adds	r4, #12
 8000426:	dc0e      	bgt.n	8000446 <__adddf3+0x1ba>
 8000428:	f104 0414 	add.w	r4, r4, #20
 800042c:	f1c4 0220 	rsb	r2, r4, #32
 8000430:	fa20 f004 	lsr.w	r0, r0, r4
 8000434:	fa01 f302 	lsl.w	r3, r1, r2
 8000438:	ea40 0003 	orr.w	r0, r0, r3
 800043c:	fa21 f304 	lsr.w	r3, r1, r4
 8000440:	ea45 0103 	orr.w	r1, r5, r3
 8000444:	bd30      	pop	{r4, r5, pc}
 8000446:	f1c4 040c 	rsb	r4, r4, #12
 800044a:	f1c4 0220 	rsb	r2, r4, #32
 800044e:	fa20 f002 	lsr.w	r0, r0, r2
 8000452:	fa01 f304 	lsl.w	r3, r1, r4
 8000456:	ea40 0003 	orr.w	r0, r0, r3
 800045a:	4629      	mov	r1, r5
 800045c:	bd30      	pop	{r4, r5, pc}
 800045e:	fa21 f004 	lsr.w	r0, r1, r4
 8000462:	4629      	mov	r1, r5
 8000464:	bd30      	pop	{r4, r5, pc}
 8000466:	f094 0f00 	teq	r4, #0
 800046a:	f483 1380 	eor.w	r3, r3, #1048576	; 0x100000
 800046e:	bf06      	itte	eq
 8000470:	f481 1180 	eoreq.w	r1, r1, #1048576	; 0x100000
 8000474:	3401      	addeq	r4, #1
 8000476:	3d01      	subne	r5, #1
 8000478:	e74e      	b.n	8000318 <__adddf3+0x8c>
 800047a:	ea7f 5c64 	mvns.w	ip, r4, asr #21
 800047e:	bf18      	it	ne
 8000480:	ea7f 5c65 	mvnsne.w	ip, r5, asr #21
 8000484:	d029      	beq.n	80004da <__adddf3+0x24e>
 8000486:	ea94 0f05 	teq	r4, r5
 800048a:	bf08      	it	eq
 800048c:	ea90 0f02 	teqeq	r0, r2
 8000490:	d005      	beq.n	800049e <__adddf3+0x212>
 8000492:	ea54 0c00 	orrs.w	ip, r4, r0
 8000496:	bf04      	itt	eq
 8000498:	4619      	moveq	r1, r3
 800049a:	4610      	moveq	r0, r2
 800049c:	bd30      	pop	{r4, r5, pc}
 800049e:	ea91 0f03 	teq	r1, r3
 80004a2:	bf1e      	ittt	ne
 80004a4:	2100      	movne	r1, #0
 80004a6:	2000      	movne	r0, #0
 80004a8:	bd30      	popne	{r4, r5, pc}
 80004aa:	ea5f 5c54 	movs.w	ip, r4, lsr #21
 80004ae:	d105      	bne.n	80004bc <__adddf3+0x230>
 80004b0:	0040      	lsls	r0, r0, #1
 80004b2:	4149      	adcs	r1, r1
 80004b4:	bf28      	it	cs
 80004b6:	f041 4100 	orrcs.w	r1, r1, #2147483648	; 0x80000000
 80004ba:	bd30      	pop	{r4, r5, pc}
 80004bc:	f514 0480 	adds.w	r4, r4, #4194304	; 0x400000
 80004c0:	bf3c      	itt	cc
 80004c2:	f501 1180 	addcc.w	r1, r1, #1048576	; 0x100000
 80004c6:	bd30      	popcc	{r4, r5, pc}
 80004c8:	f001 4500 	and.w	r5, r1, #2147483648	; 0x80000000
 80004cc:	f045 41fe 	orr.w	r1, r5, #2130706432	; 0x7f000000
 80004d0:	f441 0170 	orr.w	r1, r1, #15728640	; 0xf00000
 80004d4:	f04f 0000 	mov.w	r0, #0
 80004d8:	bd30      	pop	{r4, r5, pc}
 80004da:	ea7f 5c64 	mvns.w	ip, r4, asr #21
 80004de:	bf1a      	itte	ne
 80004e0:	4619      	movne	r1, r3
 80004e2:	4610      	movne	r0, r2
 80004e4:	ea7f 5c65 	mvnseq.w	ip, r5, asr #21
 80004e8:	bf1c      	itt	ne
 80004ea:	460b      	movne	r3, r1
 80004ec:	4602      	movne	r2, r0
 80004ee:	ea50 3401 	orrs.w	r4, r0, r1, lsl #12
 80004f2:	bf06      	itte	eq
 80004f4:	ea52 3503 	orrseq.w	r5, r2, r3, lsl #12
 80004f8:	ea91 0f03 	teqeq	r1, r3
 80004fc:	f441 2100 	orrne.w	r1, r1, #524288	; 0x80000
 8000500:	bd30      	pop	{r4, r5, pc}
 8000502:	bf00      	nop

08000504 <__aeabi_ui2d>:
 8000504:	f090 0f00 	teq	r0, #0
 8000508:	bf04      	itt	eq
 800050a:	2100      	moveq	r1, #0
 800050c:	4770      	bxeq	lr
 800050e:	b530      	push	{r4, r5, lr}
 8000510:	f44f 6480 	mov.w	r4, #1024	; 0x400
 8000514:	f104 0432 	add.w	r4, r4, #50	; 0x32
 8000518:	f04f 0500 	mov.w	r5, #0
 800051c:	f04f 0100 	mov.w	r1, #0
 8000520:	e750      	b.n	80003c4 <__adddf3+0x138>
 8000522:	bf00      	nop

08000524 <__aeabi_i2d>:
 8000524:	f090 0f00 	teq	r0, #0
 8000528:	bf04      	itt	eq
 800052a:	2100      	moveq	r1, #0
 800052c:	4770      	bxeq	lr
 800052e:	b530      	push	{r4, r5, lr}
 8000530:	f44f 6480 	mov.w	r4, #1024	; 0x400
 8000534:	f104 0432 	add.w	r4, r4, #50	; 0x32
 8000538:	f010 4500 	ands.w	r5, r0, #2147483648	; 0x80000000
 800053c:	bf48      	it	mi
 800053e:	4240      	negmi	r0, r0
 8000540:	f04f 0100 	mov.w	r1, #0
 8000544:	e73e      	b.n	80003c4 <__adddf3+0x138>
 8000546:	bf00      	nop

08000548 <__aeabi_f2d>:
 8000548:	0042      	lsls	r2, r0, #1
 800054a:	ea4f 01e2 	mov.w	r1, r2, asr #3
 800054e:	ea4f 0131 	mov.w	r1, r1, rrx
 8000552:	ea4f 7002 	mov.w	r0, r2, lsl #28
 8000556:	bf1f      	itttt	ne
 8000558:	f012 437f 	andsne.w	r3, r2, #4278190080	; 0xff000000
 800055c:	f093 4f7f 	teqne	r3, #4278190080	; 0xff000000
 8000560:	f081 5160 	eorne.w	r1, r1, #939524096	; 0x38000000
 8000564:	4770      	bxne	lr
 8000566:	f032 427f 	bics.w	r2, r2, #4278190080	; 0xff000000
 800056a:	bf08      	it	eq
 800056c:	4770      	bxeq	lr
 800056e:	f093 4f7f 	teq	r3, #4278190080	; 0xff000000
 8000572:	bf04      	itt	eq
 8000574:	f441 2100 	orreq.w	r1, r1, #524288	; 0x80000
 8000578:	4770      	bxeq	lr
 800057a:	b530      	push	{r4, r5, lr}
 800057c:	f44f 7460 	mov.w	r4, #896	; 0x380
 8000580:	f001 4500 	and.w	r5, r1, #2147483648	; 0x80000000
 8000584:	f021 4100 	bic.w	r1, r1, #2147483648	; 0x80000000
 8000588:	e71c      	b.n	80003c4 <__adddf3+0x138>
 800058a:	bf00      	nop

0800058c <__aeabi_ul2d>:
 800058c:	ea50 0201 	orrs.w	r2, r0, r1
 8000590:	bf08      	it	eq
 8000592:	4770      	bxeq	lr
 8000594:	b530      	push	{r4, r5, lr}
 8000596:	f04f 0500 	mov.w	r5, #0
 800059a:	e00a      	b.n	80005b2 <__aeabi_l2d+0x16>

0800059c <__aeabi_l2d>:
 800059c:	ea50 0201 	orrs.w	r2, r0, r1
 80005a0:	bf08      	it	eq
 80005a2:	4770      	bxeq	lr
 80005a4:	b530      	push	{r4, r5, lr}
 80005a6:	f011 4500 	ands.w	r5, r1, #2147483648	; 0x80000000
 80005aa:	d502      	bpl.n	80005b2 <__aeabi_l2d+0x16>
 80005ac:	4240      	negs	r0, r0
 80005ae:	eb61 0141 	sbc.w	r1, r1, r1, lsl #1
 80005b2:	f44f 6480 	mov.w	r4, #1024	; 0x400
 80005b6:	f104 0432 	add.w	r4, r4, #50	; 0x32
 80005ba:	ea5f 5c91 	movs.w	ip, r1, lsr #22
 80005be:	f43f aed8 	beq.w	8000372 <__adddf3+0xe6>
 80005c2:	f04f 0203 	mov.w	r2, #3
 80005c6:	ea5f 0cdc 	movs.w	ip, ip, lsr #3
 80005ca:	bf18      	it	ne
 80005cc:	3203      	addne	r2, #3
 80005ce:	ea5f 0cdc 	movs.w	ip, ip, lsr #3
 80005d2:	bf18      	it	ne
 80005d4:	3203      	addne	r2, #3
 80005d6:	eb02 02dc 	add.w	r2, r2, ip, lsr #3
 80005da:	f1c2 0320 	rsb	r3, r2, #32
 80005de:	fa00 fc03 	lsl.w	ip, r0, r3
 80005e2:	fa20 f002 	lsr.w	r0, r0, r2
 80005e6:	fa01 fe03 	lsl.w	lr, r1, r3
 80005ea:	ea40 000e 	orr.w	r0, r0, lr
 80005ee:	fa21 f102 	lsr.w	r1, r1, r2
 80005f2:	4414      	add	r4, r2
 80005f4:	e6bd      	b.n	8000372 <__adddf3+0xe6>
 80005f6:	bf00      	nop

080005f8 <__aeabi_dmul>:
 80005f8:	b570      	push	{r4, r5, r6, lr}
 80005fa:	f04f 0cff 	mov.w	ip, #255	; 0xff
 80005fe:	f44c 6ce0 	orr.w	ip, ip, #1792	; 0x700
 8000602:	ea1c 5411 	ands.w	r4, ip, r1, lsr #20
 8000606:	bf1d      	ittte	ne
 8000608:	ea1c 5513 	andsne.w	r5, ip, r3, lsr #20
 800060c:	ea94 0f0c 	teqne	r4, ip
 8000610:	ea95 0f0c 	teqne	r5, ip
 8000614:	f000 f8de 	bleq	80007d4 <__aeabi_dmul+0x1dc>
 8000618:	442c      	add	r4, r5
 800061a:	ea81 0603 	eor.w	r6, r1, r3
 800061e:	ea21 514c 	bic.w	r1, r1, ip, lsl #21
 8000622:	ea23 534c 	bic.w	r3, r3, ip, lsl #21
 8000626:	ea50 3501 	orrs.w	r5, r0, r1, lsl #12
 800062a:	bf18      	it	ne
 800062c:	ea52 3503 	orrsne.w	r5, r2, r3, lsl #12
 8000630:	f441 1180 	orr.w	r1, r1, #1048576	; 0x100000
 8000634:	f443 1380 	orr.w	r3, r3, #1048576	; 0x100000
 8000638:	d038      	beq.n	80006ac <__aeabi_dmul+0xb4>
 800063a:	fba0 ce02 	umull	ip, lr, r0, r2
 800063e:	f04f 0500 	mov.w	r5, #0
 8000642:	fbe1 e502 	umlal	lr, r5, r1, r2
 8000646:	f006 4200 	and.w	r2, r6, #2147483648	; 0x80000000
 800064a:	fbe0 e503 	umlal	lr, r5, r0, r3
 800064e:	f04f 0600 	mov.w	r6, #0
 8000652:	fbe1 5603 	umlal	r5, r6, r1, r3
 8000656:	f09c 0f00 	teq	ip, #0
 800065a:	bf18      	it	ne
 800065c:	f04e 0e01 	orrne.w	lr, lr, #1
 8000660:	f1a4 04ff 	sub.w	r4, r4, #255	; 0xff
 8000664:	f5b6 7f00 	cmp.w	r6, #512	; 0x200
 8000668:	f564 7440 	sbc.w	r4, r4, #768	; 0x300
 800066c:	d204      	bcs.n	8000678 <__aeabi_dmul+0x80>
 800066e:	ea5f 0e4e 	movs.w	lr, lr, lsl #1
 8000672:	416d      	adcs	r5, r5
 8000674:	eb46 0606 	adc.w	r6, r6, r6
 8000678:	ea42 21c6 	orr.w	r1, r2, r6, lsl #11
 800067c:	ea41 5155 	orr.w	r1, r1, r5, lsr #21
 8000680:	ea4f 20c5 	mov.w	r0, r5, lsl #11
 8000684:	ea40 505e 	orr.w	r0, r0, lr, lsr #21
 8000688:	ea4f 2ece 	mov.w	lr, lr, lsl #11
 800068c:	f1b4 0cfd 	subs.w	ip, r4, #253	; 0xfd
 8000690:	bf88      	it	hi
 8000692:	f5bc 6fe0 	cmphi.w	ip, #1792	; 0x700
 8000696:	d81e      	bhi.n	80006d6 <__aeabi_dmul+0xde>
 8000698:	f1be 4f00 	cmp.w	lr, #2147483648	; 0x80000000
 800069c:	bf08      	it	eq
 800069e:	ea5f 0e50 	movseq.w	lr, r0, lsr #1
 80006a2:	f150 0000 	adcs.w	r0, r0, #0
 80006a6:	eb41 5104 	adc.w	r1, r1, r4, lsl #20
 80006aa:	bd70      	pop	{r4, r5, r6, pc}
 80006ac:	f006 4600 	and.w	r6, r6, #2147483648	; 0x80000000
 80006b0:	ea46 0101 	orr.w	r1, r6, r1
 80006b4:	ea40 0002 	orr.w	r0, r0, r2
 80006b8:	ea81 0103 	eor.w	r1, r1, r3
 80006bc:	ebb4 045c 	subs.w	r4, r4, ip, lsr #1
 80006c0:	bfc2      	ittt	gt
 80006c2:	ebd4 050c 	rsbsgt	r5, r4, ip
 80006c6:	ea41 5104 	orrgt.w	r1, r1, r4, lsl #20
 80006ca:	bd70      	popgt	{r4, r5, r6, pc}
 80006cc:	f441 1180 	orr.w	r1, r1, #1048576	; 0x100000
 80006d0:	f04f 0e00 	mov.w	lr, #0
 80006d4:	3c01      	subs	r4, #1
 80006d6:	f300 80ab 	bgt.w	8000830 <__aeabi_dmul+0x238>
 80006da:	f114 0f36 	cmn.w	r4, #54	; 0x36
 80006de:	bfde      	ittt	le
 80006e0:	2000      	movle	r0, #0
 80006e2:	f001 4100 	andle.w	r1, r1, #2147483648	; 0x80000000
 80006e6:	bd70      	pople	{r4, r5, r6, pc}
 80006e8:	f1c4 0400 	rsb	r4, r4, #0
 80006ec:	3c20      	subs	r4, #32
 80006ee:	da35      	bge.n	800075c <__aeabi_dmul+0x164>
 80006f0:	340c      	adds	r4, #12
 80006f2:	dc1b      	bgt.n	800072c <__aeabi_dmul+0x134>
 80006f4:	f104 0414 	add.w	r4, r4, #20
 80006f8:	f1c4 0520 	rsb	r5, r4, #32
 80006fc:	fa00 f305 	lsl.w	r3, r0, r5
 8000700:	fa20 f004 	lsr.w	r0, r0, r4
 8000704:	fa01 f205 	lsl.w	r2, r1, r5
 8000708:	ea40 0002 	orr.w	r0, r0, r2
 800070c:	f001 4200 	and.w	r2, r1, #2147483648	; 0x80000000
 8000710:	f021 4100 	bic.w	r1, r1, #2147483648	; 0x80000000
 8000714:	eb10 70d3 	adds.w	r0, r0, r3, lsr #31
 8000718:	fa21 f604 	lsr.w	r6, r1, r4
 800071c:	eb42 0106 	adc.w	r1, r2, r6
 8000720:	ea5e 0e43 	orrs.w	lr, lr, r3, lsl #1
 8000724:	bf08      	it	eq
 8000726:	ea20 70d3 	biceq.w	r0, r0, r3, lsr #31
 800072a:	bd70      	pop	{r4, r5, r6, pc}
 800072c:	f1c4 040c 	rsb	r4, r4, #12
 8000730:	f1c4 0520 	rsb	r5, r4, #32
 8000734:	fa00 f304 	lsl.w	r3, r0, r4
 8000738:	fa20 f005 	lsr.w	r0, r0, r5
 800073c:	fa01 f204 	lsl.w	r2, r1, r4
 8000740:	ea40 0002 	orr.w	r0, r0, r2
 8000744:	f001 4100 	and.w	r1, r1, #2147483648	; 0x80000000
 8000748:	eb10 70d3 	adds.w	r0, r0, r3, lsr #31
 800074c:	f141 0100 	adc.w	r1, r1, #0
 8000750:	ea5e 0e43 	orrs.w	lr, lr, r3, lsl #1
 8000754:	bf08      	it	eq
 8000756:	ea20 70d3 	biceq.w	r0, r0, r3, lsr #31
 800075a:	bd70      	pop	{r4, r5, r6, pc}
 800075c:	f1c4 0520 	rsb	r5, r4, #32
 8000760:	fa00 f205 	lsl.w	r2, r0, r5
 8000764:	ea4e 0e02 	orr.w	lr, lr, r2
 8000768:	fa20 f304 	lsr.w	r3, r0, r4
 800076c:	fa01 f205 	lsl.w	r2, r1, r5
 8000770:	ea43 0302 	orr.w	r3, r3, r2
 8000774:	fa21 f004 	lsr.w	r0, r1, r4
 8000778:	f001 4100 	and.w	r1, r1, #2147483648	; 0x80000000
 800077c:	fa21 f204 	lsr.w	r2, r1, r4
 8000780:	ea20 0002 	bic.w	r0, r0, r2
 8000784:	eb00 70d3 	add.w	r0, r0, r3, lsr #31
 8000788:	ea5e 0e43 	orrs.w	lr, lr, r3, lsl #1
 800078c:	bf08      	it	eq
 800078e:	ea20 70d3 	biceq.w	r0, r0, r3, lsr #31
 8000792:	bd70      	pop	{r4, r5, r6, pc}
 8000794:	f094 0f00 	teq	r4, #0
 8000798:	d10f      	bne.n	80007ba <__aeabi_dmul+0x1c2>
 800079a:	f001 4600 	and.w	r6, r1, #2147483648	; 0x80000000
 800079e:	0040      	lsls	r0, r0, #1
 80007a0:	eb41 0101 	adc.w	r1, r1, r1
 80007a4:	f411 1f80 	tst.w	r1, #1048576	; 0x100000
 80007a8:	bf08      	it	eq
 80007aa:	3c01      	subeq	r4, #1
 80007ac:	d0f7      	beq.n	800079e <__aeabi_dmul+0x1a6>
 80007ae:	ea41 0106 	orr.w	r1, r1, r6
 80007b2:	f095 0f00 	teq	r5, #0
 80007b6:	bf18      	it	ne
 80007b8:	4770      	bxne	lr
 80007ba:	f003 4600 	and.w	r6, r3, #2147483648	; 0x80000000
 80007be:	0052      	lsls	r2, r2, #1
 80007c0:	eb43 0303 	adc.w	r3, r3, r3
 80007c4:	f413 1f80 	tst.w	r3, #1048576	; 0x100000
 80007c8:	bf08      	it	eq
 80007ca:	3d01      	subeq	r5, #1
 80007cc:	d0f7      	beq.n	80007be <__aeabi_dmul+0x1c6>
 80007ce:	ea43 0306 	orr.w	r3, r3, r6
 80007d2:	4770      	bx	lr
 80007d4:	ea94 0f0c 	teq	r4, ip
 80007d8:	ea0c 5513 	and.w	r5, ip, r3, lsr #20
 80007dc:	bf18      	it	ne
 80007de:	ea95 0f0c 	teqne	r5, ip
 80007e2:	d00c      	beq.n	80007fe <__aeabi_dmul+0x206>
 80007e4:	ea50 0641 	orrs.w	r6, r0, r1, lsl #1
 80007e8:	bf18      	it	ne
 80007ea:	ea52 0643 	orrsne.w	r6, r2, r3, lsl #1
 80007ee:	d1d1      	bne.n	8000794 <__aeabi_dmul+0x19c>
 80007f0:	ea81 0103 	eor.w	r1, r1, r3
 80007f4:	f001 4100 	and.w	r1, r1, #2147483648	; 0x80000000
 80007f8:	f04f 0000 	mov.w	r0, #0
 80007fc:	bd70      	pop	{r4, r5, r6, pc}
 80007fe:	ea50 0641 	orrs.w	r6, r0, r1, lsl #1
 8000802:	bf06      	itte	eq
 8000804:	4610      	moveq	r0, r2
 8000806:	4619      	moveq	r1, r3
 8000808:	ea52 0643 	orrsne.w	r6, r2, r3, lsl #1
 800080c:	d019      	beq.n	8000842 <__aeabi_dmul+0x24a>
 800080e:	ea94 0f0c 	teq	r4, ip
 8000812:	d102      	bne.n	800081a <__aeabi_dmul+0x222>
 8000814:	ea50 3601 	orrs.w	r6, r0, r1, lsl #12
 8000818:	d113      	bne.n	8000842 <__aeabi_dmul+0x24a>
 800081a:	ea95 0f0c 	teq	r5, ip
 800081e:	d105      	bne.n	800082c <__aeabi_dmul+0x234>
 8000820:	ea52 3603 	orrs.w	r6, r2, r3, lsl #12
 8000824:	bf1c      	itt	ne
 8000826:	4610      	movne	r0, r2
 8000828:	4619      	movne	r1, r3
 800082a:	d10a      	bne.n	8000842 <__aeabi_dmul+0x24a>
 800082c:	ea81 0103 	eor.w	r1, r1, r3
 8000830:	f001 4100 	and.w	r1, r1, #2147483648	; 0x80000000
 8000834:	f041 41fe 	orr.w	r1, r1, #2130706432	; 0x7f000000
 8000838:	f441 0170 	orr.w	r1, r1, #15728640	; 0xf00000
 800083c:	f04f 0000 	mov.w	r0, #0
 8000840:	bd70      	pop	{r4, r5, r6, pc}
 8000842:	f041 41fe 	orr.w	r1, r1, #2130706432	; 0x7f000000
 8000846:	f441 0178 	orr.w	r1, r1, #16252928	; 0xf80000
 800084a:	bd70      	pop	{r4, r5, r6, pc}

0800084c <__aeabi_ddiv>:
 800084c:	b570      	push	{r4, r5, r6, lr}
 800084e:	f04f 0cff 	mov.w	ip, #255	; 0xff
 8000852:	f44c 6ce0 	orr.w	ip, ip, #1792	; 0x700
 8000856:	ea1c 5411 	ands.w	r4, ip, r1, lsr #20
 800085a:	bf1d      	ittte	ne
 800085c:	ea1c 5513 	andsne.w	r5, ip, r3, lsr #20
 8000860:	ea94 0f0c 	teqne	r4, ip
 8000864:	ea95 0f0c 	teqne	r5, ip
 8000868:	f000 f8a7 	bleq	80009ba <__aeabi_ddiv+0x16e>
 800086c:	eba4 0405 	sub.w	r4, r4, r5
 8000870:	ea81 0e03 	eor.w	lr, r1, r3
 8000874:	ea52 3503 	orrs.w	r5, r2, r3, lsl #12
 8000878:	ea4f 3101 	mov.w	r1, r1, lsl #12
 800087c:	f000 8088 	beq.w	8000990 <__aeabi_ddiv+0x144>
 8000880:	ea4f 3303 	mov.w	r3, r3, lsl #12
 8000884:	f04f 5580 	mov.w	r5, #268435456	; 0x10000000
 8000888:	ea45 1313 	orr.w	r3, r5, r3, lsr #4
 800088c:	ea43 6312 	orr.w	r3, r3, r2, lsr #24
 8000890:	ea4f 2202 	mov.w	r2, r2, lsl #8
 8000894:	ea45 1511 	orr.w	r5, r5, r1, lsr #4
 8000898:	ea45 6510 	orr.w	r5, r5, r0, lsr #24
 800089c:	ea4f 2600 	mov.w	r6, r0, lsl #8
 80008a0:	f00e 4100 	and.w	r1, lr, #2147483648	; 0x80000000
 80008a4:	429d      	cmp	r5, r3
 80008a6:	bf08      	it	eq
 80008a8:	4296      	cmpeq	r6, r2
 80008aa:	f144 04fd 	adc.w	r4, r4, #253	; 0xfd
 80008ae:	f504 7440 	add.w	r4, r4, #768	; 0x300
 80008b2:	d202      	bcs.n	80008ba <__aeabi_ddiv+0x6e>
 80008b4:	085b      	lsrs	r3, r3, #1
 80008b6:	ea4f 0232 	mov.w	r2, r2, rrx
 80008ba:	1ab6      	subs	r6, r6, r2
 80008bc:	eb65 0503 	sbc.w	r5, r5, r3
 80008c0:	085b      	lsrs	r3, r3, #1
 80008c2:	ea4f 0232 	mov.w	r2, r2, rrx
 80008c6:	f44f 1080 	mov.w	r0, #1048576	; 0x100000
 80008ca:	f44f 2c00 	mov.w	ip, #524288	; 0x80000
 80008ce:	ebb6 0e02 	subs.w	lr, r6, r2
 80008d2:	eb75 0e03 	sbcs.w	lr, r5, r3
 80008d6:	bf22      	ittt	cs
 80008d8:	1ab6      	subcs	r6, r6, r2
 80008da:	4675      	movcs	r5, lr
 80008dc:	ea40 000c 	orrcs.w	r0, r0, ip
 80008e0:	085b      	lsrs	r3, r3, #1
 80008e2:	ea4f 0232 	mov.w	r2, r2, rrx
 80008e6:	ebb6 0e02 	subs.w	lr, r6, r2
 80008ea:	eb75 0e03 	sbcs.w	lr, r5, r3
 80008ee:	bf22      	ittt	cs
 80008f0:	1ab6      	subcs	r6, r6, r2
 80008f2:	4675      	movcs	r5, lr
 80008f4:	ea40 005c 	orrcs.w	r0, r0, ip, lsr #1
 80008f8:	085b      	lsrs	r3, r3, #1
 80008fa:	ea4f 0232 	mov.w	r2, r2, rrx
 80008fe:	ebb6 0e02 	subs.w	lr, r6, r2
 8000902:	eb75 0e03 	sbcs.w	lr, r5, r3
 8000906:	bf22      	ittt	cs
 8000908:	1ab6      	subcs	r6, r6, r2
 800090a:	4675      	movcs	r5, lr
 800090c:	ea40 009c 	orrcs.w	r0, r0, ip, lsr #2
 8000910:	085b      	lsrs	r3, r3, #1
 8000912:	ea4f 0232 	mov.w	r2, r2, rrx
 8000916:	ebb6 0e02 	subs.w	lr, r6, r2
 800091a:	eb75 0e03 	sbcs.w	lr, r5, r3
 800091e:	bf22      	ittt	cs
 8000920:	1ab6      	subcs	r6, r6, r2
 8000922:	4675      	movcs	r5, lr
 8000924:	ea40 00dc 	orrcs.w	r0, r0, ip, lsr #3
 8000928:	ea55 0e06 	orrs.w	lr, r5, r6
 800092c:	d018      	beq.n	8000960 <__aeabi_ddiv+0x114>
 800092e:	ea4f 1505 	mov.w	r5, r5, lsl #4
 8000932:	ea45 7516 	orr.w	r5, r5, r6, lsr #28
 8000936:	ea4f 1606 	mov.w	r6, r6, lsl #4
 800093a:	ea4f 03c3 	mov.w	r3, r3, lsl #3
 800093e:	ea43 7352 	orr.w	r3, r3, r2, lsr #29
 8000942:	ea4f 02c2 	mov.w	r2, r2, lsl #3
 8000946:	ea5f 1c1c 	movs.w	ip, ip, lsr #4
 800094a:	d1c0      	bne.n	80008ce <__aeabi_ddiv+0x82>
 800094c:	f411 1f80 	tst.w	r1, #1048576	; 0x100000
 8000950:	d10b      	bne.n	800096a <__aeabi_ddiv+0x11e>
 8000952:	ea41 0100 	orr.w	r1, r1, r0
 8000956:	f04f 0000 	mov.w	r0, #0
 800095a:	f04f 4c00 	mov.w	ip, #2147483648	; 0x80000000
 800095e:	e7b6      	b.n	80008ce <__aeabi_ddiv+0x82>
 8000960:	f411 1f80 	tst.w	r1, #1048576	; 0x100000
 8000964:	bf04      	itt	eq
 8000966:	4301      	orreq	r1, r0
 8000968:	2000      	moveq	r0, #0
 800096a:	f1b4 0cfd 	subs.w	ip, r4, #253	; 0xfd
 800096e:	bf88      	it	hi
 8000970:	f5bc 6fe0 	cmphi.w	ip, #1792	; 0x700
 8000974:	f63f aeaf 	bhi.w	80006d6 <__aeabi_dmul+0xde>
 8000978:	ebb5 0c03 	subs.w	ip, r5, r3
 800097c:	bf04      	itt	eq
 800097e:	ebb6 0c02 	subseq.w	ip, r6, r2
 8000982:	ea5f 0c50 	movseq.w	ip, r0, lsr #1
 8000986:	f150 0000 	adcs.w	r0, r0, #0
 800098a:	eb41 5104 	adc.w	r1, r1, r4, lsl #20
 800098e:	bd70      	pop	{r4, r5, r6, pc}
 8000990:	f00e 4e00 	and.w	lr, lr, #2147483648	; 0x80000000
 8000994:	ea4e 3111 	orr.w	r1, lr, r1, lsr #12
 8000998:	eb14 045c 	adds.w	r4, r4, ip, lsr #1
 800099c:	bfc2      	ittt	gt
 800099e:	ebd4 050c 	rsbsgt	r5, r4, ip
 80009a2:	ea41 5104 	orrgt.w	r1, r1, r4, lsl #20
 80009a6:	bd70      	popgt	{r4, r5, r6, pc}
 80009a8:	f441 1180 	orr.w	r1, r1, #1048576	; 0x100000
 80009ac:	f04f 0e00 	mov.w	lr, #0
 80009b0:	3c01      	subs	r4, #1
 80009b2:	e690      	b.n	80006d6 <__aeabi_dmul+0xde>
 80009b4:	ea45 0e06 	orr.w	lr, r5, r6
 80009b8:	e68d      	b.n	80006d6 <__aeabi_dmul+0xde>
 80009ba:	ea0c 5513 	and.w	r5, ip, r3, lsr #20
 80009be:	ea94 0f0c 	teq	r4, ip
 80009c2:	bf08      	it	eq
 80009c4:	ea95 0f0c 	teqeq	r5, ip
 80009c8:	f43f af3b 	beq.w	8000842 <__aeabi_dmul+0x24a>
 80009cc:	ea94 0f0c 	teq	r4, ip
 80009d0:	d10a      	bne.n	80009e8 <__aeabi_ddiv+0x19c>
 80009d2:	ea50 3401 	orrs.w	r4, r0, r1, lsl #12
 80009d6:	f47f af34 	bne.w	8000842 <__aeabi_dmul+0x24a>
 80009da:	ea95 0f0c 	teq	r5, ip
 80009de:	f47f af25 	bne.w	800082c <__aeabi_dmul+0x234>
 80009e2:	4610      	mov	r0, r2
 80009e4:	4619      	mov	r1, r3
 80009e6:	e72c      	b.n	8000842 <__aeabi_dmul+0x24a>
 80009e8:	ea95 0f0c 	teq	r5, ip
 80009ec:	d106      	bne.n	80009fc <__aeabi_ddiv+0x1b0>
 80009ee:	ea52 3503 	orrs.w	r5, r2, r3, lsl #12
 80009f2:	f43f aefd 	beq.w	80007f0 <__aeabi_dmul+0x1f8>
 80009f6:	4610      	mov	r0, r2
 80009f8:	4619      	mov	r1, r3
 80009fa:	e722      	b.n	8000842 <__aeabi_dmul+0x24a>
 80009fc:	ea50 0641 	orrs.w	r6, r0, r1, lsl #1
 8000a00:	bf18      	it	ne
 8000a02:	ea52 0643 	orrsne.w	r6, r2, r3, lsl #1
 8000a06:	f47f aec5 	bne.w	8000794 <__aeabi_dmul+0x19c>
 8000a0a:	ea50 0441 	orrs.w	r4, r0, r1, lsl #1
 8000a0e:	f47f af0d 	bne.w	800082c <__aeabi_dmul+0x234>
 8000a12:	ea52 0543 	orrs.w	r5, r2, r3, lsl #1
 8000a16:	f47f aeeb 	bne.w	80007f0 <__aeabi_dmul+0x1f8>
 8000a1a:	e712      	b.n	8000842 <__aeabi_dmul+0x24a>

08000a1c <__gedf2>:
 8000a1c:	f04f 3cff 	mov.w	ip, #4294967295
 8000a20:	e006      	b.n	8000a30 <__cmpdf2+0x4>
 8000a22:	bf00      	nop

08000a24 <__ledf2>:
 8000a24:	f04f 0c01 	mov.w	ip, #1
 8000a28:	e002      	b.n	8000a30 <__cmpdf2+0x4>
 8000a2a:	bf00      	nop

08000a2c <__cmpdf2>:
 8000a2c:	f04f 0c01 	mov.w	ip, #1
 8000a30:	f84d cd04 	str.w	ip, [sp, #-4]!
 8000a34:	ea4f 0c41 	mov.w	ip, r1, lsl #1
 8000a38:	ea7f 5c6c 	mvns.w	ip, ip, asr #21
 8000a3c:	ea4f 0c43 	mov.w	ip, r3, lsl #1
 8000a40:	bf18      	it	ne
 8000a42:	ea7f 5c6c 	mvnsne.w	ip, ip, asr #21
 8000a46:	d01b      	beq.n	8000a80 <__cmpdf2+0x54>
 8000a48:	b001      	add	sp, #4
 8000a4a:	ea50 0c41 	orrs.w	ip, r0, r1, lsl #1
 8000a4e:	bf0c      	ite	eq
 8000a50:	ea52 0c43 	orrseq.w	ip, r2, r3, lsl #1
 8000a54:	ea91 0f03 	teqne	r1, r3
 8000a58:	bf02      	ittt	eq
 8000a5a:	ea90 0f02 	teqeq	r0, r2
 8000a5e:	2000      	moveq	r0, #0
 8000a60:	4770      	bxeq	lr
 8000a62:	f110 0f00 	cmn.w	r0, #0
 8000a66:	ea91 0f03 	teq	r1, r3
 8000a6a:	bf58      	it	pl
 8000a6c:	4299      	cmppl	r1, r3
 8000a6e:	bf08      	it	eq
 8000a70:	4290      	cmpeq	r0, r2
 8000a72:	bf2c      	ite	cs
 8000a74:	17d8      	asrcs	r0, r3, #31
 8000a76:	ea6f 70e3 	mvncc.w	r0, r3, asr #31
 8000a7a:	f040 0001 	orr.w	r0, r0, #1
 8000a7e:	4770      	bx	lr
 8000a80:	ea4f 0c41 	mov.w	ip, r1, lsl #1
 8000a84:	ea7f 5c6c 	mvns.w	ip, ip, asr #21
 8000a88:	d102      	bne.n	8000a90 <__cmpdf2+0x64>
 8000a8a:	ea50 3c01 	orrs.w	ip, r0, r1, lsl #12
 8000a8e:	d107      	bne.n	8000aa0 <__cmpdf2+0x74>
 8000a90:	ea4f 0c43 	mov.w	ip, r3, lsl #1
 8000a94:	ea7f 5c6c 	mvns.w	ip, ip, asr #21
 8000a98:	d1d6      	bne.n	8000a48 <__cmpdf2+0x1c>
 8000a9a:	ea52 3c03 	orrs.w	ip, r2, r3, lsl #12
 8000a9e:	d0d3      	beq.n	8000a48 <__cmpdf2+0x1c>
 8000aa0:	f85d 0b04 	ldr.w	r0, [sp], #4
 8000aa4:	4770      	bx	lr
 8000aa6:	bf00      	nop

08000aa8 <__aeabi_cdrcmple>:
 8000aa8:	4684      	mov	ip, r0
 8000aaa:	4610      	mov	r0, r2
 8000aac:	4662      	mov	r2, ip
 8000aae:	468c      	mov	ip, r1
 8000ab0:	4619      	mov	r1, r3
 8000ab2:	4663      	mov	r3, ip
 8000ab4:	e000      	b.n	8000ab8 <__aeabi_cdcmpeq>
 8000ab6:	bf00      	nop

08000ab8 <__aeabi_cdcmpeq>:
 8000ab8:	b501      	push	{r0, lr}
 8000aba:	f7ff ffb7 	bl	8000a2c <__cmpdf2>
 8000abe:	2800      	cmp	r0, #0
 8000ac0:	bf48      	it	mi
 8000ac2:	f110 0f00 	cmnmi.w	r0, #0
 8000ac6:	bd01      	pop	{r0, pc}

08000ac8 <__aeabi_dcmpeq>:
 8000ac8:	f84d ed08 	str.w	lr, [sp, #-8]!
 8000acc:	f7ff fff4 	bl	8000ab8 <__aeabi_cdcmpeq>
 8000ad0:	bf0c      	ite	eq
 8000ad2:	2001      	moveq	r0, #1
 8000ad4:	2000      	movne	r0, #0
 8000ad6:	f85d fb08 	ldr.w	pc, [sp], #8
 8000ada:	bf00      	nop

08000adc <__aeabi_dcmplt>:
 8000adc:	f84d ed08 	str.w	lr, [sp, #-8]!
 8000ae0:	f7ff ffea 	bl	8000ab8 <__aeabi_cdcmpeq>
 8000ae4:	bf34      	ite	cc
 8000ae6:	2001      	movcc	r0, #1
 8000ae8:	2000      	movcs	r0, #0
 8000aea:	f85d fb08 	ldr.w	pc, [sp], #8
 8000aee:	bf00      	nop

08000af0 <__aeabi_dcmple>:
 8000af0:	f84d ed08 	str.w	lr, [sp, #-8]!
 8000af4:	f7ff ffe0 	bl	8000ab8 <__aeabi_cdcmpeq>
 8000af8:	bf94      	ite	ls
 8000afa:	2001      	movls	r0, #1
 8000afc:	2000      	movhi	r0, #0
 8000afe:	f85d fb08 	ldr.w	pc, [sp], #8
 8000b02:	bf00      	nop

08000b04 <__aeabi_dcmpge>:
 8000b04:	f84d ed08 	str.w	lr, [sp, #-8]!
 8000b08:	f7ff ffce 	bl	8000aa8 <__aeabi_cdrcmple>
 8000b0c:	bf94      	ite	ls
 8000b0e:	2001      	movls	r0, #1
 8000b10:	2000      	movhi	r0, #0
 8000b12:	f85d fb08 	ldr.w	pc, [sp], #8
 8000b16:	bf00      	nop

08000b18 <__aeabi_dcmpgt>:
 8000b18:	f84d ed08 	str.w	lr, [sp, #-8]!
 8000b1c:	f7ff ffc4 	bl	8000aa8 <__aeabi_cdrcmple>
 8000b20:	bf34      	ite	cc
 8000b22:	2001      	movcc	r0, #1
 8000b24:	2000      	movcs	r0, #0
 8000b26:	f85d fb08 	ldr.w	pc, [sp], #8
 8000b2a:	bf00      	nop

08000b2c <__aeabi_dcmpun>:
 8000b2c:	ea4f 0c41 	mov.w	ip, r1, lsl #1
 8000b30:	ea7f 5c6c 	mvns.w	ip, ip, asr #21
 8000b34:	d102      	bne.n	8000b3c <__aeabi_dcmpun+0x10>
 8000b36:	ea50 3c01 	orrs.w	ip, r0, r1, lsl #12
 8000b3a:	d10a      	bne.n	8000b52 <__aeabi_dcmpun+0x26>
 8000b3c:	ea4f 0c43 	mov.w	ip, r3, lsl #1
 8000b40:	ea7f 5c6c 	mvns.w	ip, ip, asr #21
 8000b44:	d102      	bne.n	8000b4c <__aeabi_dcmpun+0x20>
 8000b46:	ea52 3c03 	orrs.w	ip, r2, r3, lsl #12
 8000b4a:	d102      	bne.n	8000b52 <__aeabi_dcmpun+0x26>
 8000b4c:	f04f 0000 	mov.w	r0, #0
 8000b50:	4770      	bx	lr
 8000b52:	f04f 0001 	mov.w	r0, #1
 8000b56:	4770      	bx	lr

08000b58 <__aeabi_d2iz>:
 8000b58:	ea4f 0241 	mov.w	r2, r1, lsl #1
 8000b5c:	f512 1200 	adds.w	r2, r2, #2097152	; 0x200000
 8000b60:	d215      	bcs.n	8000b8e <__aeabi_d2iz+0x36>
 8000b62:	d511      	bpl.n	8000b88 <__aeabi_d2iz+0x30>
 8000b64:	f46f 7378 	mvn.w	r3, #992	; 0x3e0
 8000b68:	ebb3 5262 	subs.w	r2, r3, r2, asr #21
 8000b6c:	d912      	bls.n	8000b94 <__aeabi_d2iz+0x3c>
 8000b6e:	ea4f 23c1 	mov.w	r3, r1, lsl #11
 8000b72:	f043 4300 	orr.w	r3, r3, #2147483648	; 0x80000000
 8000b76:	ea43 5350 	orr.w	r3, r3, r0, lsr #21
 8000b7a:	f011 4f00 	tst.w	r1, #2147483648	; 0x80000000
 8000b7e:	fa23 f002 	lsr.w	r0, r3, r2
 8000b82:	bf18      	it	ne
 8000b84:	4240      	negne	r0, r0
 8000b86:	4770      	bx	lr
 8000b88:	f04f 0000 	mov.w	r0, #0
 8000b8c:	4770      	bx	lr
 8000b8e:	ea50 3001 	orrs.w	r0, r0, r1, lsl #12
 8000b92:	d105      	bne.n	8000ba0 <__aeabi_d2iz+0x48>
 8000b94:	f011 4000 	ands.w	r0, r1, #2147483648	; 0x80000000
 8000b98:	bf08      	it	eq
 8000b9a:	f06f 4000 	mvneq.w	r0, #2147483648	; 0x80000000
 8000b9e:	4770      	bx	lr
 8000ba0:	f04f 0000 	mov.w	r0, #0
 8000ba4:	4770      	bx	lr
 8000ba6:	bf00      	nop

08000ba8 <__aeabi_d2uiz>:
 8000ba8:	004a      	lsls	r2, r1, #1
 8000baa:	d211      	bcs.n	8000bd0 <__aeabi_d2uiz+0x28>
 8000bac:	f512 1200 	adds.w	r2, r2, #2097152	; 0x200000
 8000bb0:	d211      	bcs.n	8000bd6 <__aeabi_d2uiz+0x2e>
 8000bb2:	d50d      	bpl.n	8000bd0 <__aeabi_d2uiz+0x28>
 8000bb4:	f46f 7378 	mvn.w	r3, #992	; 0x3e0
 8000bb8:	ebb3 5262 	subs.w	r2, r3, r2, asr #21
 8000bbc:	d40e      	bmi.n	8000bdc <__aeabi_d2uiz+0x34>
 8000bbe:	ea4f 23c1 	mov.w	r3, r1, lsl #11
 8000bc2:	f043 4300 	orr.w	r3, r3, #2147483648	; 0x80000000
 8000bc6:	ea43 5350 	orr.w	r3, r3, r0, lsr #21
 8000bca:	fa23 f002 	lsr.w	r0, r3, r2
 8000bce:	4770      	bx	lr
 8000bd0:	f04f 0000 	mov.w	r0, #0
 8000bd4:	4770      	bx	lr
 8000bd6:	ea50 3001 	orrs.w	r0, r0, r1, lsl #12
 8000bda:	d102      	bne.n	8000be2 <__aeabi_d2uiz+0x3a>
 8000bdc:	f04f 30ff 	mov.w	r0, #4294967295
 8000be0:	4770      	bx	lr
 8000be2:	f04f 0000 	mov.w	r0, #0
 8000be6:	4770      	bx	lr

08000be8 <__aeabi_d2f>:
 8000be8:	ea4f 0241 	mov.w	r2, r1, lsl #1
 8000bec:	f1b2 43e0 	subs.w	r3, r2, #1879048192	; 0x70000000
 8000bf0:	bf24      	itt	cs
 8000bf2:	f5b3 1c00 	subscs.w	ip, r3, #2097152	; 0x200000
 8000bf6:	f1dc 5cfe 	rsbscs	ip, ip, #532676608	; 0x1fc00000
 8000bfa:	d90d      	bls.n	8000c18 <__aeabi_d2f+0x30>
 8000bfc:	f001 4c00 	and.w	ip, r1, #2147483648	; 0x80000000
 8000c00:	ea4f 02c0 	mov.w	r2, r0, lsl #3
 8000c04:	ea4c 7050 	orr.w	r0, ip, r0, lsr #29
 8000c08:	f1b2 4f00 	cmp.w	r2, #2147483648	; 0x80000000
 8000c0c:	eb40 0083 	adc.w	r0, r0, r3, lsl #2
 8000c10:	bf08      	it	eq
 8000c12:	f020 0001 	biceq.w	r0, r0, #1
 8000c16:	4770      	bx	lr
 8000c18:	f011 4f80 	tst.w	r1, #1073741824	; 0x40000000
 8000c1c:	d121      	bne.n	8000c62 <__aeabi_d2f+0x7a>
 8000c1e:	f113 7238 	adds.w	r2, r3, #48234496	; 0x2e00000
 8000c22:	bfbc      	itt	lt
 8000c24:	f001 4000 	andlt.w	r0, r1, #2147483648	; 0x80000000
 8000c28:	4770      	bxlt	lr
 8000c2a:	f441 1180 	orr.w	r1, r1, #1048576	; 0x100000
 8000c2e:	ea4f 5252 	mov.w	r2, r2, lsr #21
 8000c32:	f1c2 0218 	rsb	r2, r2, #24
 8000c36:	f1c2 0c20 	rsb	ip, r2, #32
 8000c3a:	fa10 f30c 	lsls.w	r3, r0, ip
 8000c3e:	fa20 f002 	lsr.w	r0, r0, r2
 8000c42:	bf18      	it	ne
 8000c44:	f040 0001 	orrne.w	r0, r0, #1
 8000c48:	ea4f 23c1 	mov.w	r3, r1, lsl #11
 8000c4c:	ea4f 23d3 	mov.w	r3, r3, lsr #11
 8000c50:	fa03 fc0c 	lsl.w	ip, r3, ip
 8000c54:	ea40 000c 	orr.w	r0, r0, ip
 8000c58:	fa23 f302 	lsr.w	r3, r3, r2
 8000c5c:	ea4f 0343 	mov.w	r3, r3, lsl #1
 8000c60:	e7cc      	b.n	8000bfc <__aeabi_d2f+0x14>
 8000c62:	ea7f 5362 	mvns.w	r3, r2, asr #21
 8000c66:	d107      	bne.n	8000c78 <__aeabi_d2f+0x90>
 8000c68:	ea50 3301 	orrs.w	r3, r0, r1, lsl #12
 8000c6c:	bf1e      	ittt	ne
 8000c6e:	f04f 40fe 	movne.w	r0, #2130706432	; 0x7f000000
 8000c72:	f440 0040 	orrne.w	r0, r0, #12582912	; 0xc00000
 8000c76:	4770      	bxne	lr
 8000c78:	f001 4000 	and.w	r0, r1, #2147483648	; 0x80000000
 8000c7c:	f040 40fe 	orr.w	r0, r0, #2130706432	; 0x7f000000
 8000c80:	f440 0000 	orr.w	r0, r0, #8388608	; 0x800000
 8000c84:	4770      	bx	lr
 8000c86:	bf00      	nop

08000c88 <enable_clocks>:

/* Private user code ---------------------------------------------------------*/
/* USER CODE BEGIN 0 */

// enable the clocks for desired peripherals (GPIOA, C and E)
void enable_clocks() {
 8000c88:	b480      	push	{r7}
 8000c8a:	af00      	add	r7, sp, #0
	RCC->AHBENR |= RCC_AHBENR_GPIOAEN | RCC_AHBENR_GPIOCEN | RCC_AHBENR_GPIOEEN;
 8000c8c:	4b05      	ldr	r3, [pc, #20]	; (8000ca4 <enable_clocks+0x1c>)
 8000c8e:	695b      	ldr	r3, [r3, #20]
 8000c90:	4a04      	ldr	r2, [pc, #16]	; (8000ca4 <enable_clocks+0x1c>)
 8000c92:	f443 1328 	orr.w	r3, r3, #2752512	; 0x2a0000
 8000c96:	6153      	str	r3, [r2, #20]
}
 8000c98:	bf00      	nop
 8000c9a:	46bd      	mov	sp, r7
 8000c9c:	f85d 7b04 	ldr.w	r7, [sp], #4
 8000ca0:	4770      	bx	lr
 8000ca2:	bf00      	nop
 8000ca4:	40021000 	.word	0x40021000

08000ca8 <initialise_board>:


// initialise the discovery board I/O (just outputs: inputs are selected by default)
void initialise_board() {
 8000ca8:	b480      	push	{r7}
 8000caa:	b083      	sub	sp, #12
 8000cac:	af00      	add	r7, sp, #0
	// get a pointer to the second half word of the MODER register (for outputs pe8-15)
	uint16_t *led_output_registers = ((uint16_t *)&(GPIOE->MODER)) + 1;
 8000cae:	4b06      	ldr	r3, [pc, #24]	; (8000cc8 <initialise_board+0x20>)
 8000cb0:	607b      	str	r3, [r7, #4]
	*led_output_registers = 0x5555;
 8000cb2:	687b      	ldr	r3, [r7, #4]
 8000cb4:	f245 5255 	movw	r2, #21845	; 0x5555
 8000cb8:	801a      	strh	r2, [r3, #0]
}
 8000cba:	bf00      	nop
 8000cbc:	370c      	adds	r7, #12
 8000cbe:	46bd      	mov	sp, r7
 8000cc0:	f85d 7b04 	ldr.w	r7, [sp], #4
 8000cc4:	4770      	bx	lr
 8000cc6:	bf00      	nop
 8000cc8:	48001002 	.word	0x48001002

08000ccc <HAL_TIM_IC_CaptureCallback>:
uint16_t last_period = 0;

float x = 0;

void HAL_TIM_IC_CaptureCallback(TIM_HandleTypeDef *htim)
{
 8000ccc:	b580      	push	{r7, lr}
 8000cce:	b08c      	sub	sp, #48	; 0x30
 8000cd0:	af00      	add	r7, sp, #0
 8000cd2:	6078      	str	r0, [r7, #4]
	uint8_t buffer[32];
	if (htim->Instance == TIM1 && htim->Channel == HAL_TIM_ACTIVE_CHANNEL_1)
 8000cd4:	687b      	ldr	r3, [r7, #4]
 8000cd6:	681b      	ldr	r3, [r3, #0]
 8000cd8:	4a17      	ldr	r2, [pc, #92]	; (8000d38 <HAL_TIM_IC_CaptureCallback+0x6c>)
 8000cda:	4293      	cmp	r3, r2
 8000cdc:	d127      	bne.n	8000d2e <HAL_TIM_IC_CaptureCallback+0x62>
 8000cde:	687b      	ldr	r3, [r7, #4]
 8000ce0:	7f1b      	ldrb	r3, [r3, #28]
 8000ce2:	2b01      	cmp	r3, #1
 8000ce4:	d123      	bne.n	8000d2e <HAL_TIM_IC_CaptureCallback+0x62>
	{
		uint16_t IC_Val1 = HAL_TIM_ReadCapturedValue(htim, TIM_CHANNEL_1); // read the first value
 8000ce6:	2100      	movs	r1, #0
 8000ce8:	6878      	ldr	r0, [r7, #4]
 8000cea:	f005 fc85 	bl	80065f8 <HAL_TIM_ReadCapturedValue>
 8000cee:	4603      	mov	r3, r0
 8000cf0:	85fb      	strh	r3, [r7, #46]	; 0x2e

		if (HAL_GPIO_ReadPin(GPIOA, GPIO_PIN_8) == 1)
 8000cf2:	f44f 7180 	mov.w	r1, #256	; 0x100
 8000cf6:	f04f 4090 	mov.w	r0, #1207959552	; 0x48000000
 8000cfa:	f002 fb6f 	bl	80033dc <HAL_GPIO_ReadPin>
 8000cfe:	4603      	mov	r3, r0
 8000d00:	2b01      	cmp	r3, #1
 8000d02:	d103      	bne.n	8000d0c <HAL_TIM_IC_CaptureCallback+0x40>
			rise_time = IC_Val1;
 8000d04:	4a0d      	ldr	r2, [pc, #52]	; (8000d3c <HAL_TIM_IC_CaptureCallback+0x70>)
 8000d06:	8dfb      	ldrh	r3, [r7, #46]	; 0x2e
 8000d08:	8013      	strh	r3, [r2, #0]
 8000d0a:	e006      	b.n	8000d1a <HAL_TIM_IC_CaptureCallback+0x4e>
		else
			last_period = IC_Val1 - rise_time;
 8000d0c:	4b0b      	ldr	r3, [pc, #44]	; (8000d3c <HAL_TIM_IC_CaptureCallback+0x70>)
 8000d0e:	881b      	ldrh	r3, [r3, #0]
 8000d10:	8dfa      	ldrh	r2, [r7, #46]	; 0x2e
 8000d12:	1ad3      	subs	r3, r2, r3
 8000d14:	b29a      	uxth	r2, r3
 8000d16:	4b0a      	ldr	r3, [pc, #40]	; (8000d40 <HAL_TIM_IC_CaptureCallback+0x74>)
 8000d18:	801a      	strh	r2, [r3, #0]

		diff = IC_Val1 - last_capture;
 8000d1a:	4b0a      	ldr	r3, [pc, #40]	; (8000d44 <HAL_TIM_IC_CaptureCallback+0x78>)
 8000d1c:	881b      	ldrh	r3, [r3, #0]
 8000d1e:	8dfa      	ldrh	r2, [r7, #46]	; 0x2e
 8000d20:	1ad3      	subs	r3, r2, r3
 8000d22:	b29a      	uxth	r2, r3
 8000d24:	4b08      	ldr	r3, [pc, #32]	; (8000d48 <HAL_TIM_IC_CaptureCallback+0x7c>)
 8000d26:	801a      	strh	r2, [r3, #0]
		last_capture = IC_Val1;
 8000d28:	4a06      	ldr	r2, [pc, #24]	; (8000d44 <HAL_TIM_IC_CaptureCallback+0x78>)
 8000d2a:	8dfb      	ldrh	r3, [r7, #46]	; 0x2e
 8000d2c:	8013      	strh	r3, [r2, #0]
	}
}
 8000d2e:	bf00      	nop
 8000d30:	3730      	adds	r7, #48	; 0x30
 8000d32:	46bd      	mov	sp, r7
 8000d34:	bd80      	pop	{r7, pc}
 8000d36:	bf00      	nop
 8000d38:	40012c00 	.word	0x40012c00
 8000d3c:	200008c0 	.word	0x200008c0
 8000d40:	200008c2 	.word	0x200008c2
 8000d44:	200008bc 	.word	0x200008bc
 8000d48:	200008be 	.word	0x200008be
 8000d4c:	00000000 	.word	0x00000000

08000d50 <main>:
/**
  * @brief  The application entry point.
  * @retval int
  */
int main(void)
{
 8000d50:	e92d 4fb0 	stmdb	sp!, {r4, r5, r7, r8, r9, sl, fp, lr}
 8000d54:	ed2d 8b02 	vpush	{d8}
 8000d58:	b0c0      	sub	sp, #256	; 0x100
 8000d5a:	af0a      	add	r7, sp, #40	; 0x28
  /* USER CODE BEGIN 1 */

	enable_clocks();
 8000d5c:	f7ff ff94 	bl	8000c88 <enable_clocks>
	initialise_board();
 8000d60:	f7ff ffa2 	bl	8000ca8 <initialise_board>

	LedRegister *led_register = ((uint8_t*)&(GPIOE->ODR)) + 1;
 8000d64:	4bc9      	ldr	r3, [pc, #804]	; (800108c <main+0x33c>)
 8000d66:	f8c7 3094 	str.w	r3, [r7, #148]	; 0x94

	SerialInitialise(BAUD_115200, &USART1_PORT, 0x00);
 8000d6a:	2200      	movs	r2, #0
 8000d6c:	49c8      	ldr	r1, [pc, #800]	; (8001090 <main+0x340>)
 8000d6e:	2004      	movs	r0, #4
 8000d70:	f001 fbf6 	bl	8002560 <SerialInitialise>


	HAL_StatusTypeDef return_value = 0x00;
 8000d74:	2300      	movs	r3, #0
 8000d76:	f887 3093 	strb.w	r3, [r7, #147]	; 0x93

	volatile uint16_t vertical_PWM = 1000;
 8000d7a:	f44f 737a 	mov.w	r3, #1000	; 0x3e8
 8000d7e:	86fb      	strh	r3, [r7, #54]	; 0x36
	volatile uint16_t horizontal_PWM = 1000;
 8000d80:	f44f 737a 	mov.w	r3, #1000	; 0x3e8
 8000d84:	86bb      	strh	r3, [r7, #52]	; 0x34
  /* USER CODE END 1 */

  /* MCU Configuration--------------------------------------------------------*/

  /* Reset of all peripherals, Initializes the Flash interface and the Systick. */
  HAL_Init();
 8000d86:	f002 f813 	bl	8002db0 <HAL_Init>
  /* USER CODE BEGIN Init */

  /* USER CODE END Init */

  /* Configure the system clock */
  SystemClock_Config();
 8000d8a:	f001 f81f 	bl	8001dcc <SystemClock_Config>
  /* USER CODE BEGIN SysInit */

  /* USER CODE END SysInit */

  /* Initialize all configured peripherals */
  MX_GPIO_Init();
 8000d8e:	f001 f9d9 	bl	8002144 <MX_GPIO_Init>
  MX_I2C1_Init();
 8000d92:	f001 f881 	bl	8001e98 <MX_I2C1_Init>
  MX_SPI1_Init();
 8000d96:	f001 f8ff 	bl	8001f98 <MX_SPI1_Init>
  MX_USB_PCD_Init();
 8000d9a:	f001 f9b1 	bl	8002100 <MX_USB_PCD_Init>
  //MX_TIM2_Init();
  MX_TIM1_Init();
 8000d9e:	f001 f939 	bl	8002014 <MX_TIM1_Init>
  MX_I2C2_Init();
 8000da2:	f001 f8b9 	bl	8001f18 <MX_I2C2_Init>
  /* USER CODE BEGIN 2 */

	HAL_TIM_PWM_Start(&htim2, TIM_CHANNEL_1); // PAN
 8000da6:	2100      	movs	r1, #0
 8000da8:	48ba      	ldr	r0, [pc, #744]	; (8001094 <main+0x344>)
 8000daa:	f004 fefd 	bl	8005ba8 <HAL_TIM_PWM_Start>
	HAL_TIM_PWM_Start(&htim2, TIM_CHANNEL_2); // TILT
 8000dae:	2104      	movs	r1, #4
 8000db0:	48b8      	ldr	r0, [pc, #736]	; (8001094 <main+0x344>)
 8000db2:	f004 fef9 	bl	8005ba8 <HAL_TIM_PWM_Start>

	HAL_TIM_IC_Start_IT(&htim1, TIM_CHANNEL_1); // LIDAR
 8000db6:	2100      	movs	r1, #0
 8000db8:	48b7      	ldr	r0, [pc, #732]	; (8001098 <main+0x348>)
 8000dba:	f005 f857 	bl	8005e6c <HAL_TIM_IC_Start_IT>

	// TIM 2 is setup with a prescaler that makes 1 count = 1 microsecond
	// Even with HAL, you can still set the values yourself
	TIM2->ARR = 20000; // 20000 = 20ms, which is the desired clock period for servos
 8000dbe:	f04f 4380 	mov.w	r3, #1073741824	; 0x40000000
 8000dc2:	f644 6220 	movw	r2, #20000	; 0x4e20
 8000dc6:	62da      	str	r2, [r3, #44]	; 0x2c
	TIM2->CR1 |= TIM_CR1_ARPE; // this makes the timing not change until the next pulse is finished
 8000dc8:	f04f 4380 	mov.w	r3, #1073741824	; 0x40000000
 8000dcc:	681b      	ldr	r3, [r3, #0]
 8000dce:	f04f 4280 	mov.w	r2, #1073741824	; 0x40000000
 8000dd2:	f043 0380 	orr.w	r3, r3, #128	; 0x80
 8000dd6:	6013      	str	r3, [r2, #0]
	// NVIC_EnableIRQ(TIM2_IRQn);

	// literallty set the PTU registers using I2C
	// Stews code to initalise HAL_TYPE_STRUCT used for I2C communications
	// he is exrecting a certain stream of infromation and sets it up like so
	initialise_ptu_i2c(&hi2c2);
 8000dd8:	48b0      	ldr	r0, [pc, #704]	; (800109c <main+0x34c>)
 8000dda:	f001 fa4f 	bl	800227c <initialise_ptu_i2c>
  /* Infinite loop */
  /* USER CODE BEGIN WHILE */


	// reset lidar board
	uint8_t reset_value = 0x00;
 8000dde:	2300      	movs	r3, #0
 8000de0:	f887 3033 	strb.w	r3, [r7, #51]	; 0x33
	return_value = HAL_I2C_Mem_Write(&hi2c2, LIDAR_WR, 0x00, 1, &reset_value, 1, 10);
 8000de4:	230a      	movs	r3, #10
 8000de6:	9302      	str	r3, [sp, #8]
 8000de8:	2301      	movs	r3, #1
 8000dea:	9301      	str	r3, [sp, #4]
 8000dec:	f107 0333 	add.w	r3, r7, #51	; 0x33
 8000df0:	9300      	str	r3, [sp, #0]
 8000df2:	2301      	movs	r3, #1
 8000df4:	2200      	movs	r2, #0
 8000df6:	21c4      	movs	r1, #196	; 0xc4
 8000df8:	48a8      	ldr	r0, [pc, #672]	; (800109c <main+0x34c>)
 8000dfa:	f002 fbaf 	bl	800355c <HAL_I2C_Mem_Write>
 8000dfe:	4603      	mov	r3, r0
 8000e00:	f887 3093 	strb.w	r3, [r7, #147]	; 0x93

	uint8_t PWM_direction_clockwise = 1;
 8000e04:	2301      	movs	r3, #1
 8000e06:	f887 30d7 	strb.w	r3, [r7, #215]	; 0xd7

	// delay for initialisation of the lidar
	HAL_Delay(100);
 8000e0a:	2064      	movs	r0, #100	; 0x64
 8000e0c:	f002 f836 	bl	8002e7c <HAL_Delay>

	uint16_t time = 100; // 4 seconds = 4000ms // 10ms = 10
 8000e10:	2364      	movs	r3, #100	; 0x64
 8000e12:	f8a7 3090 	strh.w	r3, [r7, #144]	; 0x90
	//Idea get a interrupt every 10ms
	up_count_TIM3(time, PTU_callback_function);
 8000e16:	f8b7 3090 	ldrh.w	r3, [r7, #144]	; 0x90
 8000e1a:	49a1      	ldr	r1, [pc, #644]	; (80010a0 <main+0x350>)
 8000e1c:	4618      	mov	r0, r3
 8000e1e:	f001 ff45 	bl	8002cac <up_count_TIM3>

	float x_acc = 0.0;
 8000e22:	f04f 0300 	mov.w	r3, #0
 8000e26:	f8c7 30d0 	str.w	r3, [r7, #208]	; 0xd0
	float y_acc = 0.0;
 8000e2a:	f04f 0300 	mov.w	r3, #0
 8000e2e:	f8c7 30cc 	str.w	r3, [r7, #204]	; 0xcc
	float z_acc = 0.0;
 8000e32:	f04f 0300 	mov.w	r3, #0
 8000e36:	f8c7 30c8 	str.w	r3, [r7, #200]	; 0xc8
	float x_v = 0.0;
 8000e3a:	f04f 0300 	mov.w	r3, #0
 8000e3e:	f8c7 30c4 	str.w	r3, [r7, #196]	; 0xc4
	float y_v = 0.0;
 8000e42:	f04f 0300 	mov.w	r3, #0
 8000e46:	f8c7 30c0 	str.w	r3, [r7, #192]	; 0xc0
	float z_v = 0.0;
 8000e4a:	f04f 0300 	mov.w	r3, #0
 8000e4e:	f8c7 30bc 	str.w	r3, [r7, #188]	; 0xbc
	float x_angle = 0.0;
 8000e52:	f04f 0300 	mov.w	r3, #0
 8000e56:	f8c7 30b8 	str.w	r3, [r7, #184]	; 0xb8
	float y_angle = 0.0;
 8000e5a:	f04f 0300 	mov.w	r3, #0
 8000e5e:	f8c7 30b4 	str.w	r3, [r7, #180]	; 0xb4
	float z_angle = 0.0;
 8000e62:	f04f 0300 	mov.w	r3, #0
 8000e66:	f8c7 30b0 	str.w	r3, [r7, #176]	; 0xb0
	float p_rps = 0.0;
 8000e6a:	f04f 0300 	mov.w	r3, #0
 8000e6e:	f8c7 30ac 	str.w	r3, [r7, #172]	; 0xac
	float q_rps = 0.0;
 8000e72:	f04f 0300 	mov.w	r3, #0
 8000e76:	f8c7 30a8 	str.w	r3, [r7, #168]	; 0xa8
	float r_rps = 0.0;
 8000e7a:	f04f 0300 	mov.w	r3, #0
 8000e7e:	f8c7 30a4 	str.w	r3, [r7, #164]	; 0xa4
	float global_roll = 0.0;
 8000e82:	f04f 0300 	mov.w	r3, #0
 8000e86:	f8c7 30a0 	str.w	r3, [r7, #160]	; 0xa0
	float global_pitch = 0.0;
 8000e8a:	f04f 0300 	mov.w	r3, #0
 8000e8e:	f8c7 309c 	str.w	r3, [r7, #156]	; 0x9c
	while (1)
	{
		if (PWM_direction_clockwise == 1) {
 8000e92:	f897 30d7 	ldrb.w	r3, [r7, #215]	; 0xd7
 8000e96:	2b01      	cmp	r3, #1
 8000e98:	d10a      	bne.n	8000eb0 <main+0x160>
			vertical_PWM += 3;
 8000e9a:	8efb      	ldrh	r3, [r7, #54]	; 0x36
 8000e9c:	b29b      	uxth	r3, r3
 8000e9e:	3303      	adds	r3, #3
 8000ea0:	b29b      	uxth	r3, r3
 8000ea2:	86fb      	strh	r3, [r7, #54]	; 0x36
			horizontal_PWM += 3;
 8000ea4:	8ebb      	ldrh	r3, [r7, #52]	; 0x34
 8000ea6:	b29b      	uxth	r3, r3
 8000ea8:	3303      	adds	r3, #3
 8000eaa:	b29b      	uxth	r3, r3
 8000eac:	86bb      	strh	r3, [r7, #52]	; 0x34
 8000eae:	e009      	b.n	8000ec4 <main+0x174>
		}
		else {
			vertical_PWM -= 3;
 8000eb0:	8efb      	ldrh	r3, [r7, #54]	; 0x36
 8000eb2:	b29b      	uxth	r3, r3
 8000eb4:	3b03      	subs	r3, #3
 8000eb6:	b29b      	uxth	r3, r3
 8000eb8:	86fb      	strh	r3, [r7, #54]	; 0x36
			horizontal_PWM -= 3;
 8000eba:	8ebb      	ldrh	r3, [r7, #52]	; 0x34
 8000ebc:	b29b      	uxth	r3, r3
 8000ebe:	3b03      	subs	r3, #3
 8000ec0:	b29b      	uxth	r3, r3
 8000ec2:	86bb      	strh	r3, [r7, #52]	; 0x34
		}

		if (vertical_PWM > 1900) {
 8000ec4:	8efb      	ldrh	r3, [r7, #54]	; 0x36
 8000ec6:	b29b      	uxth	r3, r3
 8000ec8:	f240 726c 	movw	r2, #1900	; 0x76c
 8000ecc:	4293      	cmp	r3, r2
 8000ece:	d905      	bls.n	8000edc <main+0x18c>
			vertical_PWM = 1900;
 8000ed0:	f240 736c 	movw	r3, #1900	; 0x76c
 8000ed4:	86fb      	strh	r3, [r7, #54]	; 0x36
			PWM_direction_clockwise = 0;
 8000ed6:	2300      	movs	r3, #0
 8000ed8:	f887 30d7 	strb.w	r3, [r7, #215]	; 0xd7
		}
		if (vertical_PWM < 1200) {
 8000edc:	8efb      	ldrh	r3, [r7, #54]	; 0x36
 8000ede:	b29b      	uxth	r3, r3
 8000ee0:	f5b3 6f96 	cmp.w	r3, #1200	; 0x4b0
 8000ee4:	d205      	bcs.n	8000ef2 <main+0x1a2>
			vertical_PWM = 1200;
 8000ee6:	f44f 6396 	mov.w	r3, #1200	; 0x4b0
 8000eea:	86fb      	strh	r3, [r7, #54]	; 0x36
			PWM_direction_clockwise = 1;
 8000eec:	2301      	movs	r3, #1
 8000eee:	f887 30d7 	strb.w	r3, [r7, #215]	; 0xd7
		}

		TIM2->CCR1 = vertical_PWM;
 8000ef2:	8efb      	ldrh	r3, [r7, #54]	; 0x36
 8000ef4:	b29a      	uxth	r2, r3
 8000ef6:	f04f 4380 	mov.w	r3, #1073741824	; 0x40000000
 8000efa:	635a      	str	r2, [r3, #52]	; 0x34
		TIM2->CCR2 = horizontal_PWM;
 8000efc:	8ebb      	ldrh	r3, [r7, #52]	; 0x34
 8000efe:	b29a      	uxth	r2, r3
 8000f00:	f04f 4380 	mov.w	r3, #1073741824	; 0x40000000
 8000f04:	639a      	str	r2, [r3, #56]	; 0x38


		uint8_t xMSB = 0x00;
 8000f06:	2300      	movs	r3, #0
 8000f08:	f887 3032 	strb.w	r3, [r7, #50]	; 0x32
		HAL_I2C_Mem_Read(&hi2c2,gyro_rd, 0x29, 1, &xMSB, 1, 10);
 8000f0c:	230a      	movs	r3, #10
 8000f0e:	9302      	str	r3, [sp, #8]
 8000f10:	2301      	movs	r3, #1
 8000f12:	9301      	str	r3, [sp, #4]
 8000f14:	f107 0332 	add.w	r3, r7, #50	; 0x32
 8000f18:	9300      	str	r3, [sp, #0]
 8000f1a:	2301      	movs	r3, #1
 8000f1c:	2229      	movs	r2, #41	; 0x29
 8000f1e:	21d3      	movs	r1, #211	; 0xd3
 8000f20:	485e      	ldr	r0, [pc, #376]	; (800109c <main+0x34c>)
 8000f22:	f002 fc2f 	bl	8003784 <HAL_I2C_Mem_Read>
		uint8_t xLSB = 0x00;
 8000f26:	2300      	movs	r3, #0
 8000f28:	f887 3031 	strb.w	r3, [r7, #49]	; 0x31
		HAL_I2C_Mem_Read(&hi2c2,gyro_rd, 0x28, 1, &xLSB, 1, 10);
 8000f2c:	230a      	movs	r3, #10
 8000f2e:	9302      	str	r3, [sp, #8]
 8000f30:	2301      	movs	r3, #1
 8000f32:	9301      	str	r3, [sp, #4]
 8000f34:	f107 0331 	add.w	r3, r7, #49	; 0x31
 8000f38:	9300      	str	r3, [sp, #0]
 8000f3a:	2301      	movs	r3, #1
 8000f3c:	2228      	movs	r2, #40	; 0x28
 8000f3e:	21d3      	movs	r1, #211	; 0xd3
 8000f40:	4856      	ldr	r0, [pc, #344]	; (800109c <main+0x34c>)
 8000f42:	f002 fc1f 	bl	8003784 <HAL_I2C_Mem_Read>
		int16_t yaw_rate = ((xMSB << 8) | xLSB);
 8000f46:	f897 3032 	ldrb.w	r3, [r7, #50]	; 0x32
 8000f4a:	021b      	lsls	r3, r3, #8
 8000f4c:	b21a      	sxth	r2, r3
 8000f4e:	f897 3031 	ldrb.w	r3, [r7, #49]	; 0x31
 8000f52:	b21b      	sxth	r3, r3
 8000f54:	4313      	orrs	r3, r2
 8000f56:	f8a7 308e 	strh.w	r3, [r7, #142]	; 0x8e

		uint8_t yMSB = 0x00;
 8000f5a:	2300      	movs	r3, #0
 8000f5c:	f887 3030 	strb.w	r3, [r7, #48]	; 0x30
		HAL_I2C_Mem_Read(&hi2c2,gyro_rd, 0x2B, 1, &yMSB, 1, 10);
 8000f60:	230a      	movs	r3, #10
 8000f62:	9302      	str	r3, [sp, #8]
 8000f64:	2301      	movs	r3, #1
 8000f66:	9301      	str	r3, [sp, #4]
 8000f68:	f107 0330 	add.w	r3, r7, #48	; 0x30
 8000f6c:	9300      	str	r3, [sp, #0]
 8000f6e:	2301      	movs	r3, #1
 8000f70:	222b      	movs	r2, #43	; 0x2b
 8000f72:	21d3      	movs	r1, #211	; 0xd3
 8000f74:	4849      	ldr	r0, [pc, #292]	; (800109c <main+0x34c>)
 8000f76:	f002 fc05 	bl	8003784 <HAL_I2C_Mem_Read>
		uint8_t yLSB = 0x00;
 8000f7a:	2300      	movs	r3, #0
 8000f7c:	f887 302f 	strb.w	r3, [r7, #47]	; 0x2f
		HAL_I2C_Mem_Read(&hi2c2,gyro_rd, 0x2A, 1, &yLSB, 1, 10);
 8000f80:	230a      	movs	r3, #10
 8000f82:	9302      	str	r3, [sp, #8]
 8000f84:	2301      	movs	r3, #1
 8000f86:	9301      	str	r3, [sp, #4]
 8000f88:	f107 032f 	add.w	r3, r7, #47	; 0x2f
 8000f8c:	9300      	str	r3, [sp, #0]
 8000f8e:	2301      	movs	r3, #1
 8000f90:	222a      	movs	r2, #42	; 0x2a
 8000f92:	21d3      	movs	r1, #211	; 0xd3
 8000f94:	4841      	ldr	r0, [pc, #260]	; (800109c <main+0x34c>)
 8000f96:	f002 fbf5 	bl	8003784 <HAL_I2C_Mem_Read>
		int16_t pitch_rate = ((yMSB << 8) | yLSB);
 8000f9a:	f897 3030 	ldrb.w	r3, [r7, #48]	; 0x30
 8000f9e:	021b      	lsls	r3, r3, #8
 8000fa0:	b21a      	sxth	r2, r3
 8000fa2:	f897 302f 	ldrb.w	r3, [r7, #47]	; 0x2f
 8000fa6:	b21b      	sxth	r3, r3
 8000fa8:	4313      	orrs	r3, r2
 8000faa:	f8a7 308c 	strh.w	r3, [r7, #140]	; 0x8c

		uint8_t zMSB = 0x00;
 8000fae:	2300      	movs	r3, #0
 8000fb0:	f887 302e 	strb.w	r3, [r7, #46]	; 0x2e
		HAL_I2C_Mem_Read(&hi2c2,gyro_rd, 0x2D, 1, &zMSB, 1, 10);
 8000fb4:	230a      	movs	r3, #10
 8000fb6:	9302      	str	r3, [sp, #8]
 8000fb8:	2301      	movs	r3, #1
 8000fba:	9301      	str	r3, [sp, #4]
 8000fbc:	f107 032e 	add.w	r3, r7, #46	; 0x2e
 8000fc0:	9300      	str	r3, [sp, #0]
 8000fc2:	2301      	movs	r3, #1
 8000fc4:	222d      	movs	r2, #45	; 0x2d
 8000fc6:	21d3      	movs	r1, #211	; 0xd3
 8000fc8:	4834      	ldr	r0, [pc, #208]	; (800109c <main+0x34c>)
 8000fca:	f002 fbdb 	bl	8003784 <HAL_I2C_Mem_Read>
		uint8_t zLSB = 0x00;
 8000fce:	2300      	movs	r3, #0
 8000fd0:	f887 302d 	strb.w	r3, [r7, #45]	; 0x2d
		HAL_I2C_Mem_Read(&hi2c2,gyro_rd, 0x2C, 1, &zLSB, 1, 10);
 8000fd4:	230a      	movs	r3, #10
 8000fd6:	9302      	str	r3, [sp, #8]
 8000fd8:	2301      	movs	r3, #1
 8000fda:	9301      	str	r3, [sp, #4]
 8000fdc:	f107 032d 	add.w	r3, r7, #45	; 0x2d
 8000fe0:	9300      	str	r3, [sp, #0]
 8000fe2:	2301      	movs	r3, #1
 8000fe4:	222c      	movs	r2, #44	; 0x2c
 8000fe6:	21d3      	movs	r1, #211	; 0xd3
 8000fe8:	482c      	ldr	r0, [pc, #176]	; (800109c <main+0x34c>)
 8000fea:	f002 fbcb 	bl	8003784 <HAL_I2C_Mem_Read>
		int16_t roll_rate = ((zMSB << 8) | zLSB);
 8000fee:	f897 302e 	ldrb.w	r3, [r7, #46]	; 0x2e
 8000ff2:	021b      	lsls	r3, r3, #8
 8000ff4:	b21a      	sxth	r2, r3
 8000ff6:	f897 302d 	ldrb.w	r3, [r7, #45]	; 0x2d
 8000ffa:	b21b      	sxth	r3, r3
 8000ffc:	4313      	orrs	r3, r2
 8000ffe:	f8a7 308a 	strh.w	r3, [r7, #138]	; 0x8a

		if (pitch_rate < 0)
 8001002:	f9b7 308c 	ldrsh.w	r3, [r7, #140]	; 0x8c
 8001006:	2b00      	cmp	r3, #0
 8001008:	da07      	bge.n	800101a <main+0x2ca>
			led_register->led_groups.led_pair_1 = 0b01;
 800100a:	f8d7 2094 	ldr.w	r2, [r7, #148]	; 0x94
 800100e:	7813      	ldrb	r3, [r2, #0]
 8001010:	2101      	movs	r1, #1
 8001012:	f361 0301 	bfi	r3, r1, #0, #2
 8001016:	7013      	strb	r3, [r2, #0]
 8001018:	e006      	b.n	8001028 <main+0x2d8>
		else
			led_register->led_groups.led_pair_1 = 0b10;
 800101a:	f8d7 2094 	ldr.w	r2, [r7, #148]	; 0x94
 800101e:	7813      	ldrb	r3, [r2, #0]
 8001020:	2102      	movs	r1, #2
 8001022:	f361 0301 	bfi	r3, r1, #0, #2
 8001026:	7013      	strb	r3, [r2, #0]

		if (yaw_rate < 0)
 8001028:	f9b7 308e 	ldrsh.w	r3, [r7, #142]	; 0x8e
 800102c:	2b00      	cmp	r3, #0
 800102e:	da07      	bge.n	8001040 <main+0x2f0>
			led_register->led_groups.led_pair_2 = 1;
 8001030:	f8d7 2094 	ldr.w	r2, [r7, #148]	; 0x94
 8001034:	7813      	ldrb	r3, [r2, #0]
 8001036:	2101      	movs	r1, #1
 8001038:	f361 0383 	bfi	r3, r1, #2, #2
 800103c:	7013      	strb	r3, [r2, #0]
 800103e:	e006      	b.n	800104e <main+0x2fe>
		else
			led_register->led_groups.led_pair_2 = 2;
 8001040:	f8d7 2094 	ldr.w	r2, [r7, #148]	; 0x94
 8001044:	7813      	ldrb	r3, [r2, #0]
 8001046:	2102      	movs	r1, #2
 8001048:	f361 0383 	bfi	r3, r1, #2, #2
 800104c:	7013      	strb	r3, [r2, #0]


		uint8_t lidar_value = 0x03;
 800104e:	2303      	movs	r3, #3
 8001050:	f887 302c 	strb.w	r3, [r7, #44]	; 0x2c
		return_value = HAL_I2C_Mem_Write(&hi2c2, LIDAR_WR, 0x00, 1, &lidar_value, 1, 100);
 8001054:	2364      	movs	r3, #100	; 0x64
 8001056:	9302      	str	r3, [sp, #8]
 8001058:	2301      	movs	r3, #1
 800105a:	9301      	str	r3, [sp, #4]
 800105c:	f107 032c 	add.w	r3, r7, #44	; 0x2c
 8001060:	9300      	str	r3, [sp, #0]
 8001062:	2301      	movs	r3, #1
 8001064:	2200      	movs	r2, #0
 8001066:	21c4      	movs	r1, #196	; 0xc4
 8001068:	480c      	ldr	r0, [pc, #48]	; (800109c <main+0x34c>)
 800106a:	f002 fa77 	bl	800355c <HAL_I2C_Mem_Write>
 800106e:	4603      	mov	r3, r0
 8001070:	f887 3093 	strb.w	r3, [r7, #147]	; 0x93

		lidar_value = 0xff;
 8001074:	23ff      	movs	r3, #255	; 0xff
 8001076:	f887 302c 	strb.w	r3, [r7, #44]	; 0x2c

		uint8_t lidar_MSBa = 0x00;
 800107a:	2300      	movs	r3, #0
 800107c:	f887 302b 	strb.w	r3, [r7, #43]	; 0x2b
		uint8_t lidar_LSBa = 0x00;
 8001080:	2300      	movs	r3, #0
 8001082:	f887 302a 	strb.w	r3, [r7, #42]	; 0x2a

		volatile uint16_t lidar_distance = 0xff;
 8001086:	23ff      	movs	r3, #255	; 0xff
 8001088:	853b      	strh	r3, [r7, #40]	; 0x28

		uint16_t timeout;
// some WERID ERROS happen here
		while ((lidar_value & 0x01) != 0x00) {
 800108a:	e04f      	b.n	800112c <main+0x3dc>
 800108c:	48001015 	.word	0x48001015
 8001090:	200001f4 	.word	0x200001f4
 8001094:	20000584 	.word	0x20000584
 8001098:	20000538 	.word	0x20000538
 800109c:	20000480 	.word	0x20000480
 80010a0:	08002241 	.word	0x08002241
			return_value = HAL_I2C_Mem_Read(&hi2c2, LIDAR_RD, 0x01, 1, &lidar_value, 1, 100);
 80010a4:	2364      	movs	r3, #100	; 0x64
 80010a6:	9302      	str	r3, [sp, #8]
 80010a8:	2301      	movs	r3, #1
 80010aa:	9301      	str	r3, [sp, #4]
 80010ac:	f107 032c 	add.w	r3, r7, #44	; 0x2c
 80010b0:	9300      	str	r3, [sp, #0]
 80010b2:	2301      	movs	r3, #1
 80010b4:	2201      	movs	r2, #1
 80010b6:	21c5      	movs	r1, #197	; 0xc5
 80010b8:	4820      	ldr	r0, [pc, #128]	; (800113c <main+0x3ec>)
 80010ba:	f002 fb63 	bl	8003784 <HAL_I2C_Mem_Read>
 80010be:	4603      	mov	r3, r0
 80010c0:	f887 3093 	strb.w	r3, [r7, #147]	; 0x93

			return_value = HAL_I2C_Mem_Read(&hi2c2, LIDAR_RD, 0x0f, 1, &lidar_MSBa, 1, 100);
 80010c4:	2364      	movs	r3, #100	; 0x64
 80010c6:	9302      	str	r3, [sp, #8]
 80010c8:	2301      	movs	r3, #1
 80010ca:	9301      	str	r3, [sp, #4]
 80010cc:	f107 032b 	add.w	r3, r7, #43	; 0x2b
 80010d0:	9300      	str	r3, [sp, #0]
 80010d2:	2301      	movs	r3, #1
 80010d4:	220f      	movs	r2, #15
 80010d6:	21c5      	movs	r1, #197	; 0xc5
 80010d8:	4818      	ldr	r0, [pc, #96]	; (800113c <main+0x3ec>)
 80010da:	f002 fb53 	bl	8003784 <HAL_I2C_Mem_Read>
 80010de:	4603      	mov	r3, r0
 80010e0:	f887 3093 	strb.w	r3, [r7, #147]	; 0x93
			return_value = HAL_I2C_Mem_Read(&hi2c2, LIDAR_RD, 0x10, 1, &lidar_LSBa, 1, 100);
 80010e4:	2364      	movs	r3, #100	; 0x64
 80010e6:	9302      	str	r3, [sp, #8]
 80010e8:	2301      	movs	r3, #1
 80010ea:	9301      	str	r3, [sp, #4]
 80010ec:	f107 032a 	add.w	r3, r7, #42	; 0x2a
 80010f0:	9300      	str	r3, [sp, #0]
 80010f2:	2301      	movs	r3, #1
 80010f4:	2210      	movs	r2, #16
 80010f6:	21c5      	movs	r1, #197	; 0xc5
 80010f8:	4810      	ldr	r0, [pc, #64]	; (800113c <main+0x3ec>)
 80010fa:	f002 fb43 	bl	8003784 <HAL_I2C_Mem_Read>
 80010fe:	4603      	mov	r3, r0
 8001100:	f887 3093 	strb.w	r3, [r7, #147]	; 0x93

			lidar_distance = ((lidar_MSBa << 8) | lidar_LSBa);
 8001104:	f897 302b 	ldrb.w	r3, [r7, #43]	; 0x2b
 8001108:	021b      	lsls	r3, r3, #8
 800110a:	b21a      	sxth	r2, r3
 800110c:	f897 302a 	ldrb.w	r3, [r7, #42]	; 0x2a
 8001110:	b21b      	sxth	r3, r3
 8001112:	4313      	orrs	r3, r2
 8001114:	b21b      	sxth	r3, r3
 8001116:	b29b      	uxth	r3, r3
 8001118:	853b      	strh	r3, [r7, #40]	; 0x28
			timeout += 1;
 800111a:	f8b7 309a 	ldrh.w	r3, [r7, #154]	; 0x9a
 800111e:	3301      	adds	r3, #1
 8001120:	f8a7 309a 	strh.w	r3, [r7, #154]	; 0x9a
			if (timeout > 0xff)
 8001124:	f8b7 309a 	ldrh.w	r3, [r7, #154]	; 0x9a
 8001128:	2bff      	cmp	r3, #255	; 0xff
 800112a:	d809      	bhi.n	8001140 <main+0x3f0>
		while ((lidar_value & 0x01) != 0x00) {
 800112c:	f897 302c 	ldrb.w	r3, [r7, #44]	; 0x2c
 8001130:	f003 0301 	and.w	r3, r3, #1
 8001134:	2b00      	cmp	r3, #0
 8001136:	d1b5      	bne.n	80010a4 <main+0x354>
 8001138:	e003      	b.n	8001142 <main+0x3f2>
 800113a:	bf00      	nop
 800113c:	20000480 	.word	0x20000480
				break;
 8001140:	bf00      	nop
		}

		uint8_t lidar_ranges = lidar_distance / (100/4); // 100cm broken into 4 groups
 8001142:	8d3b      	ldrh	r3, [r7, #40]	; 0x28
 8001144:	b29b      	uxth	r3, r3
 8001146:	4ad8      	ldr	r2, [pc, #864]	; (80014a8 <main+0x758>)
 8001148:	fba2 2303 	umull	r2, r3, r2, r3
 800114c:	08db      	lsrs	r3, r3, #3
 800114e:	b29b      	uxth	r3, r3
 8001150:	f887 3099 	strb.w	r3, [r7, #153]	; 0x99
		if (lidar_ranges > 3)
 8001154:	f897 3099 	ldrb.w	r3, [r7, #153]	; 0x99
 8001158:	2b03      	cmp	r3, #3
 800115a:	d902      	bls.n	8001162 <main+0x412>
			lidar_ranges = 3;
 800115c:	2303      	movs	r3, #3
 800115e:	f887 3099 	strb.w	r3, [r7, #153]	; 0x99

		uint8_t led_values = pow(2, lidar_ranges);
 8001162:	f897 3099 	ldrb.w	r3, [r7, #153]	; 0x99
 8001166:	4618      	mov	r0, r3
 8001168:	f7ff f9cc 	bl	8000504 <__aeabi_ui2d>
 800116c:	4602      	mov	r2, r0
 800116e:	460b      	mov	r3, r1
 8001170:	ec43 2b11 	vmov	d1, r2, r3
 8001174:	ed9f 0bc6 	vldr	d0, [pc, #792]	; 8001490 <main+0x740>
 8001178:	f009 f842 	bl	800a200 <pow>
 800117c:	ec53 2b10 	vmov	r2, r3, d0
 8001180:	4610      	mov	r0, r2
 8001182:	4619      	mov	r1, r3
 8001184:	f7ff fd10 	bl	8000ba8 <__aeabi_d2uiz>
 8001188:	4603      	mov	r3, r0
 800118a:	f887 3089 	strb.w	r3, [r7, #137]	; 0x89

		led_register->led_groups.led_set_of_4 = led_values;
 800118e:	f897 3089 	ldrb.w	r3, [r7, #137]	; 0x89
 8001192:	f003 030f 	and.w	r3, r3, #15
 8001196:	b2d9      	uxtb	r1, r3
 8001198:	f8d7 2094 	ldr.w	r2, [r7, #148]	; 0x94
 800119c:	7813      	ldrb	r3, [r2, #0]
 800119e:	f361 1307 	bfi	r3, r1, #4, #4
 80011a2:	7013      	strb	r3, [r2, #0]

		volatile int read_values_now = 0;
 80011a4:	2300      	movs	r3, #0
 80011a6:	627b      	str	r3, [r7, #36]	; 0x24

		if (last_period > 4000)
 80011a8:	4bc0      	ldr	r3, [pc, #768]	; (80014ac <main+0x75c>)
 80011aa:	881b      	ldrh	r3, [r3, #0]
 80011ac:	f5b3 6f7a 	cmp.w	r3, #4000	; 0xfa0
 80011b0:	d903      	bls.n	80011ba <main+0x46a>
			last_period = 5000;
 80011b2:	4bbe      	ldr	r3, [pc, #760]	; (80014ac <main+0x75c>)
 80011b4:	f241 3288 	movw	r2, #5000	; 0x1388
 80011b8:	801a      	strh	r2, [r3, #0]
		if (lidar_distance > 4000)
 80011ba:	8d3b      	ldrh	r3, [r7, #40]	; 0x28
 80011bc:	b29b      	uxth	r3, r3
 80011be:	f5b3 6f7a 	cmp.w	r3, #4000	; 0xfa0
 80011c2:	d902      	bls.n	80011ca <main+0x47a>
			lidar_distance = 5500;
 80011c4:	f241 537c 	movw	r3, #5500	; 0x157c
 80011c8:	853b      	strh	r3, [r7, #40]	; 0x28
		// Read the magnetometer

		uint8_t mag_setting = 0b11111100;
 80011ca:	23fc      	movs	r3, #252	; 0xfc
 80011cc:	f887 3023 	strb.w	r3, [r7, #35]	; 0x23
		return_value = HAL_I2C_Mem_Write(&hi2c2, magnet_wr, 0x02, 1, &mag_setting, 1, 10);
 80011d0:	230a      	movs	r3, #10
 80011d2:	9302      	str	r3, [sp, #8]
 80011d4:	2301      	movs	r3, #1
 80011d6:	9301      	str	r3, [sp, #4]
 80011d8:	f107 0323 	add.w	r3, r7, #35	; 0x23
 80011dc:	9300      	str	r3, [sp, #0]
 80011de:	2301      	movs	r3, #1
 80011e0:	2202      	movs	r2, #2
 80011e2:	213c      	movs	r1, #60	; 0x3c
 80011e4:	48b2      	ldr	r0, [pc, #712]	; (80014b0 <main+0x760>)
 80011e6:	f002 f9b9 	bl	800355c <HAL_I2C_Mem_Write>
 80011ea:	4603      	mov	r3, r0
 80011ec:	f887 3093 	strb.w	r3, [r7, #147]	; 0x93

		uint8_t mag_data_buf[6];
		return_value = HAL_I2C_Mem_Read(&hi2c2, magnet_rd, 0x03, 1, mag_data_buf, 6, 10);
 80011f0:	230a      	movs	r3, #10
 80011f2:	9302      	str	r3, [sp, #8]
 80011f4:	2306      	movs	r3, #6
 80011f6:	9301      	str	r3, [sp, #4]
 80011f8:	f107 031c 	add.w	r3, r7, #28
 80011fc:	9300      	str	r3, [sp, #0]
 80011fe:	2301      	movs	r3, #1
 8001200:	2203      	movs	r2, #3
 8001202:	213d      	movs	r1, #61	; 0x3d
 8001204:	48aa      	ldr	r0, [pc, #680]	; (80014b0 <main+0x760>)
 8001206:	f002 fabd 	bl	8003784 <HAL_I2C_Mem_Read>
 800120a:	4603      	mov	r3, r0
 800120c:	f887 3093 	strb.w	r3, [r7, #147]	; 0x93
		int16_t x_mag = ((mag_data_buf[0] << 8) | mag_data_buf[1]);
 8001210:	7f3b      	ldrb	r3, [r7, #28]
 8001212:	021b      	lsls	r3, r3, #8
 8001214:	b21a      	sxth	r2, r3
 8001216:	7f7b      	ldrb	r3, [r7, #29]
 8001218:	b21b      	sxth	r3, r3
 800121a:	4313      	orrs	r3, r2
 800121c:	f8a7 3086 	strh.w	r3, [r7, #134]	; 0x86
		int16_t z_mag = ((mag_data_buf[2] << 8) | mag_data_buf[3]);
 8001220:	7fbb      	ldrb	r3, [r7, #30]
 8001222:	021b      	lsls	r3, r3, #8
 8001224:	b21a      	sxth	r2, r3
 8001226:	7ffb      	ldrb	r3, [r7, #31]
 8001228:	b21b      	sxth	r3, r3
 800122a:	4313      	orrs	r3, r2
 800122c:	f8a7 3084 	strh.w	r3, [r7, #132]	; 0x84
		int16_t y_mag = ((mag_data_buf[4] << 8) | mag_data_buf[5]);
 8001230:	f897 3020 	ldrb.w	r3, [r7, #32]
 8001234:	021b      	lsls	r3, r3, #8
 8001236:	b21a      	sxth	r2, r3
 8001238:	f897 3021 	ldrb.w	r3, [r7, #33]	; 0x21
 800123c:	b21b      	sxth	r3, r3
 800123e:	4313      	orrs	r3, r2
 8001240:	f8a7 3082 	strh.w	r3, [r7, #130]	; 0x82

		// I'm so confused it seems stw things roll is z yaw is x pitch is y??

		// Read acceleration values from ADXL345 registers
		uint8_t buffer[6];
		HAL_I2C_Mem_Read(&hi2c2, accel_rd, 0x32, 1, buffer, 6, 10);
 8001244:	230a      	movs	r3, #10
 8001246:	9302      	str	r3, [sp, #8]
 8001248:	2306      	movs	r3, #6
 800124a:	9301      	str	r3, [sp, #4]
 800124c:	f107 0314 	add.w	r3, r7, #20
 8001250:	9300      	str	r3, [sp, #0]
 8001252:	2301      	movs	r3, #1
 8001254:	2232      	movs	r2, #50	; 0x32
 8001256:	21a7      	movs	r1, #167	; 0xa7
 8001258:	4895      	ldr	r0, [pc, #596]	; (80014b0 <main+0x760>)
 800125a:	f002 fa93 	bl	8003784 <HAL_I2C_Mem_Read>
		int16_t x_acceleration = ((buffer[1] << 8) | buffer[0]);
 800125e:	7d7b      	ldrb	r3, [r7, #21]
 8001260:	021b      	lsls	r3, r3, #8
 8001262:	b21a      	sxth	r2, r3
 8001264:	7d3b      	ldrb	r3, [r7, #20]
 8001266:	b21b      	sxth	r3, r3
 8001268:	4313      	orrs	r3, r2
 800126a:	f8a7 3080 	strh.w	r3, [r7, #128]	; 0x80
		int16_t y_acceleration = ((buffer[3] << 8) | buffer[2]);
 800126e:	7dfb      	ldrb	r3, [r7, #23]
 8001270:	021b      	lsls	r3, r3, #8
 8001272:	b21a      	sxth	r2, r3
 8001274:	7dbb      	ldrb	r3, [r7, #22]
 8001276:	b21b      	sxth	r3, r3
 8001278:	4313      	orrs	r3, r2
 800127a:	f8a7 307e 	strh.w	r3, [r7, #126]	; 0x7e
		int16_t z_acceleration = ((buffer[5] << 8) | buffer[4]);
 800127e:	7e7b      	ldrb	r3, [r7, #25]
 8001280:	021b      	lsls	r3, r3, #8
 8001282:	b21a      	sxth	r2, r3
 8001284:	7e3b      	ldrb	r3, [r7, #24]
 8001286:	b21b      	sxth	r3, r3
 8001288:	4313      	orrs	r3, r2
 800128a:	f8a7 307c 	strh.w	r3, [r7, #124]	; 0x7c


		// I think these calcs are wrong but wait and see
		int32_t x_input = y_acceleration*y_acceleration + z_acceleration*z_acceleration;
 800128e:	f9b7 307e 	ldrsh.w	r3, [r7, #126]	; 0x7e
 8001292:	f9b7 207e 	ldrsh.w	r2, [r7, #126]	; 0x7e
 8001296:	fb03 f202 	mul.w	r2, r3, r2
 800129a:	f9b7 307c 	ldrsh.w	r3, [r7, #124]	; 0x7c
 800129e:	f9b7 107c 	ldrsh.w	r1, [r7, #124]	; 0x7c
 80012a2:	fb01 f303 	mul.w	r3, r1, r3
 80012a6:	4413      	add	r3, r2
 80012a8:	67bb      	str	r3, [r7, #120]	; 0x78
		int32_t y_input = x_acceleration*x_acceleration + z_acceleration*z_acceleration;
 80012aa:	f9b7 3080 	ldrsh.w	r3, [r7, #128]	; 0x80
 80012ae:	f9b7 2080 	ldrsh.w	r2, [r7, #128]	; 0x80
 80012b2:	fb03 f202 	mul.w	r2, r3, r2
 80012b6:	f9b7 307c 	ldrsh.w	r3, [r7, #124]	; 0x7c
 80012ba:	f9b7 107c 	ldrsh.w	r1, [r7, #124]	; 0x7c
 80012be:	fb01 f303 	mul.w	r3, r1, r3
 80012c2:	4413      	add	r3, r2
 80012c4:	677b      	str	r3, [r7, #116]	; 0x74
		int32_t z_input = x_acceleration*x_acceleration + y_acceleration*y_acceleration;
 80012c6:	f9b7 3080 	ldrsh.w	r3, [r7, #128]	; 0x80
 80012ca:	f9b7 2080 	ldrsh.w	r2, [r7, #128]	; 0x80
 80012ce:	fb03 f202 	mul.w	r2, r3, r2
 80012d2:	f9b7 307e 	ldrsh.w	r3, [r7, #126]	; 0x7e
 80012d6:	f9b7 107e 	ldrsh.w	r1, [r7, #126]	; 0x7e
 80012da:	fb01 f303 	mul.w	r3, r1, r3
 80012de:	4413      	add	r3, r2
 80012e0:	673b      	str	r3, [r7, #112]	; 0x70
		float ax_roll = (180/3.14)*atan(y_acceleration/sqrt(y_input));
 80012e2:	f9b7 307e 	ldrsh.w	r3, [r7, #126]	; 0x7e
 80012e6:	4618      	mov	r0, r3
 80012e8:	f7ff f91c 	bl	8000524 <__aeabi_i2d>
 80012ec:	4604      	mov	r4, r0
 80012ee:	460d      	mov	r5, r1
 80012f0:	6f78      	ldr	r0, [r7, #116]	; 0x74
 80012f2:	f7ff f917 	bl	8000524 <__aeabi_i2d>
 80012f6:	4602      	mov	r2, r0
 80012f8:	460b      	mov	r3, r1
 80012fa:	ec43 2b10 	vmov	d0, r2, r3
 80012fe:	f008 ffef 	bl	800a2e0 <sqrt>
 8001302:	ec53 2b10 	vmov	r2, r3, d0
 8001306:	4620      	mov	r0, r4
 8001308:	4629      	mov	r1, r5
 800130a:	f7ff fa9f 	bl	800084c <__aeabi_ddiv>
 800130e:	4602      	mov	r2, r0
 8001310:	460b      	mov	r3, r1
 8001312:	ec43 2b17 	vmov	d7, r2, r3
 8001316:	eeb0 0a47 	vmov.f32	s0, s14
 800131a:	eef0 0a67 	vmov.f32	s1, s15
 800131e:	f008 fc33 	bl	8009b88 <atan>
 8001322:	ec51 0b10 	vmov	r0, r1, d0
 8001326:	a35c      	add	r3, pc, #368	; (adr r3, 8001498 <main+0x748>)
 8001328:	e9d3 2300 	ldrd	r2, r3, [r3]
 800132c:	f7ff f964 	bl	80005f8 <__aeabi_dmul>
 8001330:	4602      	mov	r2, r0
 8001332:	460b      	mov	r3, r1
 8001334:	4610      	mov	r0, r2
 8001336:	4619      	mov	r1, r3
 8001338:	f7ff fc56 	bl	8000be8 <__aeabi_d2f>
 800133c:	4603      	mov	r3, r0
 800133e:	66fb      	str	r3, [r7, #108]	; 0x6c
		float ax_pitch = (180/3.14)*atan(x_acceleration/sqrt(x_input));
 8001340:	f9b7 3080 	ldrsh.w	r3, [r7, #128]	; 0x80
 8001344:	4618      	mov	r0, r3
 8001346:	f7ff f8ed 	bl	8000524 <__aeabi_i2d>
 800134a:	4604      	mov	r4, r0
 800134c:	460d      	mov	r5, r1
 800134e:	6fb8      	ldr	r0, [r7, #120]	; 0x78
 8001350:	f7ff f8e8 	bl	8000524 <__aeabi_i2d>
 8001354:	4602      	mov	r2, r0
 8001356:	460b      	mov	r3, r1
 8001358:	ec43 2b10 	vmov	d0, r2, r3
 800135c:	f008 ffc0 	bl	800a2e0 <sqrt>
 8001360:	ec53 2b10 	vmov	r2, r3, d0
 8001364:	4620      	mov	r0, r4
 8001366:	4629      	mov	r1, r5
 8001368:	f7ff fa70 	bl	800084c <__aeabi_ddiv>
 800136c:	4602      	mov	r2, r0
 800136e:	460b      	mov	r3, r1
 8001370:	ec43 2b17 	vmov	d7, r2, r3
 8001374:	eeb0 0a47 	vmov.f32	s0, s14
 8001378:	eef0 0a67 	vmov.f32	s1, s15
 800137c:	f008 fc04 	bl	8009b88 <atan>
 8001380:	ec51 0b10 	vmov	r0, r1, d0
 8001384:	a344      	add	r3, pc, #272	; (adr r3, 8001498 <main+0x748>)
 8001386:	e9d3 2300 	ldrd	r2, r3, [r3]
 800138a:	f7ff f935 	bl	80005f8 <__aeabi_dmul>
 800138e:	4602      	mov	r2, r0
 8001390:	460b      	mov	r3, r1
 8001392:	4610      	mov	r0, r2
 8001394:	4619      	mov	r1, r3
 8001396:	f7ff fc27 	bl	8000be8 <__aeabi_d2f>
 800139a:	4603      	mov	r3, r0
 800139c:	66bb      	str	r3, [r7, #104]	; 0x68
		float ax_yaw = (180/3.14)*atan(z_acceleration/sqrt(z_input));
 800139e:	f9b7 307c 	ldrsh.w	r3, [r7, #124]	; 0x7c
 80013a2:	4618      	mov	r0, r3
 80013a4:	f7ff f8be 	bl	8000524 <__aeabi_i2d>
 80013a8:	4604      	mov	r4, r0
 80013aa:	460d      	mov	r5, r1
 80013ac:	6f38      	ldr	r0, [r7, #112]	; 0x70
 80013ae:	f7ff f8b9 	bl	8000524 <__aeabi_i2d>
 80013b2:	4602      	mov	r2, r0
 80013b4:	460b      	mov	r3, r1
 80013b6:	ec43 2b10 	vmov	d0, r2, r3
 80013ba:	f008 ff91 	bl	800a2e0 <sqrt>
 80013be:	ec53 2b10 	vmov	r2, r3, d0
 80013c2:	4620      	mov	r0, r4
 80013c4:	4629      	mov	r1, r5
 80013c6:	f7ff fa41 	bl	800084c <__aeabi_ddiv>
 80013ca:	4602      	mov	r2, r0
 80013cc:	460b      	mov	r3, r1
 80013ce:	ec43 2b17 	vmov	d7, r2, r3
 80013d2:	eeb0 0a47 	vmov.f32	s0, s14
 80013d6:	eef0 0a67 	vmov.f32	s1, s15
 80013da:	f008 fbd5 	bl	8009b88 <atan>
 80013de:	ec51 0b10 	vmov	r0, r1, d0
 80013e2:	a32d      	add	r3, pc, #180	; (adr r3, 8001498 <main+0x748>)
 80013e4:	e9d3 2300 	ldrd	r2, r3, [r3]
 80013e8:	f7ff f906 	bl	80005f8 <__aeabi_dmul>
 80013ec:	4602      	mov	r2, r0
 80013ee:	460b      	mov	r3, r1
 80013f0:	4610      	mov	r0, r2
 80013f2:	4619      	mov	r1, r3
 80013f4:	f7ff fbf8 	bl	8000be8 <__aeabi_d2f>
 80013f8:	4603      	mov	r3, r0
 80013fa:	667b      	str	r3, [r7, #100]	; 0x64
		float fYg = (roll_rate+86)*0.00875;
 80013fc:	f9b7 308a 	ldrsh.w	r3, [r7, #138]	; 0x8a
 8001400:	3356      	adds	r3, #86	; 0x56
 8001402:	4618      	mov	r0, r3
 8001404:	f7ff f88e 	bl	8000524 <__aeabi_i2d>
 8001408:	a325      	add	r3, pc, #148	; (adr r3, 80014a0 <main+0x750>)
 800140a:	e9d3 2300 	ldrd	r2, r3, [r3]
 800140e:	f7ff f8f3 	bl	80005f8 <__aeabi_dmul>
 8001412:	4602      	mov	r2, r0
 8001414:	460b      	mov	r3, r1
 8001416:	4610      	mov	r0, r2
 8001418:	4619      	mov	r1, r3
 800141a:	f7ff fbe5 	bl	8000be8 <__aeabi_d2f>
 800141e:	4603      	mov	r3, r0
 8001420:	663b      	str	r3, [r7, #96]	; 0x60


		//float fXg = (roll_rate+86)*0.00875;
		// Do some math to get distance

		float ALPHA = 0.1;
 8001422:	4b24      	ldr	r3, [pc, #144]	; (80014b4 <main+0x764>)
 8001424:	65fb      	str	r3, [r7, #92]	; 0x5c
		 * 1. find the offset of acceleration to stablise it
		 * 2. see if can combine acceleration and velocity together to get some values for x y and z
		 * 3.
		 *  */
		// filter out information using low pass filter
		x_acc = ((float)x_acceleration) * 0.00390625 + (1.0-ALPHA)*x_acc;
 8001426:	f9b7 3080 	ldrsh.w	r3, [r7, #128]	; 0x80
 800142a:	ee07 3a90 	vmov	s15, r3
 800142e:	eef8 7ae7 	vcvt.f32.s32	s15, s15
 8001432:	ee17 0a90 	vmov	r0, s15
 8001436:	f7ff f887 	bl	8000548 <__aeabi_f2d>
 800143a:	f04f 0200 	mov.w	r2, #0
 800143e:	4b1e      	ldr	r3, [pc, #120]	; (80014b8 <main+0x768>)
 8001440:	f7ff f8da 	bl	80005f8 <__aeabi_dmul>
 8001444:	4602      	mov	r2, r0
 8001446:	460b      	mov	r3, r1
 8001448:	4614      	mov	r4, r2
 800144a:	461d      	mov	r5, r3
 800144c:	6df8      	ldr	r0, [r7, #92]	; 0x5c
 800144e:	f7ff f87b 	bl	8000548 <__aeabi_f2d>
 8001452:	4602      	mov	r2, r0
 8001454:	460b      	mov	r3, r1
 8001456:	f04f 0000 	mov.w	r0, #0
 800145a:	4918      	ldr	r1, [pc, #96]	; (80014bc <main+0x76c>)
 800145c:	f7fe ff14 	bl	8000288 <__aeabi_dsub>
 8001460:	4602      	mov	r2, r0
 8001462:	460b      	mov	r3, r1
 8001464:	4690      	mov	r8, r2
 8001466:	4699      	mov	r9, r3
 8001468:	f8d7 00d0 	ldr.w	r0, [r7, #208]	; 0xd0
 800146c:	f7ff f86c 	bl	8000548 <__aeabi_f2d>
 8001470:	4602      	mov	r2, r0
 8001472:	460b      	mov	r3, r1
 8001474:	4640      	mov	r0, r8
 8001476:	4649      	mov	r1, r9
 8001478:	f7ff f8be 	bl	80005f8 <__aeabi_dmul>
 800147c:	4602      	mov	r2, r0
 800147e:	460b      	mov	r3, r1
 8001480:	4620      	mov	r0, r4
 8001482:	4629      	mov	r1, r5
 8001484:	f7fe ff02 	bl	800028c <__adddf3>
 8001488:	4602      	mov	r2, r0
 800148a:	460b      	mov	r3, r1
 800148c:	4610      	mov	r0, r2
 800148e:	e017      	b.n	80014c0 <main+0x770>
 8001490:	00000000 	.word	0x00000000
 8001494:	40000000 	.word	0x40000000
 8001498:	61d59ae7 	.word	0x61d59ae7
 800149c:	404ca994 	.word	0x404ca994
 80014a0:	1eb851ec 	.word	0x1eb851ec
 80014a4:	3f81eb85 	.word	0x3f81eb85
 80014a8:	51eb851f 	.word	0x51eb851f
 80014ac:	200008c2 	.word	0x200008c2
 80014b0:	20000480 	.word	0x20000480
 80014b4:	3dcccccd 	.word	0x3dcccccd
 80014b8:	3f700000 	.word	0x3f700000
 80014bc:	3ff00000 	.word	0x3ff00000
 80014c0:	4619      	mov	r1, r3
 80014c2:	f7ff fb91 	bl	8000be8 <__aeabi_d2f>
 80014c6:	4603      	mov	r3, r0
 80014c8:	f8c7 30d0 	str.w	r3, [r7, #208]	; 0xd0
		y_acc = ((float)y_acceleration) * 0.00390625 + (1.0-ALPHA)*y_acc;
 80014cc:	f9b7 307e 	ldrsh.w	r3, [r7, #126]	; 0x7e
 80014d0:	ee07 3a90 	vmov	s15, r3
 80014d4:	eef8 7ae7 	vcvt.f32.s32	s15, s15
 80014d8:	ee17 0a90 	vmov	r0, s15
 80014dc:	f7ff f834 	bl	8000548 <__aeabi_f2d>
 80014e0:	f04f 0200 	mov.w	r2, #0
 80014e4:	4bee      	ldr	r3, [pc, #952]	; (80018a0 <main+0xb50>)
 80014e6:	f7ff f887 	bl	80005f8 <__aeabi_dmul>
 80014ea:	4602      	mov	r2, r0
 80014ec:	460b      	mov	r3, r1
 80014ee:	4614      	mov	r4, r2
 80014f0:	461d      	mov	r5, r3
 80014f2:	6df8      	ldr	r0, [r7, #92]	; 0x5c
 80014f4:	f7ff f828 	bl	8000548 <__aeabi_f2d>
 80014f8:	4602      	mov	r2, r0
 80014fa:	460b      	mov	r3, r1
 80014fc:	f04f 0000 	mov.w	r0, #0
 8001500:	49e8      	ldr	r1, [pc, #928]	; (80018a4 <main+0xb54>)
 8001502:	f7fe fec1 	bl	8000288 <__aeabi_dsub>
 8001506:	4602      	mov	r2, r0
 8001508:	460b      	mov	r3, r1
 800150a:	4690      	mov	r8, r2
 800150c:	4699      	mov	r9, r3
 800150e:	f8d7 00cc 	ldr.w	r0, [r7, #204]	; 0xcc
 8001512:	f7ff f819 	bl	8000548 <__aeabi_f2d>
 8001516:	4602      	mov	r2, r0
 8001518:	460b      	mov	r3, r1
 800151a:	4640      	mov	r0, r8
 800151c:	4649      	mov	r1, r9
 800151e:	f7ff f86b 	bl	80005f8 <__aeabi_dmul>
 8001522:	4602      	mov	r2, r0
 8001524:	460b      	mov	r3, r1
 8001526:	4620      	mov	r0, r4
 8001528:	4629      	mov	r1, r5
 800152a:	f7fe feaf 	bl	800028c <__adddf3>
 800152e:	4602      	mov	r2, r0
 8001530:	460b      	mov	r3, r1
 8001532:	4610      	mov	r0, r2
 8001534:	4619      	mov	r1, r3
 8001536:	f7ff fb57 	bl	8000be8 <__aeabi_d2f>
 800153a:	4603      	mov	r3, r0
 800153c:	f8c7 30cc 	str.w	r3, [r7, #204]	; 0xcc
		z_acc = ((float)z_acceleration) * 0.00390625 + (1.0-ALPHA)*z_acc;
 8001540:	f9b7 307c 	ldrsh.w	r3, [r7, #124]	; 0x7c
 8001544:	ee07 3a90 	vmov	s15, r3
 8001548:	eef8 7ae7 	vcvt.f32.s32	s15, s15
 800154c:	ee17 0a90 	vmov	r0, s15
 8001550:	f7fe fffa 	bl	8000548 <__aeabi_f2d>
 8001554:	f04f 0200 	mov.w	r2, #0
 8001558:	4bd1      	ldr	r3, [pc, #836]	; (80018a0 <main+0xb50>)
 800155a:	f7ff f84d 	bl	80005f8 <__aeabi_dmul>
 800155e:	4602      	mov	r2, r0
 8001560:	460b      	mov	r3, r1
 8001562:	4614      	mov	r4, r2
 8001564:	461d      	mov	r5, r3
 8001566:	6df8      	ldr	r0, [r7, #92]	; 0x5c
 8001568:	f7fe ffee 	bl	8000548 <__aeabi_f2d>
 800156c:	4602      	mov	r2, r0
 800156e:	460b      	mov	r3, r1
 8001570:	f04f 0000 	mov.w	r0, #0
 8001574:	49cb      	ldr	r1, [pc, #812]	; (80018a4 <main+0xb54>)
 8001576:	f7fe fe87 	bl	8000288 <__aeabi_dsub>
 800157a:	4602      	mov	r2, r0
 800157c:	460b      	mov	r3, r1
 800157e:	4690      	mov	r8, r2
 8001580:	4699      	mov	r9, r3
 8001582:	f8d7 00c8 	ldr.w	r0, [r7, #200]	; 0xc8
 8001586:	f7fe ffdf 	bl	8000548 <__aeabi_f2d>
 800158a:	4602      	mov	r2, r0
 800158c:	460b      	mov	r3, r1
 800158e:	4640      	mov	r0, r8
 8001590:	4649      	mov	r1, r9
 8001592:	f7ff f831 	bl	80005f8 <__aeabi_dmul>
 8001596:	4602      	mov	r2, r0
 8001598:	460b      	mov	r3, r1
 800159a:	4620      	mov	r0, r4
 800159c:	4629      	mov	r1, r5
 800159e:	f7fe fe75 	bl	800028c <__adddf3>
 80015a2:	4602      	mov	r2, r0
 80015a4:	460b      	mov	r3, r1
 80015a6:	4610      	mov	r0, r2
 80015a8:	4619      	mov	r1, r3
 80015aa:	f7ff fb1d 	bl	8000be8 <__aeabi_d2f>
 80015ae:	4603      	mov	r3, r0
 80015b0:	f8c7 30c8 	str.w	r3, [r7, #200]	; 0xc8
		float a_roll = (180/3.14)*atan(y_acc/sqrt(x_acc*x_acc+z_acc*z_acc));
 80015b4:	f8d7 00cc 	ldr.w	r0, [r7, #204]	; 0xcc
 80015b8:	f7fe ffc6 	bl	8000548 <__aeabi_f2d>
 80015bc:	4604      	mov	r4, r0
 80015be:	460d      	mov	r5, r1
 80015c0:	edd7 7a34 	vldr	s15, [r7, #208]	; 0xd0
 80015c4:	ee27 7aa7 	vmul.f32	s14, s15, s15
 80015c8:	edd7 7a32 	vldr	s15, [r7, #200]	; 0xc8
 80015cc:	ee67 7aa7 	vmul.f32	s15, s15, s15
 80015d0:	ee77 7a27 	vadd.f32	s15, s14, s15
 80015d4:	ee17 0a90 	vmov	r0, s15
 80015d8:	f7fe ffb6 	bl	8000548 <__aeabi_f2d>
 80015dc:	4602      	mov	r2, r0
 80015de:	460b      	mov	r3, r1
 80015e0:	ec43 2b10 	vmov	d0, r2, r3
 80015e4:	f008 fe7c 	bl	800a2e0 <sqrt>
 80015e8:	ec53 2b10 	vmov	r2, r3, d0
 80015ec:	4620      	mov	r0, r4
 80015ee:	4629      	mov	r1, r5
 80015f0:	f7ff f92c 	bl	800084c <__aeabi_ddiv>
 80015f4:	4602      	mov	r2, r0
 80015f6:	460b      	mov	r3, r1
 80015f8:	ec43 2b17 	vmov	d7, r2, r3
 80015fc:	eeb0 0a47 	vmov.f32	s0, s14
 8001600:	eef0 0a67 	vmov.f32	s1, s15
 8001604:	f008 fac0 	bl	8009b88 <atan>
 8001608:	ec51 0b10 	vmov	r0, r1, d0
 800160c:	a3a0      	add	r3, pc, #640	; (adr r3, 8001890 <main+0xb40>)
 800160e:	e9d3 2300 	ldrd	r2, r3, [r3]
 8001612:	f7fe fff1 	bl	80005f8 <__aeabi_dmul>
 8001616:	4602      	mov	r2, r0
 8001618:	460b      	mov	r3, r1
 800161a:	4610      	mov	r0, r2
 800161c:	4619      	mov	r1, r3
 800161e:	f7ff fae3 	bl	8000be8 <__aeabi_d2f>
 8001622:	4603      	mov	r3, r0
 8001624:	65bb      	str	r3, [r7, #88]	; 0x58
		float a_pitch = (180/3.14)*atan(x_acc/sqrt(y_acc*y_acc+z_acc*z_acc));
 8001626:	f8d7 00d0 	ldr.w	r0, [r7, #208]	; 0xd0
 800162a:	f7fe ff8d 	bl	8000548 <__aeabi_f2d>
 800162e:	4604      	mov	r4, r0
 8001630:	460d      	mov	r5, r1
 8001632:	edd7 7a33 	vldr	s15, [r7, #204]	; 0xcc
 8001636:	ee27 7aa7 	vmul.f32	s14, s15, s15
 800163a:	edd7 7a32 	vldr	s15, [r7, #200]	; 0xc8
 800163e:	ee67 7aa7 	vmul.f32	s15, s15, s15
 8001642:	ee77 7a27 	vadd.f32	s15, s14, s15
 8001646:	ee17 0a90 	vmov	r0, s15
 800164a:	f7fe ff7d 	bl	8000548 <__aeabi_f2d>
 800164e:	4602      	mov	r2, r0
 8001650:	460b      	mov	r3, r1
 8001652:	ec43 2b10 	vmov	d0, r2, r3
 8001656:	f008 fe43 	bl	800a2e0 <sqrt>
 800165a:	ec53 2b10 	vmov	r2, r3, d0
 800165e:	4620      	mov	r0, r4
 8001660:	4629      	mov	r1, r5
 8001662:	f7ff f8f3 	bl	800084c <__aeabi_ddiv>
 8001666:	4602      	mov	r2, r0
 8001668:	460b      	mov	r3, r1
 800166a:	ec43 2b17 	vmov	d7, r2, r3
 800166e:	eeb0 0a47 	vmov.f32	s0, s14
 8001672:	eef0 0a67 	vmov.f32	s1, s15
 8001676:	f008 fa87 	bl	8009b88 <atan>
 800167a:	ec51 0b10 	vmov	r0, r1, d0
 800167e:	a384      	add	r3, pc, #528	; (adr r3, 8001890 <main+0xb40>)
 8001680:	e9d3 2300 	ldrd	r2, r3, [r3]
 8001684:	f7fe ffb8 	bl	80005f8 <__aeabi_dmul>
 8001688:	4602      	mov	r2, r0
 800168a:	460b      	mov	r3, r1
 800168c:	4610      	mov	r0, r2
 800168e:	4619      	mov	r1, r3
 8001690:	f7ff faaa 	bl	8000be8 <__aeabi_d2f>
 8001694:	4603      	mov	r3, r0
 8001696:	657b      	str	r3, [r7, #84]	; 0x54
		float a_yaw = (180/3.14)*atan(z_acc/sqrt(y_acc*y_acc+x_acc*x_acc));
 8001698:	f8d7 00c8 	ldr.w	r0, [r7, #200]	; 0xc8
 800169c:	f7fe ff54 	bl	8000548 <__aeabi_f2d>
 80016a0:	4604      	mov	r4, r0
 80016a2:	460d      	mov	r5, r1
 80016a4:	edd7 7a33 	vldr	s15, [r7, #204]	; 0xcc
 80016a8:	ee27 7aa7 	vmul.f32	s14, s15, s15
 80016ac:	edd7 7a34 	vldr	s15, [r7, #208]	; 0xd0
 80016b0:	ee67 7aa7 	vmul.f32	s15, s15, s15
 80016b4:	ee77 7a27 	vadd.f32	s15, s14, s15
 80016b8:	ee17 0a90 	vmov	r0, s15
 80016bc:	f7fe ff44 	bl	8000548 <__aeabi_f2d>
 80016c0:	4602      	mov	r2, r0
 80016c2:	460b      	mov	r3, r1
 80016c4:	ec43 2b10 	vmov	d0, r2, r3
 80016c8:	f008 fe0a 	bl	800a2e0 <sqrt>
 80016cc:	ec53 2b10 	vmov	r2, r3, d0
 80016d0:	4620      	mov	r0, r4
 80016d2:	4629      	mov	r1, r5
 80016d4:	f7ff f8ba 	bl	800084c <__aeabi_ddiv>
 80016d8:	4602      	mov	r2, r0
 80016da:	460b      	mov	r3, r1
 80016dc:	ec43 2b17 	vmov	d7, r2, r3
 80016e0:	eeb0 0a47 	vmov.f32	s0, s14
 80016e4:	eef0 0a67 	vmov.f32	s1, s15
 80016e8:	f008 fa4e 	bl	8009b88 <atan>
 80016ec:	ec51 0b10 	vmov	r0, r1, d0
 80016f0:	a367      	add	r3, pc, #412	; (adr r3, 8001890 <main+0xb40>)
 80016f2:	e9d3 2300 	ldrd	r2, r3, [r3]
 80016f6:	f7fe ff7f 	bl	80005f8 <__aeabi_dmul>
 80016fa:	4602      	mov	r2, r0
 80016fc:	460b      	mov	r3, r1
 80016fe:	4610      	mov	r0, r2
 8001700:	4619      	mov	r1, r3
 8001702:	f7ff fa71 	bl	8000be8 <__aeabi_d2f>
 8001706:	4603      	mov	r3, r0
 8001708:	653b      	str	r3, [r7, #80]	; 0x50
		//sprintf(string_to_send, "%lf,%lf,%lf,%lf,%lf,%lf\r\n", x_acc, y_acc, z_acc, a_roll, a_pitch, a_yaw);
		//sprintf(string_to_send, "%hd,%hd,%hd\r\n", x_acceleration, y_acceleration, z_acceleration);
		// DO cals on all gryo parts..

		x_v = ((pitch_rate-74)*0.00875* ALPHA + x_v * (1.0-ALPHA));
 800170a:	f9b7 308c 	ldrsh.w	r3, [r7, #140]	; 0x8c
 800170e:	3b4a      	subs	r3, #74	; 0x4a
 8001710:	4618      	mov	r0, r3
 8001712:	f7fe ff07 	bl	8000524 <__aeabi_i2d>
 8001716:	a360      	add	r3, pc, #384	; (adr r3, 8001898 <main+0xb48>)
 8001718:	e9d3 2300 	ldrd	r2, r3, [r3]
 800171c:	f7fe ff6c 	bl	80005f8 <__aeabi_dmul>
 8001720:	4602      	mov	r2, r0
 8001722:	460b      	mov	r3, r1
 8001724:	4614      	mov	r4, r2
 8001726:	461d      	mov	r5, r3
 8001728:	6df8      	ldr	r0, [r7, #92]	; 0x5c
 800172a:	f7fe ff0d 	bl	8000548 <__aeabi_f2d>
 800172e:	4602      	mov	r2, r0
 8001730:	460b      	mov	r3, r1
 8001732:	4620      	mov	r0, r4
 8001734:	4629      	mov	r1, r5
 8001736:	f7fe ff5f 	bl	80005f8 <__aeabi_dmul>
 800173a:	4602      	mov	r2, r0
 800173c:	460b      	mov	r3, r1
 800173e:	4690      	mov	r8, r2
 8001740:	4699      	mov	r9, r3
 8001742:	f8d7 00c4 	ldr.w	r0, [r7, #196]	; 0xc4
 8001746:	f7fe feff 	bl	8000548 <__aeabi_f2d>
 800174a:	4604      	mov	r4, r0
 800174c:	460d      	mov	r5, r1
 800174e:	6df8      	ldr	r0, [r7, #92]	; 0x5c
 8001750:	f7fe fefa 	bl	8000548 <__aeabi_f2d>
 8001754:	4602      	mov	r2, r0
 8001756:	460b      	mov	r3, r1
 8001758:	f04f 0000 	mov.w	r0, #0
 800175c:	4951      	ldr	r1, [pc, #324]	; (80018a4 <main+0xb54>)
 800175e:	f7fe fd93 	bl	8000288 <__aeabi_dsub>
 8001762:	4602      	mov	r2, r0
 8001764:	460b      	mov	r3, r1
 8001766:	4620      	mov	r0, r4
 8001768:	4629      	mov	r1, r5
 800176a:	f7fe ff45 	bl	80005f8 <__aeabi_dmul>
 800176e:	4602      	mov	r2, r0
 8001770:	460b      	mov	r3, r1
 8001772:	4640      	mov	r0, r8
 8001774:	4649      	mov	r1, r9
 8001776:	f7fe fd89 	bl	800028c <__adddf3>
 800177a:	4602      	mov	r2, r0
 800177c:	460b      	mov	r3, r1
 800177e:	4610      	mov	r0, r2
 8001780:	4619      	mov	r1, r3
 8001782:	f7ff fa31 	bl	8000be8 <__aeabi_d2f>
 8001786:	4603      	mov	r3, r0
 8001788:	f8c7 30c4 	str.w	r3, [r7, #196]	; 0xc4
		y_v = (yaw_rate+86)*0.00875* ALPHA + y_v * (1.0-ALPHA);
 800178c:	f9b7 308e 	ldrsh.w	r3, [r7, #142]	; 0x8e
 8001790:	3356      	adds	r3, #86	; 0x56
 8001792:	4618      	mov	r0, r3
 8001794:	f7fe fec6 	bl	8000524 <__aeabi_i2d>
 8001798:	a33f      	add	r3, pc, #252	; (adr r3, 8001898 <main+0xb48>)
 800179a:	e9d3 2300 	ldrd	r2, r3, [r3]
 800179e:	f7fe ff2b 	bl	80005f8 <__aeabi_dmul>
 80017a2:	4602      	mov	r2, r0
 80017a4:	460b      	mov	r3, r1
 80017a6:	4614      	mov	r4, r2
 80017a8:	461d      	mov	r5, r3
 80017aa:	6df8      	ldr	r0, [r7, #92]	; 0x5c
 80017ac:	f7fe fecc 	bl	8000548 <__aeabi_f2d>
 80017b0:	4602      	mov	r2, r0
 80017b2:	460b      	mov	r3, r1
 80017b4:	4620      	mov	r0, r4
 80017b6:	4629      	mov	r1, r5
 80017b8:	f7fe ff1e 	bl	80005f8 <__aeabi_dmul>
 80017bc:	4602      	mov	r2, r0
 80017be:	460b      	mov	r3, r1
 80017c0:	4690      	mov	r8, r2
 80017c2:	4699      	mov	r9, r3
 80017c4:	f8d7 00c0 	ldr.w	r0, [r7, #192]	; 0xc0
 80017c8:	f7fe febe 	bl	8000548 <__aeabi_f2d>
 80017cc:	4604      	mov	r4, r0
 80017ce:	460d      	mov	r5, r1
 80017d0:	6df8      	ldr	r0, [r7, #92]	; 0x5c
 80017d2:	f7fe feb9 	bl	8000548 <__aeabi_f2d>
 80017d6:	4602      	mov	r2, r0
 80017d8:	460b      	mov	r3, r1
 80017da:	f04f 0000 	mov.w	r0, #0
 80017de:	4931      	ldr	r1, [pc, #196]	; (80018a4 <main+0xb54>)
 80017e0:	f7fe fd52 	bl	8000288 <__aeabi_dsub>
 80017e4:	4602      	mov	r2, r0
 80017e6:	460b      	mov	r3, r1
 80017e8:	4620      	mov	r0, r4
 80017ea:	4629      	mov	r1, r5
 80017ec:	f7fe ff04 	bl	80005f8 <__aeabi_dmul>
 80017f0:	4602      	mov	r2, r0
 80017f2:	460b      	mov	r3, r1
 80017f4:	4640      	mov	r0, r8
 80017f6:	4649      	mov	r1, r9
 80017f8:	f7fe fd48 	bl	800028c <__adddf3>
 80017fc:	4602      	mov	r2, r0
 80017fe:	460b      	mov	r3, r1
 8001800:	4610      	mov	r0, r2
 8001802:	4619      	mov	r1, r3
 8001804:	f7ff f9f0 	bl	8000be8 <__aeabi_d2f>
 8001808:	4603      	mov	r3, r0
 800180a:	f8c7 30c0 	str.w	r3, [r7, #192]	; 0xc0
		z_v = (roll_rate-100)*0.00875* ALPHA + z_v * (1.0-ALPHA);
 800180e:	f9b7 308a 	ldrsh.w	r3, [r7, #138]	; 0x8a
 8001812:	3b64      	subs	r3, #100	; 0x64
 8001814:	4618      	mov	r0, r3
 8001816:	f7fe fe85 	bl	8000524 <__aeabi_i2d>
 800181a:	a31f      	add	r3, pc, #124	; (adr r3, 8001898 <main+0xb48>)
 800181c:	e9d3 2300 	ldrd	r2, r3, [r3]
 8001820:	f7fe feea 	bl	80005f8 <__aeabi_dmul>
 8001824:	4602      	mov	r2, r0
 8001826:	460b      	mov	r3, r1
 8001828:	4614      	mov	r4, r2
 800182a:	461d      	mov	r5, r3
 800182c:	6df8      	ldr	r0, [r7, #92]	; 0x5c
 800182e:	f7fe fe8b 	bl	8000548 <__aeabi_f2d>
 8001832:	4602      	mov	r2, r0
 8001834:	460b      	mov	r3, r1
 8001836:	4620      	mov	r0, r4
 8001838:	4629      	mov	r1, r5
 800183a:	f7fe fedd 	bl	80005f8 <__aeabi_dmul>
 800183e:	4602      	mov	r2, r0
 8001840:	460b      	mov	r3, r1
 8001842:	4690      	mov	r8, r2
 8001844:	4699      	mov	r9, r3
 8001846:	f8d7 00bc 	ldr.w	r0, [r7, #188]	; 0xbc
 800184a:	f7fe fe7d 	bl	8000548 <__aeabi_f2d>
 800184e:	4604      	mov	r4, r0
 8001850:	460d      	mov	r5, r1
 8001852:	6df8      	ldr	r0, [r7, #92]	; 0x5c
 8001854:	f7fe fe78 	bl	8000548 <__aeabi_f2d>
 8001858:	4602      	mov	r2, r0
 800185a:	460b      	mov	r3, r1
 800185c:	f04f 0000 	mov.w	r0, #0
 8001860:	4910      	ldr	r1, [pc, #64]	; (80018a4 <main+0xb54>)
 8001862:	f7fe fd11 	bl	8000288 <__aeabi_dsub>
 8001866:	4602      	mov	r2, r0
 8001868:	460b      	mov	r3, r1
 800186a:	4620      	mov	r0, r4
 800186c:	4629      	mov	r1, r5
 800186e:	f7fe fec3 	bl	80005f8 <__aeabi_dmul>
 8001872:	4602      	mov	r2, r0
 8001874:	460b      	mov	r3, r1
 8001876:	4640      	mov	r0, r8
 8001878:	4649      	mov	r1, r9
 800187a:	f7fe fd07 	bl	800028c <__adddf3>
 800187e:	4602      	mov	r2, r0
 8001880:	460b      	mov	r3, r1
 8001882:	4610      	mov	r0, r2
 8001884:	4619      	mov	r1, r3
 8001886:	f7ff f9af 	bl	8000be8 <__aeabi_d2f>
 800188a:	e00d      	b.n	80018a8 <main+0xb58>
 800188c:	f3af 8000 	nop.w
 8001890:	61d59ae7 	.word	0x61d59ae7
 8001894:	404ca994 	.word	0x404ca994
 8001898:	1eb851ec 	.word	0x1eb851ec
 800189c:	3f81eb85 	.word	0x3f81eb85
 80018a0:	3f700000 	.word	0x3f700000
 80018a4:	3ff00000 	.word	0x3ff00000
 80018a8:	4603      	mov	r3, r0
 80018aa:	f8c7 30bc 	str.w	r3, [r7, #188]	; 0xbc
		//sprintf(string_to_send, "%hd,%hd,%hd,%lf,%lf,%lf\r\n", roll_rate, pitch_rate, yaw_rate, x_v, y_v, z_v);


		// Now do math to combines readings
		x_angle = 0.95*(x_angle + x_v*0.09) + 0.05*a_roll;
 80018ae:	f8d7 00b8 	ldr.w	r0, [r7, #184]	; 0xb8
 80018b2:	f7fe fe49 	bl	8000548 <__aeabi_f2d>
 80018b6:	4604      	mov	r4, r0
 80018b8:	460d      	mov	r5, r1
 80018ba:	f8d7 00c4 	ldr.w	r0, [r7, #196]	; 0xc4
 80018be:	f7fe fe43 	bl	8000548 <__aeabi_f2d>
 80018c2:	f20f 43f0 	addw	r3, pc, #1264	; 0x4f0
 80018c6:	e9d3 2300 	ldrd	r2, r3, [r3]
 80018ca:	f7fe fe95 	bl	80005f8 <__aeabi_dmul>
 80018ce:	4602      	mov	r2, r0
 80018d0:	460b      	mov	r3, r1
 80018d2:	4620      	mov	r0, r4
 80018d4:	4629      	mov	r1, r5
 80018d6:	f7fe fcd9 	bl	800028c <__adddf3>
 80018da:	4602      	mov	r2, r0
 80018dc:	460b      	mov	r3, r1
 80018de:	4610      	mov	r0, r2
 80018e0:	4619      	mov	r1, r3
 80018e2:	f20f 43d8 	addw	r3, pc, #1240	; 0x4d8
 80018e6:	e9d3 2300 	ldrd	r2, r3, [r3]
 80018ea:	f7fe fe85 	bl	80005f8 <__aeabi_dmul>
 80018ee:	4602      	mov	r2, r0
 80018f0:	460b      	mov	r3, r1
 80018f2:	4614      	mov	r4, r2
 80018f4:	461d      	mov	r5, r3
 80018f6:	6db8      	ldr	r0, [r7, #88]	; 0x58
 80018f8:	f7fe fe26 	bl	8000548 <__aeabi_f2d>
 80018fc:	f20f 43c4 	addw	r3, pc, #1220	; 0x4c4
 8001900:	e9d3 2300 	ldrd	r2, r3, [r3]
 8001904:	f7fe fe78 	bl	80005f8 <__aeabi_dmul>
 8001908:	4602      	mov	r2, r0
 800190a:	460b      	mov	r3, r1
 800190c:	4620      	mov	r0, r4
 800190e:	4629      	mov	r1, r5
 8001910:	f7fe fcbc 	bl	800028c <__adddf3>
 8001914:	4602      	mov	r2, r0
 8001916:	460b      	mov	r3, r1
 8001918:	4610      	mov	r0, r2
 800191a:	4619      	mov	r1, r3
 800191c:	f7ff f964 	bl	8000be8 <__aeabi_d2f>
 8001920:	4603      	mov	r3, r0
 8001922:	f8c7 30b8 	str.w	r3, [r7, #184]	; 0xb8
		y_angle = 0.95*(y_angle + y_v*0.09) + 0.05*a_pitch;
 8001926:	f8d7 00b4 	ldr.w	r0, [r7, #180]	; 0xb4
 800192a:	f7fe fe0d 	bl	8000548 <__aeabi_f2d>
 800192e:	4604      	mov	r4, r0
 8001930:	460d      	mov	r5, r1
 8001932:	f8d7 00c0 	ldr.w	r0, [r7, #192]	; 0xc0
 8001936:	f7fe fe07 	bl	8000548 <__aeabi_f2d>
 800193a:	f20f 4378 	addw	r3, pc, #1144	; 0x478
 800193e:	e9d3 2300 	ldrd	r2, r3, [r3]
 8001942:	f7fe fe59 	bl	80005f8 <__aeabi_dmul>
 8001946:	4602      	mov	r2, r0
 8001948:	460b      	mov	r3, r1
 800194a:	4620      	mov	r0, r4
 800194c:	4629      	mov	r1, r5
 800194e:	f7fe fc9d 	bl	800028c <__adddf3>
 8001952:	4602      	mov	r2, r0
 8001954:	460b      	mov	r3, r1
 8001956:	4610      	mov	r0, r2
 8001958:	4619      	mov	r1, r3
 800195a:	f20f 4360 	addw	r3, pc, #1120	; 0x460
 800195e:	e9d3 2300 	ldrd	r2, r3, [r3]
 8001962:	f7fe fe49 	bl	80005f8 <__aeabi_dmul>
 8001966:	4602      	mov	r2, r0
 8001968:	460b      	mov	r3, r1
 800196a:	4614      	mov	r4, r2
 800196c:	461d      	mov	r5, r3
 800196e:	6d78      	ldr	r0, [r7, #84]	; 0x54
 8001970:	f7fe fdea 	bl	8000548 <__aeabi_f2d>
 8001974:	f20f 434c 	addw	r3, pc, #1100	; 0x44c
 8001978:	e9d3 2300 	ldrd	r2, r3, [r3]
 800197c:	f7fe fe3c 	bl	80005f8 <__aeabi_dmul>
 8001980:	4602      	mov	r2, r0
 8001982:	460b      	mov	r3, r1
 8001984:	4620      	mov	r0, r4
 8001986:	4629      	mov	r1, r5
 8001988:	f7fe fc80 	bl	800028c <__adddf3>
 800198c:	4602      	mov	r2, r0
 800198e:	460b      	mov	r3, r1
 8001990:	4610      	mov	r0, r2
 8001992:	4619      	mov	r1, r3
 8001994:	f7ff f928 	bl	8000be8 <__aeabi_d2f>
 8001998:	4603      	mov	r3, r0
 800199a:	f8c7 30b4 	str.w	r3, [r7, #180]	; 0xb4
		z_angle = 0.95*(z_angle + z_v*0.09) + 0.05*a_yaw;
 800199e:	f8d7 00b0 	ldr.w	r0, [r7, #176]	; 0xb0
 80019a2:	f7fe fdd1 	bl	8000548 <__aeabi_f2d>
 80019a6:	4604      	mov	r4, r0
 80019a8:	460d      	mov	r5, r1
 80019aa:	f8d7 00bc 	ldr.w	r0, [r7, #188]	; 0xbc
 80019ae:	f7fe fdcb 	bl	8000548 <__aeabi_f2d>
 80019b2:	f20f 4300 	addw	r3, pc, #1024	; 0x400
 80019b6:	e9d3 2300 	ldrd	r2, r3, [r3]
 80019ba:	f7fe fe1d 	bl	80005f8 <__aeabi_dmul>
 80019be:	4602      	mov	r2, r0
 80019c0:	460b      	mov	r3, r1
 80019c2:	4620      	mov	r0, r4
 80019c4:	4629      	mov	r1, r5
 80019c6:	f7fe fc61 	bl	800028c <__adddf3>
 80019ca:	4602      	mov	r2, r0
 80019cc:	460b      	mov	r3, r1
 80019ce:	4610      	mov	r0, r2
 80019d0:	4619      	mov	r1, r3
 80019d2:	a3fa      	add	r3, pc, #1000	; (adr r3, 8001dbc <main+0x106c>)
 80019d4:	e9d3 2300 	ldrd	r2, r3, [r3]
 80019d8:	f7fe fe0e 	bl	80005f8 <__aeabi_dmul>
 80019dc:	4602      	mov	r2, r0
 80019de:	460b      	mov	r3, r1
 80019e0:	4614      	mov	r4, r2
 80019e2:	461d      	mov	r5, r3
 80019e4:	6d38      	ldr	r0, [r7, #80]	; 0x50
 80019e6:	f7fe fdaf 	bl	8000548 <__aeabi_f2d>
 80019ea:	a3f6      	add	r3, pc, #984	; (adr r3, 8001dc4 <main+0x1074>)
 80019ec:	e9d3 2300 	ldrd	r2, r3, [r3]
 80019f0:	f7fe fe02 	bl	80005f8 <__aeabi_dmul>
 80019f4:	4602      	mov	r2, r0
 80019f6:	460b      	mov	r3, r1
 80019f8:	4620      	mov	r0, r4
 80019fa:	4629      	mov	r1, r5
 80019fc:	f7fe fc46 	bl	800028c <__adddf3>
 8001a00:	4602      	mov	r2, r0
 8001a02:	460b      	mov	r3, r1
 8001a04:	4610      	mov	r0, r2
 8001a06:	4619      	mov	r1, r3
 8001a08:	f7ff f8ee 	bl	8000be8 <__aeabi_d2f>
 8001a0c:	4603      	mov	r3, r0
 8001a0e:	f8c7 30b0 	str.w	r3, [r7, #176]	; 0xb0
		float angle = (y_angle + x_angle);
 8001a12:	ed97 7a2d 	vldr	s14, [r7, #180]	; 0xb4
 8001a16:	edd7 7a2e 	vldr	s15, [r7, #184]	; 0xb8
 8001a1a:	ee77 7a27 	vadd.f32	s15, s14, s15
 8001a1e:	edc7 7a13 	vstr	s15, [r7, #76]	; 0x4c
		float y = y_angle - x_angle;
 8001a22:	ed97 7a2d 	vldr	s14, [r7, #180]	; 0xb4
 8001a26:	edd7 7a2e 	vldr	s15, [r7, #184]	; 0xb8
 8001a2a:	ee77 7a67 	vsub.f32	s15, s14, s15
 8001a2e:	edc7 7a12 	vstr	s15, [r7, #72]	; 0x48
		//sprintf(string_to_send, "%lf,%lf\r\n",angle*100, y*100);

		// Investigating magnetic rates
		// sprintf(string_to_send,"%hd,%hd,%hd\r\n",x_mag, z_mag, y_mag);

		p_rps = ((pitch_rate-74)*0.00875*ALPHA)*(3.14/180) + p_rps * (1.0-ALPHA);
 8001a32:	f9b7 308c 	ldrsh.w	r3, [r7, #140]	; 0x8c
 8001a36:	3b4a      	subs	r3, #74	; 0x4a
 8001a38:	4618      	mov	r0, r3
 8001a3a:	f7fe fd73 	bl	8000524 <__aeabi_i2d>
 8001a3e:	a3d2      	add	r3, pc, #840	; (adr r3, 8001d88 <main+0x1038>)
 8001a40:	e9d3 2300 	ldrd	r2, r3, [r3]
 8001a44:	f7fe fdd8 	bl	80005f8 <__aeabi_dmul>
 8001a48:	4602      	mov	r2, r0
 8001a4a:	460b      	mov	r3, r1
 8001a4c:	4614      	mov	r4, r2
 8001a4e:	461d      	mov	r5, r3
 8001a50:	6df8      	ldr	r0, [r7, #92]	; 0x5c
 8001a52:	f7fe fd79 	bl	8000548 <__aeabi_f2d>
 8001a56:	4602      	mov	r2, r0
 8001a58:	460b      	mov	r3, r1
 8001a5a:	4620      	mov	r0, r4
 8001a5c:	4629      	mov	r1, r5
 8001a5e:	f7fe fdcb 	bl	80005f8 <__aeabi_dmul>
 8001a62:	4602      	mov	r2, r0
 8001a64:	460b      	mov	r3, r1
 8001a66:	4610      	mov	r0, r2
 8001a68:	4619      	mov	r1, r3
 8001a6a:	a3c9      	add	r3, pc, #804	; (adr r3, 8001d90 <main+0x1040>)
 8001a6c:	e9d3 2300 	ldrd	r2, r3, [r3]
 8001a70:	f7fe fdc2 	bl	80005f8 <__aeabi_dmul>
 8001a74:	4602      	mov	r2, r0
 8001a76:	460b      	mov	r3, r1
 8001a78:	4690      	mov	r8, r2
 8001a7a:	4699      	mov	r9, r3
 8001a7c:	f8d7 00ac 	ldr.w	r0, [r7, #172]	; 0xac
 8001a80:	f7fe fd62 	bl	8000548 <__aeabi_f2d>
 8001a84:	4604      	mov	r4, r0
 8001a86:	460d      	mov	r5, r1
 8001a88:	6df8      	ldr	r0, [r7, #92]	; 0x5c
 8001a8a:	f7fe fd5d 	bl	8000548 <__aeabi_f2d>
 8001a8e:	4602      	mov	r2, r0
 8001a90:	460b      	mov	r3, r1
 8001a92:	f04f 0000 	mov.w	r0, #0
 8001a96:	49c4      	ldr	r1, [pc, #784]	; (8001da8 <main+0x1058>)
 8001a98:	f7fe fbf6 	bl	8000288 <__aeabi_dsub>
 8001a9c:	4602      	mov	r2, r0
 8001a9e:	460b      	mov	r3, r1
 8001aa0:	4620      	mov	r0, r4
 8001aa2:	4629      	mov	r1, r5
 8001aa4:	f7fe fda8 	bl	80005f8 <__aeabi_dmul>
 8001aa8:	4602      	mov	r2, r0
 8001aaa:	460b      	mov	r3, r1
 8001aac:	4640      	mov	r0, r8
 8001aae:	4649      	mov	r1, r9
 8001ab0:	f7fe fbec 	bl	800028c <__adddf3>
 8001ab4:	4602      	mov	r2, r0
 8001ab6:	460b      	mov	r3, r1
 8001ab8:	4610      	mov	r0, r2
 8001aba:	4619      	mov	r1, r3
 8001abc:	f7ff f894 	bl	8000be8 <__aeabi_d2f>
 8001ac0:	4603      	mov	r3, r0
 8001ac2:	f8c7 30ac 	str.w	r3, [r7, #172]	; 0xac
		q_rps = ((yaw_rate+86)*0.00875*ALPHA)*(3.14/180) + q_rps * (1.0-ALPHA);
 8001ac6:	f9b7 308e 	ldrsh.w	r3, [r7, #142]	; 0x8e
 8001aca:	3356      	adds	r3, #86	; 0x56
 8001acc:	4618      	mov	r0, r3
 8001ace:	f7fe fd29 	bl	8000524 <__aeabi_i2d>
 8001ad2:	a3ad      	add	r3, pc, #692	; (adr r3, 8001d88 <main+0x1038>)
 8001ad4:	e9d3 2300 	ldrd	r2, r3, [r3]
 8001ad8:	f7fe fd8e 	bl	80005f8 <__aeabi_dmul>
 8001adc:	4602      	mov	r2, r0
 8001ade:	460b      	mov	r3, r1
 8001ae0:	4614      	mov	r4, r2
 8001ae2:	461d      	mov	r5, r3
 8001ae4:	6df8      	ldr	r0, [r7, #92]	; 0x5c
 8001ae6:	f7fe fd2f 	bl	8000548 <__aeabi_f2d>
 8001aea:	4602      	mov	r2, r0
 8001aec:	460b      	mov	r3, r1
 8001aee:	4620      	mov	r0, r4
 8001af0:	4629      	mov	r1, r5
 8001af2:	f7fe fd81 	bl	80005f8 <__aeabi_dmul>
 8001af6:	4602      	mov	r2, r0
 8001af8:	460b      	mov	r3, r1
 8001afa:	4610      	mov	r0, r2
 8001afc:	4619      	mov	r1, r3
 8001afe:	a3a4      	add	r3, pc, #656	; (adr r3, 8001d90 <main+0x1040>)
 8001b00:	e9d3 2300 	ldrd	r2, r3, [r3]
 8001b04:	f7fe fd78 	bl	80005f8 <__aeabi_dmul>
 8001b08:	4602      	mov	r2, r0
 8001b0a:	460b      	mov	r3, r1
 8001b0c:	4690      	mov	r8, r2
 8001b0e:	4699      	mov	r9, r3
 8001b10:	f8d7 00a8 	ldr.w	r0, [r7, #168]	; 0xa8
 8001b14:	f7fe fd18 	bl	8000548 <__aeabi_f2d>
 8001b18:	4604      	mov	r4, r0
 8001b1a:	460d      	mov	r5, r1
 8001b1c:	6df8      	ldr	r0, [r7, #92]	; 0x5c
 8001b1e:	f7fe fd13 	bl	8000548 <__aeabi_f2d>
 8001b22:	4602      	mov	r2, r0
 8001b24:	460b      	mov	r3, r1
 8001b26:	f04f 0000 	mov.w	r0, #0
 8001b2a:	499f      	ldr	r1, [pc, #636]	; (8001da8 <main+0x1058>)
 8001b2c:	f7fe fbac 	bl	8000288 <__aeabi_dsub>
 8001b30:	4602      	mov	r2, r0
 8001b32:	460b      	mov	r3, r1
 8001b34:	4620      	mov	r0, r4
 8001b36:	4629      	mov	r1, r5
 8001b38:	f7fe fd5e 	bl	80005f8 <__aeabi_dmul>
 8001b3c:	4602      	mov	r2, r0
 8001b3e:	460b      	mov	r3, r1
 8001b40:	4640      	mov	r0, r8
 8001b42:	4649      	mov	r1, r9
 8001b44:	f7fe fba2 	bl	800028c <__adddf3>
 8001b48:	4602      	mov	r2, r0
 8001b4a:	460b      	mov	r3, r1
 8001b4c:	4610      	mov	r0, r2
 8001b4e:	4619      	mov	r1, r3
 8001b50:	f7ff f84a 	bl	8000be8 <__aeabi_d2f>
 8001b54:	4603      	mov	r3, r0
 8001b56:	f8c7 30a8 	str.w	r3, [r7, #168]	; 0xa8
		r_rps = ((roll_rate-100)*0.00875*ALPHA)*(3.14/180) + r_rps * (1.0-ALPHA);
 8001b5a:	f9b7 308a 	ldrsh.w	r3, [r7, #138]	; 0x8a
 8001b5e:	3b64      	subs	r3, #100	; 0x64
 8001b60:	4618      	mov	r0, r3
 8001b62:	f7fe fcdf 	bl	8000524 <__aeabi_i2d>
 8001b66:	a388      	add	r3, pc, #544	; (adr r3, 8001d88 <main+0x1038>)
 8001b68:	e9d3 2300 	ldrd	r2, r3, [r3]
 8001b6c:	f7fe fd44 	bl	80005f8 <__aeabi_dmul>
 8001b70:	4602      	mov	r2, r0
 8001b72:	460b      	mov	r3, r1
 8001b74:	4614      	mov	r4, r2
 8001b76:	461d      	mov	r5, r3
 8001b78:	6df8      	ldr	r0, [r7, #92]	; 0x5c
 8001b7a:	f7fe fce5 	bl	8000548 <__aeabi_f2d>
 8001b7e:	4602      	mov	r2, r0
 8001b80:	460b      	mov	r3, r1
 8001b82:	4620      	mov	r0, r4
 8001b84:	4629      	mov	r1, r5
 8001b86:	f7fe fd37 	bl	80005f8 <__aeabi_dmul>
 8001b8a:	4602      	mov	r2, r0
 8001b8c:	460b      	mov	r3, r1
 8001b8e:	4610      	mov	r0, r2
 8001b90:	4619      	mov	r1, r3
 8001b92:	a37f      	add	r3, pc, #508	; (adr r3, 8001d90 <main+0x1040>)
 8001b94:	e9d3 2300 	ldrd	r2, r3, [r3]
 8001b98:	f7fe fd2e 	bl	80005f8 <__aeabi_dmul>
 8001b9c:	4602      	mov	r2, r0
 8001b9e:	460b      	mov	r3, r1
 8001ba0:	4690      	mov	r8, r2
 8001ba2:	4699      	mov	r9, r3
 8001ba4:	f8d7 00a4 	ldr.w	r0, [r7, #164]	; 0xa4
 8001ba8:	f7fe fcce 	bl	8000548 <__aeabi_f2d>
 8001bac:	4604      	mov	r4, r0
 8001bae:	460d      	mov	r5, r1
 8001bb0:	6df8      	ldr	r0, [r7, #92]	; 0x5c
 8001bb2:	f7fe fcc9 	bl	8000548 <__aeabi_f2d>
 8001bb6:	4602      	mov	r2, r0
 8001bb8:	460b      	mov	r3, r1
 8001bba:	f04f 0000 	mov.w	r0, #0
 8001bbe:	497a      	ldr	r1, [pc, #488]	; (8001da8 <main+0x1058>)
 8001bc0:	f7fe fb62 	bl	8000288 <__aeabi_dsub>
 8001bc4:	4602      	mov	r2, r0
 8001bc6:	460b      	mov	r3, r1
 8001bc8:	4620      	mov	r0, r4
 8001bca:	4629      	mov	r1, r5
 8001bcc:	f7fe fd14 	bl	80005f8 <__aeabi_dmul>
 8001bd0:	4602      	mov	r2, r0
 8001bd2:	460b      	mov	r3, r1
 8001bd4:	4640      	mov	r0, r8
 8001bd6:	4649      	mov	r1, r9
 8001bd8:	f7fe fb58 	bl	800028c <__adddf3>
 8001bdc:	4602      	mov	r2, r0
 8001bde:	460b      	mov	r3, r1
 8001be0:	4610      	mov	r0, r2
 8001be2:	4619      	mov	r1, r3
 8001be4:	f7ff f800 	bl	8000be8 <__aeabi_d2f>
 8001be8:	4603      	mov	r3, r0
 8001bea:	f8c7 30a4 	str.w	r3, [r7, #164]	; 0xa4



		// trial of global pitch, roll using accelerometer
		float global_acc_roll = atanf(y_acc/z_acc);
 8001bee:	ed97 7a33 	vldr	s14, [r7, #204]	; 0xcc
 8001bf2:	edd7 7a32 	vldr	s15, [r7, #200]	; 0xc8
 8001bf6:	eec7 6a27 	vdiv.f32	s13, s14, s15
 8001bfa:	eeb0 0a66 	vmov.f32	s0, s13
 8001bfe:	f008 f96d 	bl	8009edc <atanf>
 8001c02:	ed87 0a11 	vstr	s0, [r7, #68]	; 0x44
		float global_acc_pitch = atanf(x_acc/9.81);
 8001c06:	f8d7 00d0 	ldr.w	r0, [r7, #208]	; 0xd0
 8001c0a:	f7fe fc9d 	bl	8000548 <__aeabi_f2d>
 8001c0e:	a362      	add	r3, pc, #392	; (adr r3, 8001d98 <main+0x1048>)
 8001c10:	e9d3 2300 	ldrd	r2, r3, [r3]
 8001c14:	f7fe fe1a 	bl	800084c <__aeabi_ddiv>
 8001c18:	4602      	mov	r2, r0
 8001c1a:	460b      	mov	r3, r1
 8001c1c:	4610      	mov	r0, r2
 8001c1e:	4619      	mov	r1, r3
 8001c20:	f7fe ffe2 	bl	8000be8 <__aeabi_d2f>
 8001c24:	4603      	mov	r3, r0
 8001c26:	ee00 3a10 	vmov	s0, r3
 8001c2a:	f008 f957 	bl	8009edc <atanf>
 8001c2e:	ed87 0a10 	vstr	s0, [r7, #64]	; 0x40

		float phi_dot = p_rps + tanf(global_acc_pitch)*(sinf(global_acc_roll)*q_rps + cosf(global_acc_roll)*r_rps);
 8001c32:	ed97 0a10 	vldr	s0, [r7, #64]	; 0x40
 8001c36:	f008 fab7 	bl	800a1a8 <tanf>
 8001c3a:	eef0 8a40 	vmov.f32	s17, s0
 8001c3e:	ed97 0a11 	vldr	s0, [r7, #68]	; 0x44
 8001c42:	f008 fa6b 	bl	800a11c <sinf>
 8001c46:	eeb0 7a40 	vmov.f32	s14, s0
 8001c4a:	edd7 7a2a 	vldr	s15, [r7, #168]	; 0xa8
 8001c4e:	ee27 8a27 	vmul.f32	s16, s14, s15
 8001c52:	ed97 0a11 	vldr	s0, [r7, #68]	; 0x44
 8001c56:	f008 fa15 	bl	800a084 <cosf>
 8001c5a:	eeb0 7a40 	vmov.f32	s14, s0
 8001c5e:	edd7 7a29 	vldr	s15, [r7, #164]	; 0xa4
 8001c62:	ee67 7a27 	vmul.f32	s15, s14, s15
 8001c66:	ee78 7a27 	vadd.f32	s15, s16, s15
 8001c6a:	ee68 7aa7 	vmul.f32	s15, s17, s15
 8001c6e:	ed97 7a2b 	vldr	s14, [r7, #172]	; 0xac
 8001c72:	ee77 7a27 	vadd.f32	s15, s14, s15
 8001c76:	edc7 7a0f 	vstr	s15, [r7, #60]	; 0x3c
		float theta_dot = cosf(global_acc_roll)*q_rps - sinf(global_acc_roll)*r_rps;
 8001c7a:	ed97 0a11 	vldr	s0, [r7, #68]	; 0x44
 8001c7e:	f008 fa01 	bl	800a084 <cosf>
 8001c82:	eeb0 7a40 	vmov.f32	s14, s0
 8001c86:	edd7 7a2a 	vldr	s15, [r7, #168]	; 0xa8
 8001c8a:	ee27 8a27 	vmul.f32	s16, s14, s15
 8001c8e:	ed97 0a11 	vldr	s0, [r7, #68]	; 0x44
 8001c92:	f008 fa43 	bl	800a11c <sinf>
 8001c96:	eeb0 7a40 	vmov.f32	s14, s0
 8001c9a:	edd7 7a29 	vldr	s15, [r7, #164]	; 0xa4
 8001c9e:	ee67 7a27 	vmul.f32	s15, s14, s15
 8001ca2:	ee78 7a67 	vsub.f32	s15, s16, s15
 8001ca6:	edc7 7a0e 	vstr	s15, [r7, #56]	; 0x38

		global_roll = global_roll + 0.1*phi_dot;
 8001caa:	f8d7 00a0 	ldr.w	r0, [r7, #160]	; 0xa0
 8001cae:	f7fe fc4b 	bl	8000548 <__aeabi_f2d>
 8001cb2:	4604      	mov	r4, r0
 8001cb4:	460d      	mov	r5, r1
 8001cb6:	6bf8      	ldr	r0, [r7, #60]	; 0x3c
 8001cb8:	f7fe fc46 	bl	8000548 <__aeabi_f2d>
 8001cbc:	a338      	add	r3, pc, #224	; (adr r3, 8001da0 <main+0x1050>)
 8001cbe:	e9d3 2300 	ldrd	r2, r3, [r3]
 8001cc2:	f7fe fc99 	bl	80005f8 <__aeabi_dmul>
 8001cc6:	4602      	mov	r2, r0
 8001cc8:	460b      	mov	r3, r1
 8001cca:	4620      	mov	r0, r4
 8001ccc:	4629      	mov	r1, r5
 8001cce:	f7fe fadd 	bl	800028c <__adddf3>
 8001cd2:	4602      	mov	r2, r0
 8001cd4:	460b      	mov	r3, r1
 8001cd6:	4610      	mov	r0, r2
 8001cd8:	4619      	mov	r1, r3
 8001cda:	f7fe ff85 	bl	8000be8 <__aeabi_d2f>
 8001cde:	4603      	mov	r3, r0
 8001ce0:	f8c7 30a0 	str.w	r3, [r7, #160]	; 0xa0
		global_pitch = global_pitch + 0.1*theta_dot;
 8001ce4:	f8d7 009c 	ldr.w	r0, [r7, #156]	; 0x9c
 8001ce8:	f7fe fc2e 	bl	8000548 <__aeabi_f2d>
 8001cec:	4604      	mov	r4, r0
 8001cee:	460d      	mov	r5, r1
 8001cf0:	6bb8      	ldr	r0, [r7, #56]	; 0x38
 8001cf2:	f7fe fc29 	bl	8000548 <__aeabi_f2d>
 8001cf6:	a32a      	add	r3, pc, #168	; (adr r3, 8001da0 <main+0x1050>)
 8001cf8:	e9d3 2300 	ldrd	r2, r3, [r3]
 8001cfc:	f7fe fc7c 	bl	80005f8 <__aeabi_dmul>
 8001d00:	4602      	mov	r2, r0
 8001d02:	460b      	mov	r3, r1
 8001d04:	4620      	mov	r0, r4
 8001d06:	4629      	mov	r1, r5
 8001d08:	f7fe fac0 	bl	800028c <__adddf3>
 8001d0c:	4602      	mov	r2, r0
 8001d0e:	460b      	mov	r3, r1
 8001d10:	4610      	mov	r0, r2
 8001d12:	4619      	mov	r1, r3
 8001d14:	f7fe ff68 	bl	8000be8 <__aeabi_d2f>
 8001d18:	4603      	mov	r3, r0
 8001d1a:	f8c7 309c 	str.w	r3, [r7, #156]	; 0x9c

		//sprintf(string_to_send, "%lf,%lf,\r\n", global_acc_roll, global_acc_pitch);
		sprintf(string_to_send, "%lf,%lf,%lf,%lf,%lf,%lf\r\n", global_acc_roll, global_acc_pitch, phi_dot, theta_dot, global_roll, global_pitch);
 8001d1e:	6c78      	ldr	r0, [r7, #68]	; 0x44
 8001d20:	f7fe fc12 	bl	8000548 <__aeabi_f2d>
 8001d24:	e9c7 0102 	strd	r0, r1, [r7, #8]
 8001d28:	6c38      	ldr	r0, [r7, #64]	; 0x40
 8001d2a:	f7fe fc0d 	bl	8000548 <__aeabi_f2d>
 8001d2e:	4604      	mov	r4, r0
 8001d30:	460d      	mov	r5, r1
 8001d32:	6bf8      	ldr	r0, [r7, #60]	; 0x3c
 8001d34:	f7fe fc08 	bl	8000548 <__aeabi_f2d>
 8001d38:	4680      	mov	r8, r0
 8001d3a:	4689      	mov	r9, r1
 8001d3c:	6bb8      	ldr	r0, [r7, #56]	; 0x38
 8001d3e:	f7fe fc03 	bl	8000548 <__aeabi_f2d>
 8001d42:	4682      	mov	sl, r0
 8001d44:	468b      	mov	fp, r1
 8001d46:	f8d7 00a0 	ldr.w	r0, [r7, #160]	; 0xa0
 8001d4a:	f7fe fbfd 	bl	8000548 <__aeabi_f2d>
 8001d4e:	e9c7 0100 	strd	r0, r1, [r7]
 8001d52:	f8d7 009c 	ldr.w	r0, [r7, #156]	; 0x9c
 8001d56:	f7fe fbf7 	bl	8000548 <__aeabi_f2d>
 8001d5a:	4602      	mov	r2, r0
 8001d5c:	460b      	mov	r3, r1
 8001d5e:	e9cd 2308 	strd	r2, r3, [sp, #32]
 8001d62:	ed97 7b00 	vldr	d7, [r7]
 8001d66:	ed8d 7b06 	vstr	d7, [sp, #24]
 8001d6a:	e9cd ab04 	strd	sl, fp, [sp, #16]
 8001d6e:	e9cd 8902 	strd	r8, r9, [sp, #8]
 8001d72:	e9cd 4500 	strd	r4, r5, [sp]
 8001d76:	e9d7 2302 	ldrd	r2, r3, [r7, #8]
 8001d7a:	490c      	ldr	r1, [pc, #48]	; (8001dac <main+0x105c>)
 8001d7c:	480c      	ldr	r0, [pc, #48]	; (8001db0 <main+0x1060>)
 8001d7e:	f005 fc8b 	bl	8007698 <siprintf>
	{
 8001d82:	f7ff b886 	b.w	8000e92 <main+0x142>
 8001d86:	bf00      	nop
 8001d88:	1eb851ec 	.word	0x1eb851ec
 8001d8c:	3f81eb85 	.word	0x3f81eb85
 8001d90:	d98b0955 	.word	0xd98b0955
 8001d94:	3f91dcf4 	.word	0x3f91dcf4
 8001d98:	51eb851f 	.word	0x51eb851f
 8001d9c:	40239eb8 	.word	0x40239eb8
 8001da0:	9999999a 	.word	0x9999999a
 8001da4:	3fb99999 	.word	0x3fb99999
 8001da8:	3ff00000 	.word	0x3ff00000
 8001dac:	0800bc78 	.word	0x0800bc78
 8001db0:	20000000 	.word	0x20000000
 8001db4:	70a3d70a 	.word	0x70a3d70a
 8001db8:	3fb70a3d 	.word	0x3fb70a3d
 8001dbc:	66666666 	.word	0x66666666
 8001dc0:	3fee6666 	.word	0x3fee6666
 8001dc4:	9999999a 	.word	0x9999999a
 8001dc8:	3fa99999 	.word	0x3fa99999

08001dcc <SystemClock_Config>:
/**
  * @brief System Clock Configuration
  * @retval None
  */
void SystemClock_Config(void)
{
 8001dcc:	b580      	push	{r7, lr}
 8001dce:	b09e      	sub	sp, #120	; 0x78
 8001dd0:	af00      	add	r7, sp, #0
  RCC_OscInitTypeDef RCC_OscInitStruct = {0};
 8001dd2:	f107 0350 	add.w	r3, r7, #80	; 0x50
 8001dd6:	2228      	movs	r2, #40	; 0x28
 8001dd8:	2100      	movs	r1, #0
 8001dda:	4618      	mov	r0, r3
 8001ddc:	f004 ffea 	bl	8006db4 <memset>
  RCC_ClkInitTypeDef RCC_ClkInitStruct = {0};
 8001de0:	f107 033c 	add.w	r3, r7, #60	; 0x3c
 8001de4:	2200      	movs	r2, #0
 8001de6:	601a      	str	r2, [r3, #0]
 8001de8:	605a      	str	r2, [r3, #4]
 8001dea:	609a      	str	r2, [r3, #8]
 8001dec:	60da      	str	r2, [r3, #12]
 8001dee:	611a      	str	r2, [r3, #16]
  RCC_PeriphCLKInitTypeDef PeriphClkInit = {0};
 8001df0:	463b      	mov	r3, r7
 8001df2:	223c      	movs	r2, #60	; 0x3c
 8001df4:	2100      	movs	r1, #0
 8001df6:	4618      	mov	r0, r3
 8001df8:	f004 ffdc 	bl	8006db4 <memset>

  /** Initializes the RCC Oscillators according to the specified parameters
  * in the RCC_OscInitTypeDef structure.
  */
  RCC_OscInitStruct.OscillatorType = RCC_OSCILLATORTYPE_HSI|RCC_OSCILLATORTYPE_HSE;
 8001dfc:	2303      	movs	r3, #3
 8001dfe:	653b      	str	r3, [r7, #80]	; 0x50
  RCC_OscInitStruct.HSEState = RCC_HSE_BYPASS;
 8001e00:	f44f 23a0 	mov.w	r3, #327680	; 0x50000
 8001e04:	657b      	str	r3, [r7, #84]	; 0x54
  RCC_OscInitStruct.HSEPredivValue = RCC_HSE_PREDIV_DIV1;
 8001e06:	2300      	movs	r3, #0
 8001e08:	65bb      	str	r3, [r7, #88]	; 0x58
  RCC_OscInitStruct.HSIState = RCC_HSI_ON;
 8001e0a:	2301      	movs	r3, #1
 8001e0c:	663b      	str	r3, [r7, #96]	; 0x60
  RCC_OscInitStruct.HSICalibrationValue = RCC_HSICALIBRATION_DEFAULT;
 8001e0e:	2310      	movs	r3, #16
 8001e10:	667b      	str	r3, [r7, #100]	; 0x64
  RCC_OscInitStruct.PLL.PLLState = RCC_PLL_ON;
 8001e12:	2302      	movs	r3, #2
 8001e14:	66fb      	str	r3, [r7, #108]	; 0x6c
  RCC_OscInitStruct.PLL.PLLSource = RCC_PLLSOURCE_HSE;
 8001e16:	f44f 3380 	mov.w	r3, #65536	; 0x10000
 8001e1a:	673b      	str	r3, [r7, #112]	; 0x70
  RCC_OscInitStruct.PLL.PLLMUL = RCC_PLL_MUL6;
 8001e1c:	f44f 1380 	mov.w	r3, #1048576	; 0x100000
 8001e20:	677b      	str	r3, [r7, #116]	; 0x74
  if (HAL_RCC_OscConfig(&RCC_OscInitStruct) != HAL_OK)
 8001e22:	f107 0350 	add.w	r3, r7, #80	; 0x50
 8001e26:	4618      	mov	r0, r3
 8001e28:	f002 f9e8 	bl	80041fc <HAL_RCC_OscConfig>
 8001e2c:	4603      	mov	r3, r0
 8001e2e:	2b00      	cmp	r3, #0
 8001e30:	d001      	beq.n	8001e36 <SystemClock_Config+0x6a>
  {
    Error_Handler();
 8001e32:	f000 fa1d 	bl	8002270 <Error_Handler>
  }

  /** Initializes the CPU, AHB and APB buses clocks
  */
  RCC_ClkInitStruct.ClockType = RCC_CLOCKTYPE_HCLK|RCC_CLOCKTYPE_SYSCLK
 8001e36:	230f      	movs	r3, #15
 8001e38:	63fb      	str	r3, [r7, #60]	; 0x3c
                              |RCC_CLOCKTYPE_PCLK1|RCC_CLOCKTYPE_PCLK2;
  RCC_ClkInitStruct.SYSCLKSource = RCC_SYSCLKSOURCE_PLLCLK;
 8001e3a:	2302      	movs	r3, #2
 8001e3c:	643b      	str	r3, [r7, #64]	; 0x40
  RCC_ClkInitStruct.AHBCLKDivider = RCC_SYSCLK_DIV1;
 8001e3e:	2300      	movs	r3, #0
 8001e40:	647b      	str	r3, [r7, #68]	; 0x44
  RCC_ClkInitStruct.APB1CLKDivider = RCC_HCLK_DIV2;
 8001e42:	f44f 6380 	mov.w	r3, #1024	; 0x400
 8001e46:	64bb      	str	r3, [r7, #72]	; 0x48
  RCC_ClkInitStruct.APB2CLKDivider = RCC_HCLK_DIV1;
 8001e48:	2300      	movs	r3, #0
 8001e4a:	64fb      	str	r3, [r7, #76]	; 0x4c

  if (HAL_RCC_ClockConfig(&RCC_ClkInitStruct, FLASH_LATENCY_1) != HAL_OK)
 8001e4c:	f107 033c 	add.w	r3, r7, #60	; 0x3c
 8001e50:	2101      	movs	r1, #1
 8001e52:	4618      	mov	r0, r3
 8001e54:	f003 fa10 	bl	8005278 <HAL_RCC_ClockConfig>
 8001e58:	4603      	mov	r3, r0
 8001e5a:	2b00      	cmp	r3, #0
 8001e5c:	d001      	beq.n	8001e62 <SystemClock_Config+0x96>
  {
    Error_Handler();
 8001e5e:	f000 fa07 	bl	8002270 <Error_Handler>
  }
  PeriphClkInit.PeriphClockSelection = RCC_PERIPHCLK_USB|RCC_PERIPHCLK_I2C1
 8001e62:	4b0c      	ldr	r3, [pc, #48]	; (8001e94 <SystemClock_Config+0xc8>)
 8001e64:	603b      	str	r3, [r7, #0]
                              |RCC_PERIPHCLK_I2C2|RCC_PERIPHCLK_TIM1;
  PeriphClkInit.I2c1ClockSelection = RCC_I2C1CLKSOURCE_HSI;
 8001e66:	2300      	movs	r3, #0
 8001e68:	61fb      	str	r3, [r7, #28]
  PeriphClkInit.I2c2ClockSelection = RCC_I2C2CLKSOURCE_HSI;
 8001e6a:	2300      	movs	r3, #0
 8001e6c:	623b      	str	r3, [r7, #32]
  PeriphClkInit.USBClockSelection = RCC_USBCLKSOURCE_PLL;
 8001e6e:	f44f 0380 	mov.w	r3, #4194304	; 0x400000
 8001e72:	63bb      	str	r3, [r7, #56]	; 0x38
  PeriphClkInit.Tim1ClockSelection = RCC_TIM1CLK_HCLK;
 8001e74:	2300      	movs	r3, #0
 8001e76:	633b      	str	r3, [r7, #48]	; 0x30
  if (HAL_RCCEx_PeriphCLKConfig(&PeriphClkInit) != HAL_OK)
 8001e78:	463b      	mov	r3, r7
 8001e7a:	4618      	mov	r0, r3
 8001e7c:	f003 fbe2 	bl	8005644 <HAL_RCCEx_PeriphCLKConfig>
 8001e80:	4603      	mov	r3, r0
 8001e82:	2b00      	cmp	r3, #0
 8001e84:	d001      	beq.n	8001e8a <SystemClock_Config+0xbe>
  {
    Error_Handler();
 8001e86:	f000 f9f3 	bl	8002270 <Error_Handler>
  }
}
 8001e8a:	bf00      	nop
 8001e8c:	3778      	adds	r7, #120	; 0x78
 8001e8e:	46bd      	mov	sp, r7
 8001e90:	bd80      	pop	{r7, pc}
 8001e92:	bf00      	nop
 8001e94:	00021060 	.word	0x00021060

08001e98 <MX_I2C1_Init>:
  * @brief I2C1 Initialization Function
  * @param None
  * @retval None
  */
static void MX_I2C1_Init(void)
{
 8001e98:	b580      	push	{r7, lr}
 8001e9a:	af00      	add	r7, sp, #0
  /* USER CODE END I2C1_Init 0 */

  /* USER CODE BEGIN I2C1_Init 1 */

  /* USER CODE END I2C1_Init 1 */
  hi2c1.Instance = I2C1;
 8001e9c:	4b1b      	ldr	r3, [pc, #108]	; (8001f0c <MX_I2C1_Init+0x74>)
 8001e9e:	4a1c      	ldr	r2, [pc, #112]	; (8001f10 <MX_I2C1_Init+0x78>)
 8001ea0:	601a      	str	r2, [r3, #0]
  hi2c1.Init.Timing = 0x2000090E;
 8001ea2:	4b1a      	ldr	r3, [pc, #104]	; (8001f0c <MX_I2C1_Init+0x74>)
 8001ea4:	4a1b      	ldr	r2, [pc, #108]	; (8001f14 <MX_I2C1_Init+0x7c>)
 8001ea6:	605a      	str	r2, [r3, #4]
  hi2c1.Init.OwnAddress1 = 0;
 8001ea8:	4b18      	ldr	r3, [pc, #96]	; (8001f0c <MX_I2C1_Init+0x74>)
 8001eaa:	2200      	movs	r2, #0
 8001eac:	609a      	str	r2, [r3, #8]
  hi2c1.Init.AddressingMode = I2C_ADDRESSINGMODE_7BIT;
 8001eae:	4b17      	ldr	r3, [pc, #92]	; (8001f0c <MX_I2C1_Init+0x74>)
 8001eb0:	2201      	movs	r2, #1
 8001eb2:	60da      	str	r2, [r3, #12]
  hi2c1.Init.DualAddressMode = I2C_DUALADDRESS_DISABLE;
 8001eb4:	4b15      	ldr	r3, [pc, #84]	; (8001f0c <MX_I2C1_Init+0x74>)
 8001eb6:	2200      	movs	r2, #0
 8001eb8:	611a      	str	r2, [r3, #16]
  hi2c1.Init.OwnAddress2 = 0;
 8001eba:	4b14      	ldr	r3, [pc, #80]	; (8001f0c <MX_I2C1_Init+0x74>)
 8001ebc:	2200      	movs	r2, #0
 8001ebe:	615a      	str	r2, [r3, #20]
  hi2c1.Init.OwnAddress2Masks = I2C_OA2_NOMASK;
 8001ec0:	4b12      	ldr	r3, [pc, #72]	; (8001f0c <MX_I2C1_Init+0x74>)
 8001ec2:	2200      	movs	r2, #0
 8001ec4:	619a      	str	r2, [r3, #24]
  hi2c1.Init.GeneralCallMode = I2C_GENERALCALL_DISABLE;
 8001ec6:	4b11      	ldr	r3, [pc, #68]	; (8001f0c <MX_I2C1_Init+0x74>)
 8001ec8:	2200      	movs	r2, #0
 8001eca:	61da      	str	r2, [r3, #28]
  hi2c1.Init.NoStretchMode = I2C_NOSTRETCH_DISABLE;
 8001ecc:	4b0f      	ldr	r3, [pc, #60]	; (8001f0c <MX_I2C1_Init+0x74>)
 8001ece:	2200      	movs	r2, #0
 8001ed0:	621a      	str	r2, [r3, #32]
  if (HAL_I2C_Init(&hi2c1) != HAL_OK)
 8001ed2:	480e      	ldr	r0, [pc, #56]	; (8001f0c <MX_I2C1_Init+0x74>)
 8001ed4:	f001 fab2 	bl	800343c <HAL_I2C_Init>
 8001ed8:	4603      	mov	r3, r0
 8001eda:	2b00      	cmp	r3, #0
 8001edc:	d001      	beq.n	8001ee2 <MX_I2C1_Init+0x4a>
  {
    Error_Handler();
 8001ede:	f000 f9c7 	bl	8002270 <Error_Handler>
  }

  /** Configure Analogue filter
  */
  if (HAL_I2CEx_ConfigAnalogFilter(&hi2c1, I2C_ANALOGFILTER_ENABLE) != HAL_OK)
 8001ee2:	2100      	movs	r1, #0
 8001ee4:	4809      	ldr	r0, [pc, #36]	; (8001f0c <MX_I2C1_Init+0x74>)
 8001ee6:	f002 f81f 	bl	8003f28 <HAL_I2CEx_ConfigAnalogFilter>
 8001eea:	4603      	mov	r3, r0
 8001eec:	2b00      	cmp	r3, #0
 8001eee:	d001      	beq.n	8001ef4 <MX_I2C1_Init+0x5c>
  {
    Error_Handler();
 8001ef0:	f000 f9be 	bl	8002270 <Error_Handler>
  }

  /** Configure Digital filter
  */
  if (HAL_I2CEx_ConfigDigitalFilter(&hi2c1, 0) != HAL_OK)
 8001ef4:	2100      	movs	r1, #0
 8001ef6:	4805      	ldr	r0, [pc, #20]	; (8001f0c <MX_I2C1_Init+0x74>)
 8001ef8:	f002 f861 	bl	8003fbe <HAL_I2CEx_ConfigDigitalFilter>
 8001efc:	4603      	mov	r3, r0
 8001efe:	2b00      	cmp	r3, #0
 8001f00:	d001      	beq.n	8001f06 <MX_I2C1_Init+0x6e>
  {
    Error_Handler();
 8001f02:	f000 f9b5 	bl	8002270 <Error_Handler>
  }
  /* USER CODE BEGIN I2C1_Init 2 */

  /* USER CODE END I2C1_Init 2 */

}
 8001f06:	bf00      	nop
 8001f08:	bd80      	pop	{r7, pc}
 8001f0a:	bf00      	nop
 8001f0c:	2000042c 	.word	0x2000042c
 8001f10:	40005400 	.word	0x40005400
 8001f14:	2000090e 	.word	0x2000090e

08001f18 <MX_I2C2_Init>:
  * @brief I2C2 Initialization Function
  * @param None
  * @retval None
  */
static void MX_I2C2_Init(void)
{
 8001f18:	b580      	push	{r7, lr}
 8001f1a:	af00      	add	r7, sp, #0
  /* USER CODE END I2C2_Init 0 */

  /* USER CODE BEGIN I2C2_Init 1 */

  /* USER CODE END I2C2_Init 1 */
  hi2c2.Instance = I2C2;
 8001f1c:	4b1b      	ldr	r3, [pc, #108]	; (8001f8c <MX_I2C2_Init+0x74>)
 8001f1e:	4a1c      	ldr	r2, [pc, #112]	; (8001f90 <MX_I2C2_Init+0x78>)
 8001f20:	601a      	str	r2, [r3, #0]
  hi2c2.Init.Timing = 0x2000090E;
 8001f22:	4b1a      	ldr	r3, [pc, #104]	; (8001f8c <MX_I2C2_Init+0x74>)
 8001f24:	4a1b      	ldr	r2, [pc, #108]	; (8001f94 <MX_I2C2_Init+0x7c>)
 8001f26:	605a      	str	r2, [r3, #4]
  hi2c2.Init.OwnAddress1 = 0;
 8001f28:	4b18      	ldr	r3, [pc, #96]	; (8001f8c <MX_I2C2_Init+0x74>)
 8001f2a:	2200      	movs	r2, #0
 8001f2c:	609a      	str	r2, [r3, #8]
  hi2c2.Init.AddressingMode = I2C_ADDRESSINGMODE_7BIT;
 8001f2e:	4b17      	ldr	r3, [pc, #92]	; (8001f8c <MX_I2C2_Init+0x74>)
 8001f30:	2201      	movs	r2, #1
 8001f32:	60da      	str	r2, [r3, #12]
  hi2c2.Init.DualAddressMode = I2C_DUALADDRESS_DISABLE;
 8001f34:	4b15      	ldr	r3, [pc, #84]	; (8001f8c <MX_I2C2_Init+0x74>)
 8001f36:	2200      	movs	r2, #0
 8001f38:	611a      	str	r2, [r3, #16]
  hi2c2.Init.OwnAddress2 = 0;
 8001f3a:	4b14      	ldr	r3, [pc, #80]	; (8001f8c <MX_I2C2_Init+0x74>)
 8001f3c:	2200      	movs	r2, #0
 8001f3e:	615a      	str	r2, [r3, #20]
  hi2c2.Init.OwnAddress2Masks = I2C_OA2_NOMASK;
 8001f40:	4b12      	ldr	r3, [pc, #72]	; (8001f8c <MX_I2C2_Init+0x74>)
 8001f42:	2200      	movs	r2, #0
 8001f44:	619a      	str	r2, [r3, #24]
  hi2c2.Init.GeneralCallMode = I2C_GENERALCALL_DISABLE;
 8001f46:	4b11      	ldr	r3, [pc, #68]	; (8001f8c <MX_I2C2_Init+0x74>)
 8001f48:	2200      	movs	r2, #0
 8001f4a:	61da      	str	r2, [r3, #28]
  hi2c2.Init.NoStretchMode = I2C_NOSTRETCH_DISABLE;
 8001f4c:	4b0f      	ldr	r3, [pc, #60]	; (8001f8c <MX_I2C2_Init+0x74>)
 8001f4e:	2200      	movs	r2, #0
 8001f50:	621a      	str	r2, [r3, #32]
  if (HAL_I2C_Init(&hi2c2) != HAL_OK)
 8001f52:	480e      	ldr	r0, [pc, #56]	; (8001f8c <MX_I2C2_Init+0x74>)
 8001f54:	f001 fa72 	bl	800343c <HAL_I2C_Init>
 8001f58:	4603      	mov	r3, r0
 8001f5a:	2b00      	cmp	r3, #0
 8001f5c:	d001      	beq.n	8001f62 <MX_I2C2_Init+0x4a>
  {
    Error_Handler();
 8001f5e:	f000 f987 	bl	8002270 <Error_Handler>
  }

  /** Configure Analogue filter
  */
  if (HAL_I2CEx_ConfigAnalogFilter(&hi2c2, I2C_ANALOGFILTER_ENABLE) != HAL_OK)
 8001f62:	2100      	movs	r1, #0
 8001f64:	4809      	ldr	r0, [pc, #36]	; (8001f8c <MX_I2C2_Init+0x74>)
 8001f66:	f001 ffdf 	bl	8003f28 <HAL_I2CEx_ConfigAnalogFilter>
 8001f6a:	4603      	mov	r3, r0
 8001f6c:	2b00      	cmp	r3, #0
 8001f6e:	d001      	beq.n	8001f74 <MX_I2C2_Init+0x5c>
  {
    Error_Handler();
 8001f70:	f000 f97e 	bl	8002270 <Error_Handler>
  }

  /** Configure Digital filter
  */
  if (HAL_I2CEx_ConfigDigitalFilter(&hi2c2, 0) != HAL_OK)
 8001f74:	2100      	movs	r1, #0
 8001f76:	4805      	ldr	r0, [pc, #20]	; (8001f8c <MX_I2C2_Init+0x74>)
 8001f78:	f002 f821 	bl	8003fbe <HAL_I2CEx_ConfigDigitalFilter>
 8001f7c:	4603      	mov	r3, r0
 8001f7e:	2b00      	cmp	r3, #0
 8001f80:	d001      	beq.n	8001f86 <MX_I2C2_Init+0x6e>
  {
    Error_Handler();
 8001f82:	f000 f975 	bl	8002270 <Error_Handler>
  }
  /* USER CODE BEGIN I2C2_Init 2 */

  /* USER CODE END I2C2_Init 2 */

}
 8001f86:	bf00      	nop
 8001f88:	bd80      	pop	{r7, pc}
 8001f8a:	bf00      	nop
 8001f8c:	20000480 	.word	0x20000480
 8001f90:	40005800 	.word	0x40005800
 8001f94:	2000090e 	.word	0x2000090e

08001f98 <MX_SPI1_Init>:
  * @brief SPI1 Initialization Function
  * @param None
  * @retval None
  */
static void MX_SPI1_Init(void)
{
 8001f98:	b580      	push	{r7, lr}
 8001f9a:	af00      	add	r7, sp, #0

  /* USER CODE BEGIN SPI1_Init 1 */

  /* USER CODE END SPI1_Init 1 */
  /* SPI1 parameter configuration*/
  hspi1.Instance = SPI1;
 8001f9c:	4b1b      	ldr	r3, [pc, #108]	; (800200c <MX_SPI1_Init+0x74>)
 8001f9e:	4a1c      	ldr	r2, [pc, #112]	; (8002010 <MX_SPI1_Init+0x78>)
 8001fa0:	601a      	str	r2, [r3, #0]
  hspi1.Init.Mode = SPI_MODE_MASTER;
 8001fa2:	4b1a      	ldr	r3, [pc, #104]	; (800200c <MX_SPI1_Init+0x74>)
 8001fa4:	f44f 7282 	mov.w	r2, #260	; 0x104
 8001fa8:	605a      	str	r2, [r3, #4]
  hspi1.Init.Direction = SPI_DIRECTION_2LINES;
 8001faa:	4b18      	ldr	r3, [pc, #96]	; (800200c <MX_SPI1_Init+0x74>)
 8001fac:	2200      	movs	r2, #0
 8001fae:	609a      	str	r2, [r3, #8]
  hspi1.Init.DataSize = SPI_DATASIZE_4BIT;
 8001fb0:	4b16      	ldr	r3, [pc, #88]	; (800200c <MX_SPI1_Init+0x74>)
 8001fb2:	f44f 7240 	mov.w	r2, #768	; 0x300
 8001fb6:	60da      	str	r2, [r3, #12]
  hspi1.Init.CLKPolarity = SPI_POLARITY_LOW;
 8001fb8:	4b14      	ldr	r3, [pc, #80]	; (800200c <MX_SPI1_Init+0x74>)
 8001fba:	2200      	movs	r2, #0
 8001fbc:	611a      	str	r2, [r3, #16]
  hspi1.Init.CLKPhase = SPI_PHASE_1EDGE;
 8001fbe:	4b13      	ldr	r3, [pc, #76]	; (800200c <MX_SPI1_Init+0x74>)
 8001fc0:	2200      	movs	r2, #0
 8001fc2:	615a      	str	r2, [r3, #20]
  hspi1.Init.NSS = SPI_NSS_SOFT;
 8001fc4:	4b11      	ldr	r3, [pc, #68]	; (800200c <MX_SPI1_Init+0x74>)
 8001fc6:	f44f 7200 	mov.w	r2, #512	; 0x200
 8001fca:	619a      	str	r2, [r3, #24]
  hspi1.Init.BaudRatePrescaler = SPI_BAUDRATEPRESCALER_4;
 8001fcc:	4b0f      	ldr	r3, [pc, #60]	; (800200c <MX_SPI1_Init+0x74>)
 8001fce:	2208      	movs	r2, #8
 8001fd0:	61da      	str	r2, [r3, #28]
  hspi1.Init.FirstBit = SPI_FIRSTBIT_MSB;
 8001fd2:	4b0e      	ldr	r3, [pc, #56]	; (800200c <MX_SPI1_Init+0x74>)
 8001fd4:	2200      	movs	r2, #0
 8001fd6:	621a      	str	r2, [r3, #32]
  hspi1.Init.TIMode = SPI_TIMODE_DISABLE;
 8001fd8:	4b0c      	ldr	r3, [pc, #48]	; (800200c <MX_SPI1_Init+0x74>)
 8001fda:	2200      	movs	r2, #0
 8001fdc:	625a      	str	r2, [r3, #36]	; 0x24
  hspi1.Init.CRCCalculation = SPI_CRCCALCULATION_DISABLE;
 8001fde:	4b0b      	ldr	r3, [pc, #44]	; (800200c <MX_SPI1_Init+0x74>)
 8001fe0:	2200      	movs	r2, #0
 8001fe2:	629a      	str	r2, [r3, #40]	; 0x28
  hspi1.Init.CRCPolynomial = 7;
 8001fe4:	4b09      	ldr	r3, [pc, #36]	; (800200c <MX_SPI1_Init+0x74>)
 8001fe6:	2207      	movs	r2, #7
 8001fe8:	62da      	str	r2, [r3, #44]	; 0x2c
  hspi1.Init.CRCLength = SPI_CRC_LENGTH_DATASIZE;
 8001fea:	4b08      	ldr	r3, [pc, #32]	; (800200c <MX_SPI1_Init+0x74>)
 8001fec:	2200      	movs	r2, #0
 8001fee:	631a      	str	r2, [r3, #48]	; 0x30
  hspi1.Init.NSSPMode = SPI_NSS_PULSE_ENABLE;
 8001ff0:	4b06      	ldr	r3, [pc, #24]	; (800200c <MX_SPI1_Init+0x74>)
 8001ff2:	2208      	movs	r2, #8
 8001ff4:	635a      	str	r2, [r3, #52]	; 0x34
  if (HAL_SPI_Init(&hspi1) != HAL_OK)
 8001ff6:	4805      	ldr	r0, [pc, #20]	; (800200c <MX_SPI1_Init+0x74>)
 8001ff8:	f003 fcd4 	bl	80059a4 <HAL_SPI_Init>
 8001ffc:	4603      	mov	r3, r0
 8001ffe:	2b00      	cmp	r3, #0
 8002000:	d001      	beq.n	8002006 <MX_SPI1_Init+0x6e>
  {
    Error_Handler();
 8002002:	f000 f935 	bl	8002270 <Error_Handler>
  }
  /* USER CODE BEGIN SPI1_Init 2 */

  /* USER CODE END SPI1_Init 2 */

}
 8002006:	bf00      	nop
 8002008:	bd80      	pop	{r7, pc}
 800200a:	bf00      	nop
 800200c:	200004d4 	.word	0x200004d4
 8002010:	40013000 	.word	0x40013000

08002014 <MX_TIM1_Init>:
  * @brief TIM1 Initialization Function
  * @param None
  * @retval None
  */
static void MX_TIM1_Init(void)
{
 8002014:	b580      	push	{r7, lr}
 8002016:	b08c      	sub	sp, #48	; 0x30
 8002018:	af00      	add	r7, sp, #0

  /* USER CODE BEGIN TIM1_Init 0 */

  /* USER CODE END TIM1_Init 0 */

  TIM_ClockConfigTypeDef sClockSourceConfig = {0};
 800201a:	f107 0320 	add.w	r3, r7, #32
 800201e:	2200      	movs	r2, #0
 8002020:	601a      	str	r2, [r3, #0]
 8002022:	605a      	str	r2, [r3, #4]
 8002024:	609a      	str	r2, [r3, #8]
 8002026:	60da      	str	r2, [r3, #12]
  TIM_MasterConfigTypeDef sMasterConfig = {0};
 8002028:	f107 0314 	add.w	r3, r7, #20
 800202c:	2200      	movs	r2, #0
 800202e:	601a      	str	r2, [r3, #0]
 8002030:	605a      	str	r2, [r3, #4]
 8002032:	609a      	str	r2, [r3, #8]
  TIM_IC_InitTypeDef sConfigIC = {0};
 8002034:	1d3b      	adds	r3, r7, #4
 8002036:	2200      	movs	r2, #0
 8002038:	601a      	str	r2, [r3, #0]
 800203a:	605a      	str	r2, [r3, #4]
 800203c:	609a      	str	r2, [r3, #8]
 800203e:	60da      	str	r2, [r3, #12]

  /* USER CODE BEGIN TIM1_Init 1 */

  /* USER CODE END TIM1_Init 1 */
  htim1.Instance = TIM1;
 8002040:	4b2d      	ldr	r3, [pc, #180]	; (80020f8 <MX_TIM1_Init+0xe4>)
 8002042:	4a2e      	ldr	r2, [pc, #184]	; (80020fc <MX_TIM1_Init+0xe8>)
 8002044:	601a      	str	r2, [r3, #0]
  htim1.Init.Prescaler = 47;
 8002046:	4b2c      	ldr	r3, [pc, #176]	; (80020f8 <MX_TIM1_Init+0xe4>)
 8002048:	222f      	movs	r2, #47	; 0x2f
 800204a:	605a      	str	r2, [r3, #4]
  htim1.Init.CounterMode = TIM_COUNTERMODE_UP;
 800204c:	4b2a      	ldr	r3, [pc, #168]	; (80020f8 <MX_TIM1_Init+0xe4>)
 800204e:	2200      	movs	r2, #0
 8002050:	609a      	str	r2, [r3, #8]
  htim1.Init.Period = 65535;
 8002052:	4b29      	ldr	r3, [pc, #164]	; (80020f8 <MX_TIM1_Init+0xe4>)
 8002054:	f64f 72ff 	movw	r2, #65535	; 0xffff
 8002058:	60da      	str	r2, [r3, #12]
  htim1.Init.ClockDivision = TIM_CLOCKDIVISION_DIV1;
 800205a:	4b27      	ldr	r3, [pc, #156]	; (80020f8 <MX_TIM1_Init+0xe4>)
 800205c:	2200      	movs	r2, #0
 800205e:	611a      	str	r2, [r3, #16]
  htim1.Init.RepetitionCounter = 0;
 8002060:	4b25      	ldr	r3, [pc, #148]	; (80020f8 <MX_TIM1_Init+0xe4>)
 8002062:	2200      	movs	r2, #0
 8002064:	615a      	str	r2, [r3, #20]
  htim1.Init.AutoReloadPreload = TIM_AUTORELOAD_PRELOAD_DISABLE;
 8002066:	4b24      	ldr	r3, [pc, #144]	; (80020f8 <MX_TIM1_Init+0xe4>)
 8002068:	2200      	movs	r2, #0
 800206a:	619a      	str	r2, [r3, #24]
  if (HAL_TIM_Base_Init(&htim1) != HAL_OK)
 800206c:	4822      	ldr	r0, [pc, #136]	; (80020f8 <MX_TIM1_Init+0xe4>)
 800206e:	f003 fd44 	bl	8005afa <HAL_TIM_Base_Init>
 8002072:	4603      	mov	r3, r0
 8002074:	2b00      	cmp	r3, #0
 8002076:	d001      	beq.n	800207c <MX_TIM1_Init+0x68>
  {
    Error_Handler();
 8002078:	f000 f8fa 	bl	8002270 <Error_Handler>
  }
  sClockSourceConfig.ClockSource = TIM_CLOCKSOURCE_INTERNAL;
 800207c:	f44f 5380 	mov.w	r3, #4096	; 0x1000
 8002080:	623b      	str	r3, [r7, #32]
  if (HAL_TIM_ConfigClockSource(&htim1, &sClockSourceConfig) != HAL_OK)
 8002082:	f107 0320 	add.w	r3, r7, #32
 8002086:	4619      	mov	r1, r3
 8002088:	481b      	ldr	r0, [pc, #108]	; (80020f8 <MX_TIM1_Init+0xe4>)
 800208a:	f004 f9ec 	bl	8006466 <HAL_TIM_ConfigClockSource>
 800208e:	4603      	mov	r3, r0
 8002090:	2b00      	cmp	r3, #0
 8002092:	d001      	beq.n	8002098 <MX_TIM1_Init+0x84>
  {
    Error_Handler();
 8002094:	f000 f8ec 	bl	8002270 <Error_Handler>
  }
  if (HAL_TIM_IC_Init(&htim1) != HAL_OK)
 8002098:	4817      	ldr	r0, [pc, #92]	; (80020f8 <MX_TIM1_Init+0xe4>)
 800209a:	f003 fe85 	bl	8005da8 <HAL_TIM_IC_Init>
 800209e:	4603      	mov	r3, r0
 80020a0:	2b00      	cmp	r3, #0
 80020a2:	d001      	beq.n	80020a8 <MX_TIM1_Init+0x94>
  {
    Error_Handler();
 80020a4:	f000 f8e4 	bl	8002270 <Error_Handler>
  }
  sMasterConfig.MasterOutputTrigger = TIM_TRGO_RESET;
 80020a8:	2300      	movs	r3, #0
 80020aa:	617b      	str	r3, [r7, #20]
  sMasterConfig.MasterOutputTrigger2 = TIM_TRGO2_RESET;
 80020ac:	2300      	movs	r3, #0
 80020ae:	61bb      	str	r3, [r7, #24]
  sMasterConfig.MasterSlaveMode = TIM_MASTERSLAVEMODE_DISABLE;
 80020b0:	2300      	movs	r3, #0
 80020b2:	61fb      	str	r3, [r7, #28]
  if (HAL_TIMEx_MasterConfigSynchronization(&htim1, &sMasterConfig) != HAL_OK)
 80020b4:	f107 0314 	add.w	r3, r7, #20
 80020b8:	4619      	mov	r1, r3
 80020ba:	480f      	ldr	r0, [pc, #60]	; (80020f8 <MX_TIM1_Init+0xe4>)
 80020bc:	f004 fd76 	bl	8006bac <HAL_TIMEx_MasterConfigSynchronization>
 80020c0:	4603      	mov	r3, r0
 80020c2:	2b00      	cmp	r3, #0
 80020c4:	d001      	beq.n	80020ca <MX_TIM1_Init+0xb6>
  {
    Error_Handler();
 80020c6:	f000 f8d3 	bl	8002270 <Error_Handler>
  }
  sConfigIC.ICPolarity = TIM_INPUTCHANNELPOLARITY_BOTHEDGE;
 80020ca:	230a      	movs	r3, #10
 80020cc:	607b      	str	r3, [r7, #4]
  sConfigIC.ICSelection = TIM_ICSELECTION_DIRECTTI;
 80020ce:	2301      	movs	r3, #1
 80020d0:	60bb      	str	r3, [r7, #8]
  sConfigIC.ICPrescaler = TIM_ICPSC_DIV1;
 80020d2:	2300      	movs	r3, #0
 80020d4:	60fb      	str	r3, [r7, #12]
  sConfigIC.ICFilter = 0;
 80020d6:	2300      	movs	r3, #0
 80020d8:	613b      	str	r3, [r7, #16]
  if (HAL_TIM_IC_ConfigChannel(&htim1, &sConfigIC, TIM_CHANNEL_1) != HAL_OK)
 80020da:	1d3b      	adds	r3, r7, #4
 80020dc:	2200      	movs	r2, #0
 80020de:	4619      	mov	r1, r3
 80020e0:	4805      	ldr	r0, [pc, #20]	; (80020f8 <MX_TIM1_Init+0xe4>)
 80020e2:	f004 f924 	bl	800632e <HAL_TIM_IC_ConfigChannel>
 80020e6:	4603      	mov	r3, r0
 80020e8:	2b00      	cmp	r3, #0
 80020ea:	d001      	beq.n	80020f0 <MX_TIM1_Init+0xdc>
  {
    Error_Handler();
 80020ec:	f000 f8c0 	bl	8002270 <Error_Handler>
  }
  /* USER CODE BEGIN TIM1_Init 2 */

  /* USER CODE END TIM1_Init 2 */

}
 80020f0:	bf00      	nop
 80020f2:	3730      	adds	r7, #48	; 0x30
 80020f4:	46bd      	mov	sp, r7
 80020f6:	bd80      	pop	{r7, pc}
 80020f8:	20000538 	.word	0x20000538
 80020fc:	40012c00 	.word	0x40012c00

08002100 <MX_USB_PCD_Init>:
  * @brief USB Initialization Function
  * @param None
  * @retval None
  */
static void MX_USB_PCD_Init(void)
{
 8002100:	b580      	push	{r7, lr}
 8002102:	af00      	add	r7, sp, #0
  /* USER CODE END USB_Init 0 */

  /* USER CODE BEGIN USB_Init 1 */

  /* USER CODE END USB_Init 1 */
  hpcd_USB_FS.Instance = USB;
 8002104:	4b0d      	ldr	r3, [pc, #52]	; (800213c <MX_USB_PCD_Init+0x3c>)
 8002106:	4a0e      	ldr	r2, [pc, #56]	; (8002140 <MX_USB_PCD_Init+0x40>)
 8002108:	601a      	str	r2, [r3, #0]
  hpcd_USB_FS.Init.dev_endpoints = 8;
 800210a:	4b0c      	ldr	r3, [pc, #48]	; (800213c <MX_USB_PCD_Init+0x3c>)
 800210c:	2208      	movs	r2, #8
 800210e:	605a      	str	r2, [r3, #4]
  hpcd_USB_FS.Init.speed = PCD_SPEED_FULL;
 8002110:	4b0a      	ldr	r3, [pc, #40]	; (800213c <MX_USB_PCD_Init+0x3c>)
 8002112:	2202      	movs	r2, #2
 8002114:	609a      	str	r2, [r3, #8]
  hpcd_USB_FS.Init.phy_itface = PCD_PHY_EMBEDDED;
 8002116:	4b09      	ldr	r3, [pc, #36]	; (800213c <MX_USB_PCD_Init+0x3c>)
 8002118:	2202      	movs	r2, #2
 800211a:	611a      	str	r2, [r3, #16]
  hpcd_USB_FS.Init.low_power_enable = DISABLE;
 800211c:	4b07      	ldr	r3, [pc, #28]	; (800213c <MX_USB_PCD_Init+0x3c>)
 800211e:	2200      	movs	r2, #0
 8002120:	619a      	str	r2, [r3, #24]
  hpcd_USB_FS.Init.battery_charging_enable = DISABLE;
 8002122:	4b06      	ldr	r3, [pc, #24]	; (800213c <MX_USB_PCD_Init+0x3c>)
 8002124:	2200      	movs	r2, #0
 8002126:	621a      	str	r2, [r3, #32]
  if (HAL_PCD_Init(&hpcd_USB_FS) != HAL_OK)
 8002128:	4804      	ldr	r0, [pc, #16]	; (800213c <MX_USB_PCD_Init+0x3c>)
 800212a:	f001 ff94 	bl	8004056 <HAL_PCD_Init>
 800212e:	4603      	mov	r3, r0
 8002130:	2b00      	cmp	r3, #0
 8002132:	d001      	beq.n	8002138 <MX_USB_PCD_Init+0x38>
  {
    Error_Handler();
 8002134:	f000 f89c 	bl	8002270 <Error_Handler>
  }
  /* USER CODE BEGIN USB_Init 2 */

  /* USER CODE END USB_Init 2 */

}
 8002138:	bf00      	nop
 800213a:	bd80      	pop	{r7, pc}
 800213c:	200005d0 	.word	0x200005d0
 8002140:	40005c00 	.word	0x40005c00

08002144 <MX_GPIO_Init>:
  * @brief GPIO Initialization Function
  * @param None
  * @retval None
  */
static void MX_GPIO_Init(void)
{
 8002144:	b580      	push	{r7, lr}
 8002146:	b08a      	sub	sp, #40	; 0x28
 8002148:	af00      	add	r7, sp, #0
  GPIO_InitTypeDef GPIO_InitStruct = {0};
 800214a:	f107 0314 	add.w	r3, r7, #20
 800214e:	2200      	movs	r2, #0
 8002150:	601a      	str	r2, [r3, #0]
 8002152:	605a      	str	r2, [r3, #4]
 8002154:	609a      	str	r2, [r3, #8]
 8002156:	60da      	str	r2, [r3, #12]
 8002158:	611a      	str	r2, [r3, #16]

  /* GPIO Ports Clock Enable */
  __HAL_RCC_GPIOE_CLK_ENABLE();
 800215a:	4b37      	ldr	r3, [pc, #220]	; (8002238 <MX_GPIO_Init+0xf4>)
 800215c:	695b      	ldr	r3, [r3, #20]
 800215e:	4a36      	ldr	r2, [pc, #216]	; (8002238 <MX_GPIO_Init+0xf4>)
 8002160:	f443 1300 	orr.w	r3, r3, #2097152	; 0x200000
 8002164:	6153      	str	r3, [r2, #20]
 8002166:	4b34      	ldr	r3, [pc, #208]	; (8002238 <MX_GPIO_Init+0xf4>)
 8002168:	695b      	ldr	r3, [r3, #20]
 800216a:	f403 1300 	and.w	r3, r3, #2097152	; 0x200000
 800216e:	613b      	str	r3, [r7, #16]
 8002170:	693b      	ldr	r3, [r7, #16]
  __HAL_RCC_GPIOC_CLK_ENABLE();
 8002172:	4b31      	ldr	r3, [pc, #196]	; (8002238 <MX_GPIO_Init+0xf4>)
 8002174:	695b      	ldr	r3, [r3, #20]
 8002176:	4a30      	ldr	r2, [pc, #192]	; (8002238 <MX_GPIO_Init+0xf4>)
 8002178:	f443 2300 	orr.w	r3, r3, #524288	; 0x80000
 800217c:	6153      	str	r3, [r2, #20]
 800217e:	4b2e      	ldr	r3, [pc, #184]	; (8002238 <MX_GPIO_Init+0xf4>)
 8002180:	695b      	ldr	r3, [r3, #20]
 8002182:	f403 2300 	and.w	r3, r3, #524288	; 0x80000
 8002186:	60fb      	str	r3, [r7, #12]
 8002188:	68fb      	ldr	r3, [r7, #12]
  __HAL_RCC_GPIOF_CLK_ENABLE();
 800218a:	4b2b      	ldr	r3, [pc, #172]	; (8002238 <MX_GPIO_Init+0xf4>)
 800218c:	695b      	ldr	r3, [r3, #20]
 800218e:	4a2a      	ldr	r2, [pc, #168]	; (8002238 <MX_GPIO_Init+0xf4>)
 8002190:	f443 0380 	orr.w	r3, r3, #4194304	; 0x400000
 8002194:	6153      	str	r3, [r2, #20]
 8002196:	4b28      	ldr	r3, [pc, #160]	; (8002238 <MX_GPIO_Init+0xf4>)
 8002198:	695b      	ldr	r3, [r3, #20]
 800219a:	f403 0380 	and.w	r3, r3, #4194304	; 0x400000
 800219e:	60bb      	str	r3, [r7, #8]
 80021a0:	68bb      	ldr	r3, [r7, #8]
  __HAL_RCC_GPIOA_CLK_ENABLE();
 80021a2:	4b25      	ldr	r3, [pc, #148]	; (8002238 <MX_GPIO_Init+0xf4>)
 80021a4:	695b      	ldr	r3, [r3, #20]
 80021a6:	4a24      	ldr	r2, [pc, #144]	; (8002238 <MX_GPIO_Init+0xf4>)
 80021a8:	f443 3300 	orr.w	r3, r3, #131072	; 0x20000
 80021ac:	6153      	str	r3, [r2, #20]
 80021ae:	4b22      	ldr	r3, [pc, #136]	; (8002238 <MX_GPIO_Init+0xf4>)
 80021b0:	695b      	ldr	r3, [r3, #20]
 80021b2:	f403 3300 	and.w	r3, r3, #131072	; 0x20000
 80021b6:	607b      	str	r3, [r7, #4]
 80021b8:	687b      	ldr	r3, [r7, #4]
  __HAL_RCC_GPIOB_CLK_ENABLE();
 80021ba:	4b1f      	ldr	r3, [pc, #124]	; (8002238 <MX_GPIO_Init+0xf4>)
 80021bc:	695b      	ldr	r3, [r3, #20]
 80021be:	4a1e      	ldr	r2, [pc, #120]	; (8002238 <MX_GPIO_Init+0xf4>)
 80021c0:	f443 2380 	orr.w	r3, r3, #262144	; 0x40000
 80021c4:	6153      	str	r3, [r2, #20]
 80021c6:	4b1c      	ldr	r3, [pc, #112]	; (8002238 <MX_GPIO_Init+0xf4>)
 80021c8:	695b      	ldr	r3, [r3, #20]
 80021ca:	f403 2380 	and.w	r3, r3, #262144	; 0x40000
 80021ce:	603b      	str	r3, [r7, #0]
 80021d0:	683b      	ldr	r3, [r7, #0]

  /*Configure GPIO pin Output Level */
  HAL_GPIO_WritePin(GPIOE, CS_I2C_SPI_Pin|LD4_Pin|LD3_Pin|LD5_Pin
 80021d2:	2200      	movs	r2, #0
 80021d4:	f64f 7108 	movw	r1, #65288	; 0xff08
 80021d8:	4818      	ldr	r0, [pc, #96]	; (800223c <MX_GPIO_Init+0xf8>)
 80021da:	f001 f917 	bl	800340c <HAL_GPIO_WritePin>
                          |LD7_Pin|LD9_Pin|LD10_Pin|LD8_Pin
                          |LD6_Pin, GPIO_PIN_RESET);

  /*Configure GPIO pins : DRDY_Pin MEMS_INT3_Pin MEMS_INT4_Pin MEMS_INT1_Pin
                           MEMS_INT2_Pin */
  GPIO_InitStruct.Pin = DRDY_Pin|MEMS_INT3_Pin|MEMS_INT4_Pin|MEMS_INT1_Pin
 80021de:	2337      	movs	r3, #55	; 0x37
 80021e0:	617b      	str	r3, [r7, #20]
                          |MEMS_INT2_Pin;
  GPIO_InitStruct.Mode = GPIO_MODE_EVT_RISING;
 80021e2:	f44f 1390 	mov.w	r3, #1179648	; 0x120000
 80021e6:	61bb      	str	r3, [r7, #24]
  GPIO_InitStruct.Pull = GPIO_NOPULL;
 80021e8:	2300      	movs	r3, #0
 80021ea:	61fb      	str	r3, [r7, #28]
  HAL_GPIO_Init(GPIOE, &GPIO_InitStruct);
 80021ec:	f107 0314 	add.w	r3, r7, #20
 80021f0:	4619      	mov	r1, r3
 80021f2:	4812      	ldr	r0, [pc, #72]	; (800223c <MX_GPIO_Init+0xf8>)
 80021f4:	f000 ff78 	bl	80030e8 <HAL_GPIO_Init>

  /*Configure GPIO pins : CS_I2C_SPI_Pin LD4_Pin LD3_Pin LD5_Pin
                           LD7_Pin LD9_Pin LD10_Pin LD8_Pin
                           LD6_Pin */
  GPIO_InitStruct.Pin = CS_I2C_SPI_Pin|LD4_Pin|LD3_Pin|LD5_Pin
 80021f8:	f64f 7308 	movw	r3, #65288	; 0xff08
 80021fc:	617b      	str	r3, [r7, #20]
                          |LD7_Pin|LD9_Pin|LD10_Pin|LD8_Pin
                          |LD6_Pin;
  GPIO_InitStruct.Mode = GPIO_MODE_OUTPUT_PP;
 80021fe:	2301      	movs	r3, #1
 8002200:	61bb      	str	r3, [r7, #24]
  GPIO_InitStruct.Pull = GPIO_NOPULL;
 8002202:	2300      	movs	r3, #0
 8002204:	61fb      	str	r3, [r7, #28]
  GPIO_InitStruct.Speed = GPIO_SPEED_FREQ_LOW;
 8002206:	2300      	movs	r3, #0
 8002208:	623b      	str	r3, [r7, #32]
  HAL_GPIO_Init(GPIOE, &GPIO_InitStruct);
 800220a:	f107 0314 	add.w	r3, r7, #20
 800220e:	4619      	mov	r1, r3
 8002210:	480a      	ldr	r0, [pc, #40]	; (800223c <MX_GPIO_Init+0xf8>)
 8002212:	f000 ff69 	bl	80030e8 <HAL_GPIO_Init>

  /*Configure GPIO pin : B1_Pin */
  GPIO_InitStruct.Pin = B1_Pin;
 8002216:	2301      	movs	r3, #1
 8002218:	617b      	str	r3, [r7, #20]
  GPIO_InitStruct.Mode = GPIO_MODE_INPUT;
 800221a:	2300      	movs	r3, #0
 800221c:	61bb      	str	r3, [r7, #24]
  GPIO_InitStruct.Pull = GPIO_NOPULL;
 800221e:	2300      	movs	r3, #0
 8002220:	61fb      	str	r3, [r7, #28]
  HAL_GPIO_Init(B1_GPIO_Port, &GPIO_InitStruct);
 8002222:	f107 0314 	add.w	r3, r7, #20
 8002226:	4619      	mov	r1, r3
 8002228:	f04f 4090 	mov.w	r0, #1207959552	; 0x48000000
 800222c:	f000 ff5c 	bl	80030e8 <HAL_GPIO_Init>

}
 8002230:	bf00      	nop
 8002232:	3728      	adds	r7, #40	; 0x28
 8002234:	46bd      	mov	sp, r7
 8002236:	bd80      	pop	{r7, pc}
 8002238:	40021000 	.word	0x40021000
 800223c:	48001000 	.word	0x48001000

08002240 <PTU_callback_function>:

/* USER CODE BEGIN 4 */
void PTU_callback_function(){
 8002240:	b580      	push	{r7, lr}
 8002242:	af00      	add	r7, sp, #0
	static uint8_t count = 0;
	if(count == 0){
 8002244:	4b07      	ldr	r3, [pc, #28]	; (8002264 <PTU_callback_function+0x24>)
 8002246:	781b      	ldrb	r3, [r3, #0]
 8002248:	2b00      	cmp	r3, #0
 800224a:	d106      	bne.n	800225a <PTU_callback_function+0x1a>
		//setup_transmission(string_to_send, &USART1_PORT);
		count++;
 800224c:	4b05      	ldr	r3, [pc, #20]	; (8002264 <PTU_callback_function+0x24>)
 800224e:	781b      	ldrb	r3, [r3, #0]
 8002250:	3301      	adds	r3, #1
 8002252:	b2da      	uxtb	r2, r3
 8002254:	4b03      	ldr	r3, [pc, #12]	; (8002264 <PTU_callback_function+0x24>)
 8002256:	701a      	strb	r2, [r3, #0]
		return;
 8002258:	e003      	b.n	8002262 <PTU_callback_function+0x22>
//		return;
//	}

//	LedRegister *led_register = ((uint8_t*)&(GPIOE->ODR)) + 1;
//	led_register->led_groups.led_pair_1 ^= 0b10;
	setup_transmission(string_to_send, &USART1_PORT);
 800225a:	4903      	ldr	r1, [pc, #12]	; (8002268 <PTU_callback_function+0x28>)
 800225c:	4803      	ldr	r0, [pc, #12]	; (800226c <PTU_callback_function+0x2c>)
 800225e:	f000 f9f9 	bl	8002654 <setup_transmission>
	// usart1_tx_push(string_to_send);
	// when called enable interrupts
	//enable_USART_interrupts(&USART1_PORT);
	// uint8_t *test = "new wtf hty\r\n";

}
 8002262:	bd80      	pop	{r7, pc}
 8002264:	200008c4 	.word	0x200008c4
 8002268:	200001f4 	.word	0x200001f4
 800226c:	20000000 	.word	0x20000000

08002270 <Error_Handler>:
/**
  * @brief  This function is executed in case of error occurrence.
  * @retval None
  */
void Error_Handler(void)
{
 8002270:	b480      	push	{r7}
 8002272:	af00      	add	r7, sp, #0
  \details Disables IRQ interrupts by setting the I-bit in the CPSR.
           Can only be executed in Privileged modes.
 */
__STATIC_FORCEINLINE void __disable_irq(void)
{
  __ASM volatile ("cpsid i" : : : "memory");
 8002274:	b672      	cpsid	i
}
 8002276:	bf00      	nop
  /* USER CODE BEGIN Error_Handler_Debug */
	/* User can add his own implementation to report the HAL error return state */
	__disable_irq();
	while (1)
 8002278:	e7fe      	b.n	8002278 <Error_Handler+0x8>
	...

0800227c <initialise_ptu_i2c>:

#include "ptu_definitions.h"

ACCELEROMETER_CFG_STRUCT accelerometer_cfg = {ADXL345_POWER_CTL, 0x08, ADXL345_DATA_FORMAT, 0x08};

void initialise_ptu_i2c(I2C_HandleTypeDef *i2c) {
 800227c:	b580      	push	{r7, lr}
 800227e:	b0d4      	sub	sp, #336	; 0x150
 8002280:	af04      	add	r7, sp, #16
 8002282:	f507 73a0 	add.w	r3, r7, #320	; 0x140
 8002286:	f5a3 739e 	sub.w	r3, r3, #316	; 0x13c
 800228a:	6018      	str	r0, [r3, #0]

	  /* USER CODE BEGIN 1 */
		uint8_t i2cBuf[2];
		uint8_t accdata[6];
		uint16_t x,y,z;
		uint8_t reg1a = 0x00;
 800228c:	2300      	movs	r3, #0
 800228e:	f887 3123 	strb.w	r3, [r7, #291]	; 0x123
		uint8_t reg2a = 0x00;
 8002292:	2300      	movs	r3, #0
 8002294:	f887 3122 	strb.w	r3, [r7, #290]	; 0x122
		uint8_t reg4a = 0x00;
 8002298:	2300      	movs	r3, #0
 800229a:	f887 313f 	strb.w	r3, [r7, #319]	; 0x13f

	  uint8_t ctrl1 = 0x00, ctrl4 = 0x00;
 800229e:	2300      	movs	r3, #0
 80022a0:	f887 313e 	strb.w	r3, [r7, #318]	; 0x13e
 80022a4:	2300      	movs	r3, #0
 80022a6:	f887 313d 	strb.w	r3, [r7, #317]	; 0x13d

	  HAL_StatusTypeDef return_value = 0x00;
 80022aa:	2300      	movs	r3, #0
 80022ac:	f887 313c 	strb.w	r3, [r7, #316]	; 0x13c
	  i2cBuf[0]=0x21;
	  i2cBuf[1]=0x38;
	  HAL_I2C_Master_Transmit(&hi2c1, gyro_wr, i2cBuf, 2, 10);
	*/
	  // bit0 = X bit1 = Y bit2 = Z bit 3 = PD = power down
	  uint8_t reg_1 = 0b00001111;
 80022b0:	230f      	movs	r3, #15
 80022b2:	f887 3121 	strb.w	r3, [r7, #289]	; 0x121
	  // Enable x, y, z and turn off power down:
	  HAL_I2C_Mem_Write(i2c, gyro_wr, L3G4200D_CTRL_REG1, 1, &reg_1, 1, 10);
 80022b6:	f507 73a0 	add.w	r3, r7, #320	; 0x140
 80022ba:	f5a3 709e 	sub.w	r0, r3, #316	; 0x13c
 80022be:	230a      	movs	r3, #10
 80022c0:	9302      	str	r3, [sp, #8]
 80022c2:	2301      	movs	r3, #1
 80022c4:	9301      	str	r3, [sp, #4]
 80022c6:	f207 1321 	addw	r3, r7, #289	; 0x121
 80022ca:	9300      	str	r3, [sp, #0]
 80022cc:	2301      	movs	r3, #1
 80022ce:	2220      	movs	r2, #32
 80022d0:	21d2      	movs	r1, #210	; 0xd2
 80022d2:	6800      	ldr	r0, [r0, #0]
 80022d4:	f001 f942 	bl	800355c <HAL_I2C_Mem_Write>


	  uint8_t reg_2 = 0b00000000;
 80022d8:	2300      	movs	r3, #0
 80022da:	f887 3120 	strb.w	r3, [r7, #288]	; 0x120
	  // HPF = high_pass filter
	  // If you'd like to adjust/use the HPF, you can edit the line below to configure CTRL_REG2:
	  HAL_I2C_Mem_Write(i2c, gyro_wr, L3G4200D_CTRL_REG2, 1, &reg_2, 1, 10);
 80022de:	f507 73a0 	add.w	r3, r7, #320	; 0x140
 80022e2:	f5a3 709e 	sub.w	r0, r3, #316	; 0x13c
 80022e6:	230a      	movs	r3, #10
 80022e8:	9302      	str	r3, [sp, #8]
 80022ea:	2301      	movs	r3, #1
 80022ec:	9301      	str	r3, [sp, #4]
 80022ee:	f507 7390 	add.w	r3, r7, #288	; 0x120
 80022f2:	9300      	str	r3, [sp, #0]
 80022f4:	2301      	movs	r3, #1
 80022f6:	2221      	movs	r2, #33	; 0x21
 80022f8:	21d2      	movs	r1, #210	; 0xd2
 80022fa:	6800      	ldr	r0, [r0, #0]
 80022fc:	f001 f92e 	bl	800355c <HAL_I2C_Mem_Write>

	  // interrupt enabled everyhting else in reg 3 disabled
	  // Configure CTRL_REG3 to generate data ready interrupt on INT2
	  // No interrupts used on INT1, if you'd like to configure INT1
	  // or INT2 otherwise, consult the datasheet:
	  HAL_I2C_Mem_Write(i2c, gyro_wr, L3G4200D_CTRL_REG3, 1, &reg_2, 1, 10);
 8002300:	f507 73a0 	add.w	r3, r7, #320	; 0x140
 8002304:	f5a3 709e 	sub.w	r0, r3, #316	; 0x13c
 8002308:	230a      	movs	r3, #10
 800230a:	9302      	str	r3, [sp, #8]
 800230c:	2301      	movs	r3, #1
 800230e:	9301      	str	r3, [sp, #4]
 8002310:	f507 7390 	add.w	r3, r7, #288	; 0x120
 8002314:	9300      	str	r3, [sp, #0]
 8002316:	2301      	movs	r3, #1
 8002318:	2222      	movs	r2, #34	; 0x22
 800231a:	21d2      	movs	r1, #210	; 0xd2
 800231c:	6800      	ldr	r0, [r0, #0]
 800231e:	f001 f91d 	bl	800355c <HAL_I2C_Mem_Write>

	  uint8_t reg_4 = 0b00000000;
 8002322:	2300      	movs	r3, #0
 8002324:	f887 311f 	strb.w	r3, [r7, #287]	; 0x11f
	  // CTRL_REG4 controls the full-scale range, among other things:
	  HAL_I2C_Mem_Write(i2c, gyro_wr, L3G4200D_CTRL_REG4, 1, &reg_4, 1, 10);
 8002328:	f507 73a0 	add.w	r3, r7, #320	; 0x140
 800232c:	f5a3 709e 	sub.w	r0, r3, #316	; 0x13c
 8002330:	230a      	movs	r3, #10
 8002332:	9302      	str	r3, [sp, #8]
 8002334:	2301      	movs	r3, #1
 8002336:	9301      	str	r3, [sp, #4]
 8002338:	f207 131f 	addw	r3, r7, #287	; 0x11f
 800233c:	9300      	str	r3, [sp, #0]
 800233e:	2301      	movs	r3, #1
 8002340:	2223      	movs	r2, #35	; 0x23
 8002342:	21d2      	movs	r1, #210	; 0xd2
 8002344:	6800      	ldr	r0, [r0, #0]
 8002346:	f001 f909 	bl	800355c <HAL_I2C_Mem_Write>
	  //writeRegister(gyro_Address, gyro_CTRL_REG4, 0b00110000);
	  //}

	  // CTRL_REG5 controls high-pass filtering of outputs, use it
	  // if you'd like:
	  uint8_t reg_5 = 0b00000000;
 800234a:	2300      	movs	r3, #0
 800234c:	f887 311e 	strb.w	r3, [r7, #286]	; 0x11e
	  HAL_I2C_Mem_Write(i2c, gyro_wr, L3G4200D_CTRL_REG5, 1, &reg_5, 1, 10);
 8002350:	f507 73a0 	add.w	r3, r7, #320	; 0x140
 8002354:	f5a3 709e 	sub.w	r0, r3, #316	; 0x13c
 8002358:	230a      	movs	r3, #10
 800235a:	9302      	str	r3, [sp, #8]
 800235c:	2301      	movs	r3, #1
 800235e:	9301      	str	r3, [sp, #4]
 8002360:	f507 738f 	add.w	r3, r7, #286	; 0x11e
 8002364:	9300      	str	r3, [sp, #0]
 8002366:	2301      	movs	r3, #1
 8002368:	2224      	movs	r2, #36	; 0x24
 800236a:	21d2      	movs	r1, #210	; 0xd2
 800236c:	6800      	ldr	r0, [r0, #0]
 800236e:	f001 f8f5 	bl	800355c <HAL_I2C_Mem_Write>




	  //trying to read from the same registers where we wrote in
	  HAL_I2C_Mem_Read(i2c,gyro_rd,0x20,1,&reg1a,1,10);
 8002372:	f507 73a0 	add.w	r3, r7, #320	; 0x140
 8002376:	f5a3 709e 	sub.w	r0, r3, #316	; 0x13c
 800237a:	230a      	movs	r3, #10
 800237c:	9302      	str	r3, [sp, #8]
 800237e:	2301      	movs	r3, #1
 8002380:	9301      	str	r3, [sp, #4]
 8002382:	f207 1323 	addw	r3, r7, #291	; 0x123
 8002386:	9300      	str	r3, [sp, #0]
 8002388:	2301      	movs	r3, #1
 800238a:	2220      	movs	r2, #32
 800238c:	21d3      	movs	r1, #211	; 0xd3
 800238e:	6800      	ldr	r0, [r0, #0]
 8002390:	f001 f9f8 	bl	8003784 <HAL_I2C_Mem_Read>
	  HAL_I2C_Mem_Read(i2c,gyro_rd,0x21,1,&reg2a,1,10);
 8002394:	f507 73a0 	add.w	r3, r7, #320	; 0x140
 8002398:	f5a3 709e 	sub.w	r0, r3, #316	; 0x13c
 800239c:	230a      	movs	r3, #10
 800239e:	9302      	str	r3, [sp, #8]
 80023a0:	2301      	movs	r3, #1
 80023a2:	9301      	str	r3, [sp, #4]
 80023a4:	f507 7391 	add.w	r3, r7, #290	; 0x122
 80023a8:	9300      	str	r3, [sp, #0]
 80023aa:	2301      	movs	r3, #1
 80023ac:	2221      	movs	r2, #33	; 0x21
 80023ae:	21d3      	movs	r1, #211	; 0xd3
 80023b0:	6800      	ldr	r0, [r0, #0]
 80023b2:	f001 f9e7 	bl	8003784 <HAL_I2C_Mem_Read>
	  HAL_I2C_Mem_Read(&hi2c1,ACC_I2C_ADDRESS_READ,0x23,1,&reg4a,1,10);

	*/

	//uint8_t status = 0x00;
	uint8_t ready = 0x00;
 80023b6:	2300      	movs	r3, #0
 80023b8:	f887 313b 	strb.w	r3, [r7, #315]	; 0x13b
	uint8_t return_status = 0x00;
 80023bc:	2300      	movs	r3, #0
 80023be:	f887 313a 	strb.w	r3, [r7, #314]	; 0x13a

	uint8_t val_1[2];
	uint16_t* val_1p = &val_1[0];
 80023c2:	f507 738e 	add.w	r3, r7, #284	; 0x11c
 80023c6:	f8c7 3134 	str.w	r3, [r7, #308]	; 0x134
	val_1p = 0x00;
 80023ca:	2300      	movs	r3, #0
 80023cc:	f8c7 3134 	str.w	r3, [r7, #308]	; 0x134

	uint8_t text_buffer[255];

	uint16_t val_2 = 0x00;
 80023d0:	2300      	movs	r3, #0
 80023d2:	f8a7 3132 	strh.w	r3, [r7, #306]	; 0x132
	uint16_t val_3 = 0x00;
 80023d6:	2300      	movs	r3, #0
 80023d8:	f8a7 3130 	strh.w	r3, [r7, #304]	; 0x130

	uint8_t Text[] = "Hello\r\n";
 80023dc:	f507 73a0 	add.w	r3, r7, #320	; 0x140
 80023e0:	f5a3 7396 	sub.w	r3, r3, #300	; 0x12c
 80023e4:	4a4d      	ldr	r2, [pc, #308]	; (800251c <initialise_ptu_i2c+0x2a0>)
 80023e6:	e892 0003 	ldmia.w	r2, {r0, r1}
 80023ea:	e883 0003 	stmia.w	r3, {r0, r1}
//	BSP_LED_Toggle(LED_GREEN);
	//BSP_GYRO_Init();
	//BSP_ACCELERO_Init();

	// reset lidar board
	uint8_t reset_value = 0x00;
 80023ee:	f507 73a0 	add.w	r3, r7, #320	; 0x140
 80023f2:	f2a3 132d 	subw	r3, r3, #301	; 0x12d
 80023f6:	2200      	movs	r2, #0
 80023f8:	701a      	strb	r2, [r3, #0]
	return_value = HAL_I2C_Mem_Write(i2c, LIDAR_WR, 0x00, 1, &reset_value, 1, 10);
 80023fa:	f507 73a0 	add.w	r3, r7, #320	; 0x140
 80023fe:	f5a3 709e 	sub.w	r0, r3, #316	; 0x13c
 8002402:	230a      	movs	r3, #10
 8002404:	9302      	str	r3, [sp, #8]
 8002406:	2301      	movs	r3, #1
 8002408:	9301      	str	r3, [sp, #4]
 800240a:	f107 0313 	add.w	r3, r7, #19
 800240e:	9300      	str	r3, [sp, #0]
 8002410:	2301      	movs	r3, #1
 8002412:	2200      	movs	r2, #0
 8002414:	21c4      	movs	r1, #196	; 0xc4
 8002416:	6800      	ldr	r0, [r0, #0]
 8002418:	f001 f8a0 	bl	800355c <HAL_I2C_Mem_Write>
 800241c:	4603      	mov	r3, r0
 800241e:	f887 313c 	strb.w	r3, [r7, #316]	; 0x13c




	// Turn on measurements in power register
	uint8_t areg_1 = 0b00001000;
 8002422:	f507 73a0 	add.w	r3, r7, #320	; 0x140
 8002426:	f5a3 7397 	sub.w	r3, r3, #302	; 0x12e
 800242a:	2208      	movs	r2, #8
 800242c:	701a      	strb	r2, [r3, #0]
	// Enable x, y, z and turn off power down:
	HAL_I2C_Mem_Write(i2c, accel_wr, ADXL345_POWER_CTL, 1, &areg_1, 1, 10);
 800242e:	f507 73a0 	add.w	r3, r7, #320	; 0x140
 8002432:	f5a3 709e 	sub.w	r0, r3, #316	; 0x13c
 8002436:	230a      	movs	r3, #10
 8002438:	9302      	str	r3, [sp, #8]
 800243a:	2301      	movs	r3, #1
 800243c:	9301      	str	r3, [sp, #4]
 800243e:	f107 0312 	add.w	r3, r7, #18
 8002442:	9300      	str	r3, [sp, #0]
 8002444:	2301      	movs	r3, #1
 8002446:	222d      	movs	r2, #45	; 0x2d
 8002448:	21a6      	movs	r1, #166	; 0xa6
 800244a:	6800      	ldr	r0, [r0, #0]
 800244c:	f001 f886 	bl	800355c <HAL_I2C_Mem_Write>

	// set the data register to full resolution i.e read every 4mg/LSB?
	uint8_t areg_2 = 0b00001000;
 8002450:	f507 73a0 	add.w	r3, r7, #320	; 0x140
 8002454:	f2a3 132f 	subw	r3, r3, #303	; 0x12f
 8002458:	2208      	movs	r2, #8
 800245a:	701a      	strb	r2, [r3, #0]
	HAL_I2C_Mem_Write(i2c, accel_wr, ADXL345_DATA_FORMAT, 1, &areg_2, 1, 10);
 800245c:	f507 73a0 	add.w	r3, r7, #320	; 0x140
 8002460:	f5a3 709e 	sub.w	r0, r3, #316	; 0x13c
 8002464:	230a      	movs	r3, #10
 8002466:	9302      	str	r3, [sp, #8]
 8002468:	2301      	movs	r3, #1
 800246a:	9301      	str	r3, [sp, #4]
 800246c:	f107 0311 	add.w	r3, r7, #17
 8002470:	9300      	str	r3, [sp, #0]
 8002472:	2301      	movs	r3, #1
 8002474:	2231      	movs	r2, #49	; 0x31
 8002476:	21a6      	movs	r1, #166	; 0xa6
 8002478:	6800      	ldr	r0, [r0, #0]
 800247a:	f001 f86f 	bl	800355c <HAL_I2C_Mem_Write>

	// accleration calibration
	// offset found to be 250 -8 18 note: the use of 2 compliment to send a -ve 8
	//
	uint8_t acc_offset_calibration[3] = {0x3, 0x01, 0xFE};
 800247e:	f507 73a0 	add.w	r3, r7, #320	; 0x140
 8002482:	f5a3 739a 	sub.w	r3, r3, #308	; 0x134
 8002486:	4a26      	ldr	r2, [pc, #152]	; (8002520 <initialise_ptu_i2c+0x2a4>)
 8002488:	6812      	ldr	r2, [r2, #0]
 800248a:	4611      	mov	r1, r2
 800248c:	8019      	strh	r1, [r3, #0]
 800248e:	3302      	adds	r3, #2
 8002490:	0c12      	lsrs	r2, r2, #16
 8002492:	701a      	strb	r2, [r3, #0]

	// Left here in case I want to start setting the data offset registers
	HAL_I2C_Mem_Write(i2c, accel_wr, ADXL345_OFSX, 1, acc_offset_calibration, 3, 10);
 8002494:	f507 73a0 	add.w	r3, r7, #320	; 0x140
 8002498:	f5a3 709e 	sub.w	r0, r3, #316	; 0x13c
 800249c:	230a      	movs	r3, #10
 800249e:	9302      	str	r3, [sp, #8]
 80024a0:	2303      	movs	r3, #3
 80024a2:	9301      	str	r3, [sp, #4]
 80024a4:	f107 030c 	add.w	r3, r7, #12
 80024a8:	9300      	str	r3, [sp, #0]
 80024aa:	2301      	movs	r3, #1
 80024ac:	221e      	movs	r2, #30
 80024ae:	21a6      	movs	r1, #166	; 0xa6
 80024b0:	6800      	ldr	r0, [r0, #0]
 80024b2:	f001 f853 	bl	800355c <HAL_I2C_Mem_Write>
	//HAL_I2C_Mem_Write(i2c, accel_wr, ADXL345_OFSY, 1, acc_offset_calibration[1], 1, 10);
	//HAL_I2C_Mem_Write(i2c, accel_wr, ADXL345_OFSZ, 1, acc_offset_calibration[2], 1, 10);

	// control register A values
	uint8_t register_setting_a = 0x78;
 80024b6:	f507 73a0 	add.w	r3, r7, #320	; 0x140
 80024ba:	f2a3 1335 	subw	r3, r3, #309	; 0x135
 80024be:	2278      	movs	r2, #120	; 0x78
 80024c0:	701a      	strb	r2, [r3, #0]
	// control register B values
	uint8_t register_setting_b = 0xA0;
 80024c2:	f507 73a0 	add.w	r3, r7, #320	; 0x140
 80024c6:	f5a3 739b 	sub.w	r3, r3, #310	; 0x136
 80024ca:	22a0      	movs	r2, #160	; 0xa0
 80024cc:	701a      	strb	r2, [r3, #0]


	HAL_I2C_Mem_Write(i2c, magnet_wr, 0x00, 1, &register_setting_a, 1, 100);
 80024ce:	f507 73a0 	add.w	r3, r7, #320	; 0x140
 80024d2:	f5a3 709e 	sub.w	r0, r3, #316	; 0x13c
 80024d6:	2364      	movs	r3, #100	; 0x64
 80024d8:	9302      	str	r3, [sp, #8]
 80024da:	2301      	movs	r3, #1
 80024dc:	9301      	str	r3, [sp, #4]
 80024de:	f107 030b 	add.w	r3, r7, #11
 80024e2:	9300      	str	r3, [sp, #0]
 80024e4:	2301      	movs	r3, #1
 80024e6:	2200      	movs	r2, #0
 80024e8:	213c      	movs	r1, #60	; 0x3c
 80024ea:	6800      	ldr	r0, [r0, #0]
 80024ec:	f001 f836 	bl	800355c <HAL_I2C_Mem_Write>

	HAL_I2C_Mem_Write(i2c, magnet_wr, 0x01, 1, &register_setting_b, 1, 100);
 80024f0:	f507 73a0 	add.w	r3, r7, #320	; 0x140
 80024f4:	f5a3 709e 	sub.w	r0, r3, #316	; 0x13c
 80024f8:	2364      	movs	r3, #100	; 0x64
 80024fa:	9302      	str	r3, [sp, #8]
 80024fc:	2301      	movs	r3, #1
 80024fe:	9301      	str	r3, [sp, #4]
 8002500:	f107 030a 	add.w	r3, r7, #10
 8002504:	9300      	str	r3, [sp, #0]
 8002506:	2301      	movs	r3, #1
 8002508:	2201      	movs	r2, #1
 800250a:	213c      	movs	r1, #60	; 0x3c
 800250c:	6800      	ldr	r0, [r0, #0]
 800250e:	f001 f825 	bl	800355c <HAL_I2C_Mem_Write>

}
 8002512:	bf00      	nop
 8002514:	f507 77a0 	add.w	r7, r7, #320	; 0x140
 8002518:	46bd      	mov	sp, r7
 800251a:	bd80      	pop	{r7, pc}
 800251c:	0800bc94 	.word	0x0800bc94
 8002520:	0800bc9c 	.word	0x0800bc9c

08002524 <__NVIC_EnableIRQ>:
  \details Enables a device specific interrupt in the NVIC interrupt controller.
  \param [in]      IRQn  Device specific interrupt number.
  \note    IRQn must not be negative.
 */
__STATIC_INLINE void __NVIC_EnableIRQ(IRQn_Type IRQn)
{
 8002524:	b480      	push	{r7}
 8002526:	b083      	sub	sp, #12
 8002528:	af00      	add	r7, sp, #0
 800252a:	4603      	mov	r3, r0
 800252c:	71fb      	strb	r3, [r7, #7]
  if ((int32_t)(IRQn) >= 0)
 800252e:	f997 3007 	ldrsb.w	r3, [r7, #7]
 8002532:	2b00      	cmp	r3, #0
 8002534:	db0b      	blt.n	800254e <__NVIC_EnableIRQ+0x2a>
  {
    NVIC->ISER[(((uint32_t)IRQn) >> 5UL)] = (uint32_t)(1UL << (((uint32_t)IRQn) & 0x1FUL));
 8002536:	79fb      	ldrb	r3, [r7, #7]
 8002538:	f003 021f 	and.w	r2, r3, #31
 800253c:	4907      	ldr	r1, [pc, #28]	; (800255c <__NVIC_EnableIRQ+0x38>)
 800253e:	f997 3007 	ldrsb.w	r3, [r7, #7]
 8002542:	095b      	lsrs	r3, r3, #5
 8002544:	2001      	movs	r0, #1
 8002546:	fa00 f202 	lsl.w	r2, r0, r2
 800254a:	f841 2023 	str.w	r2, [r1, r3, lsl #2]
  }
}
 800254e:	bf00      	nop
 8002550:	370c      	adds	r7, #12
 8002552:	46bd      	mov	sp, r7
 8002554:	f85d 7b04 	ldr.w	r7, [sp], #4
 8002558:	4770      	bx	lr
 800255a:	bf00      	nop
 800255c:	e000e100 	.word	0xe000e100

08002560 <SerialInitialise>:
};

void (*callback_function2)() = 0x00;

// Initialise the serial port using baudRate from an enumerated set
void SerialInitialise(uint32_t baudRate, SerialPort *serial_port, void (*completion_function)(uint32_t)) {
 8002560:	b580      	push	{r7, lr}
 8002562:	b086      	sub	sp, #24
 8002564:	af00      	add	r7, sp, #0
 8002566:	60f8      	str	r0, [r7, #12]
 8002568:	60b9      	str	r1, [r7, #8]
 800256a:	607a      	str	r2, [r7, #4]

	serial_port->completion_function = completion_function; // Assign function pointer to run when interrupt is called.
 800256c:	68bb      	ldr	r3, [r7, #8]
 800256e:	687a      	ldr	r2, [r7, #4]
 8002570:	63da      	str	r2, [r3, #60]	; 0x3c


	// Enable clock power, system configuration clock, and GPIOC.
	// Common to all UARTs.
	RCC->APB1ENR |= RCC_APB1ENR_PWREN;
 8002572:	4b36      	ldr	r3, [pc, #216]	; (800264c <SerialInitialise+0xec>)
 8002574:	69db      	ldr	r3, [r3, #28]
 8002576:	4a35      	ldr	r2, [pc, #212]	; (800264c <SerialInitialise+0xec>)
 8002578:	f043 5380 	orr.w	r3, r3, #268435456	; 0x10000000
 800257c:	61d3      	str	r3, [r2, #28]
	RCC->APB2ENR |= RCC_APB2ENR_SYSCFGEN;
 800257e:	4b33      	ldr	r3, [pc, #204]	; (800264c <SerialInitialise+0xec>)
 8002580:	699b      	ldr	r3, [r3, #24]
 8002582:	4a32      	ldr	r2, [pc, #200]	; (800264c <SerialInitialise+0xec>)
 8002584:	f043 0301 	orr.w	r3, r3, #1
 8002588:	6193      	str	r3, [r2, #24]

	// Select & assign correct GPIO port.
	switch(serial_port->SerialPortGPIO) {
 800258a:	68bb      	ldr	r3, [r7, #8]
 800258c:	6a1b      	ldr	r3, [r3, #32]
 800258e:	2b02      	cmp	r3, #2
 8002590:	d106      	bne.n	80025a0 <SerialInitialise+0x40>
		case SERIAL_GPIO_C:
			RCC->AHBENR |= RCC_AHBENR_GPIOCEN;
 8002592:	4b2e      	ldr	r3, [pc, #184]	; (800264c <SerialInitialise+0xec>)
 8002594:	695b      	ldr	r3, [r3, #20]
 8002596:	4a2d      	ldr	r2, [pc, #180]	; (800264c <SerialInitialise+0xec>)
 8002598:	f443 2300 	orr.w	r3, r3, #524288	; 0x80000
 800259c:	6153      	str	r3, [r2, #20]
			break;
 800259e:	e000      	b.n	80025a2 <SerialInitialise+0x42>
		default:
			break;
 80025a0:	bf00      	nop
	}

	// Set pin mode for GPIO port.
	*(serial_port->SerialPinModeRegister) = serial_port->SerialPinModeValue;
 80025a2:	68bb      	ldr	r3, [r7, #8]
 80025a4:	6a5b      	ldr	r3, [r3, #36]	; 0x24
 80025a6:	68ba      	ldr	r2, [r7, #8]
 80025a8:	6a92      	ldr	r2, [r2, #40]	; 0x28
 80025aa:	601a      	str	r2, [r3, #0]

	// Enable high speed clock for GPIOC.
	*(serial_port->SerialPinSpeedRegister) = serial_port->SerialPinSpeedValue;
 80025ac:	68bb      	ldr	r3, [r7, #8]
 80025ae:	6adb      	ldr	r3, [r3, #44]	; 0x2c
 80025b0:	68ba      	ldr	r2, [r7, #8]
 80025b2:	6b12      	ldr	r2, [r2, #48]	; 0x30
 80025b4:	601a      	str	r2, [r3, #0]

	// Set alternate function to enable USART to an external pin.
	*(serial_port->SerialPinAlternatePinRegister) = serial_port->SerialPinAlternatePinValue;
 80025b6:	68bb      	ldr	r3, [r7, #8]
 80025b8:	6b5b      	ldr	r3, [r3, #52]	; 0x34
 80025ba:	68ba      	ldr	r2, [r7, #8]
 80025bc:	f892 2038 	ldrb.w	r2, [r2, #56]	; 0x38
 80025c0:	b2d2      	uxtb	r2, r2
 80025c2:	701a      	strb	r2, [r3, #0]

	// Enable output regulation timer to control baud rate.
	*(serial_port->TimerEnableRegister) |= serial_port->TimerEnableMask;
 80025c4:	68bb      	ldr	r3, [r7, #8]
 80025c6:	69d9      	ldr	r1, [r3, #28]
 80025c8:	68bb      	ldr	r3, [r7, #8]
 80025ca:	699b      	ldr	r3, [r3, #24]
 80025cc:	681a      	ldr	r2, [r3, #0]
 80025ce:	68bb      	ldr	r3, [r7, #8]
 80025d0:	699b      	ldr	r3, [r3, #24]
 80025d2:	430a      	orrs	r2, r1
 80025d4:	601a      	str	r2, [r3, #0]

	// Set bead Rate. Only 16 bits used.
	uint16_t *baud_rate_config = ((uint16_t*)serial_port->BaudRate);
 80025d6:	68bb      	ldr	r3, [r7, #8]
 80025d8:	681b      	ldr	r3, [r3, #0]
 80025da:	617b      	str	r3, [r7, #20]


	// Baud rate calculation:
	switch(baudRate) {
 80025dc:	68fb      	ldr	r3, [r7, #12]
 80025de:	2b04      	cmp	r3, #4
 80025e0:	d823      	bhi.n	800262a <SerialInitialise+0xca>
 80025e2:	a201      	add	r2, pc, #4	; (adr r2, 80025e8 <SerialInitialise+0x88>)
 80025e4:	f852 f023 	ldr.w	pc, [r2, r3, lsl #2]
 80025e8:	080025fd 	.word	0x080025fd
 80025ec:	08002607 	.word	0x08002607
 80025f0:	08002611 	.word	0x08002611
 80025f4:	08002619 	.word	0x08002619
 80025f8:	08002621 	.word	0x08002621
		case BAUD_9600:
			*baud_rate_config = 840;
 80025fc:	697b      	ldr	r3, [r7, #20]
 80025fe:	f44f 7252 	mov.w	r2, #840	; 0x348
 8002602:	801a      	strh	r2, [r3, #0]
			break;
 8002604:	e011      	b.n	800262a <SerialInitialise+0xca>
		case BAUD_19200:
			*baud_rate_config = 420;
 8002606:	697b      	ldr	r3, [r7, #20]
 8002608:	f44f 72d2 	mov.w	r2, #420	; 0x1a4
 800260c:	801a      	strh	r2, [r3, #0]
			break;
 800260e:	e00c      	b.n	800262a <SerialInitialise+0xca>
		case BAUD_38400:
			*baud_rate_config = 210;
 8002610:	697b      	ldr	r3, [r7, #20]
 8002612:	22d2      	movs	r2, #210	; 0xd2
 8002614:	801a      	strh	r2, [r3, #0]
			break;
 8002616:	e008      	b.n	800262a <SerialInitialise+0xca>
		case BAUD_57600:
			*baud_rate_config = 140;  // 57600 at 8MHz
 8002618:	697b      	ldr	r3, [r7, #20]
 800261a:	228c      	movs	r2, #140	; 0x8c
 800261c:	801a      	strh	r2, [r3, #0]
			break;
 800261e:	e004      	b.n	800262a <SerialInitialise+0xca>
		case BAUD_115200:
			*baud_rate_config = 0x46*0x06;  // 115200 at 8MHz
 8002620:	697b      	ldr	r3, [r7, #20]
 8002622:	f44f 72d2 	mov.w	r2, #420	; 0x1a4
 8002626:	801a      	strh	r2, [r3, #0]
			break;
 8002628:	bf00      	nop
	}


	// Enable serial port for tx and rx functionality.
	*(serial_port->ControlRegister1) |= USART_CR1_TE | USART_CR1_RE | USART_CR1_UE | USART_CR1_RXNEIE;
 800262a:	68bb      	ldr	r3, [r7, #8]
 800262c:	685b      	ldr	r3, [r3, #4]
 800262e:	681a      	ldr	r2, [r3, #0]
 8002630:	68bb      	ldr	r3, [r7, #8]
 8002632:	685b      	ldr	r3, [r3, #4]
 8002634:	f042 022d 	orr.w	r2, r2, #45	; 0x2d
 8002638:	601a      	str	r2, [r3, #0]

	callback_function2 = completion_function;
 800263a:	4a05      	ldr	r2, [pc, #20]	; (8002650 <SerialInitialise+0xf0>)
 800263c:	687b      	ldr	r3, [r7, #4]
 800263e:	6013      	str	r3, [r2, #0]

	 EnableInterrupt(); // Enable interrupts for serial port.
 8002640:	f000 f86c 	bl	800271c <EnableInterrupt>
}
 8002644:	bf00      	nop
 8002646:	3718      	adds	r7, #24
 8002648:	46bd      	mov	sp, r7
 800264a:	bd80      	pop	{r7, pc}
 800264c:	40021000 	.word	0x40021000
 8002650:	200008c8 	.word	0x200008c8

08002654 <setup_transmission>:

volatile static uint8_t *buffer;
static uint8_t *start;
static SerialPort *Saved_UART;

void setup_transmission(volatile uint8_t* string, SerialPort *serial_port){
 8002654:	b480      	push	{r7}
 8002656:	b083      	sub	sp, #12
 8002658:	af00      	add	r7, sp, #0
 800265a:	6078      	str	r0, [r7, #4]
 800265c:	6039      	str	r1, [r7, #0]
	Saved_UART = serial_port;
 800265e:	4a12      	ldr	r2, [pc, #72]	; (80026a8 <setup_transmission+0x54>)
 8002660:	683b      	ldr	r3, [r7, #0]
 8002662:	6013      	str	r3, [r2, #0]
	buffer = string;
 8002664:	4a11      	ldr	r2, [pc, #68]	; (80026ac <setup_transmission+0x58>)
 8002666:	687b      	ldr	r3, [r7, #4]
 8002668:	6013      	str	r3, [r2, #0]
	*(Saved_UART->ControlRegister1) |= USART_CR1_TXEIE;
 800266a:	4b0f      	ldr	r3, [pc, #60]	; (80026a8 <setup_transmission+0x54>)
 800266c:	681b      	ldr	r3, [r3, #0]
 800266e:	685b      	ldr	r3, [r3, #4]
 8002670:	681a      	ldr	r2, [r3, #0]
 8002672:	4b0d      	ldr	r3, [pc, #52]	; (80026a8 <setup_transmission+0x54>)
 8002674:	681b      	ldr	r3, [r3, #0]
 8002676:	685b      	ldr	r3, [r3, #4]
 8002678:	f042 0280 	orr.w	r2, r2, #128	; 0x80
 800267c:	601a      	str	r2, [r3, #0]
	*(Saved_UART->DataOutputRegister) = *buffer;
 800267e:	4b0b      	ldr	r3, [pc, #44]	; (80026ac <setup_transmission+0x58>)
 8002680:	681b      	ldr	r3, [r3, #0]
 8002682:	781b      	ldrb	r3, [r3, #0]
 8002684:	b2da      	uxtb	r2, r3
 8002686:	4b08      	ldr	r3, [pc, #32]	; (80026a8 <setup_transmission+0x54>)
 8002688:	681b      	ldr	r3, [r3, #0]
 800268a:	695b      	ldr	r3, [r3, #20]
 800268c:	b292      	uxth	r2, r2
 800268e:	801a      	strh	r2, [r3, #0]
	buffer++;
 8002690:	4b06      	ldr	r3, [pc, #24]	; (80026ac <setup_transmission+0x58>)
 8002692:	681b      	ldr	r3, [r3, #0]
 8002694:	3301      	adds	r3, #1
 8002696:	4a05      	ldr	r2, [pc, #20]	; (80026ac <setup_transmission+0x58>)
 8002698:	6013      	str	r3, [r2, #0]
	return;
 800269a:	bf00      	nop
}
 800269c:	370c      	adds	r7, #12
 800269e:	46bd      	mov	sp, r7
 80026a0:	f85d 7b04 	ldr.w	r7, [sp], #4
 80026a4:	4770      	bx	lr
 80026a6:	bf00      	nop
 80026a8:	200008d0 	.word	0x200008d0
 80026ac:	200008cc 	.word	0x200008cc

080026b0 <USART1_IRQHandler>:
	*(serial_port->DataOutputRegister) = *buffer;
	buffer++;
	return;
}

void USART1_IRQHandler(){
 80026b0:	b480      	push	{r7}
 80026b2:	af00      	add	r7, sp, #0
	*(Saved_UART->StatusRegister) ^= USART_ISR_TC;
 80026b4:	4b17      	ldr	r3, [pc, #92]	; (8002714 <USART1_IRQHandler+0x64>)
 80026b6:	681b      	ldr	r3, [r3, #0]
 80026b8:	689b      	ldr	r3, [r3, #8]
 80026ba:	681a      	ldr	r2, [r3, #0]
 80026bc:	4b15      	ldr	r3, [pc, #84]	; (8002714 <USART1_IRQHandler+0x64>)
 80026be:	681b      	ldr	r3, [r3, #0]
 80026c0:	689b      	ldr	r3, [r3, #8]
 80026c2:	f082 0240 	eor.w	r2, r2, #64	; 0x40
 80026c6:	601a      	str	r2, [r3, #0]
	if(*buffer){
 80026c8:	4b13      	ldr	r3, [pc, #76]	; (8002718 <USART1_IRQHandler+0x68>)
 80026ca:	681b      	ldr	r3, [r3, #0]
 80026cc:	781b      	ldrb	r3, [r3, #0]
 80026ce:	b2db      	uxtb	r3, r3
 80026d0:	2b00      	cmp	r3, #0
 80026d2:	d00e      	beq.n	80026f2 <USART1_IRQHandler+0x42>
		*(Saved_UART->DataOutputRegister) = *buffer;
 80026d4:	4b10      	ldr	r3, [pc, #64]	; (8002718 <USART1_IRQHandler+0x68>)
 80026d6:	681b      	ldr	r3, [r3, #0]
 80026d8:	781b      	ldrb	r3, [r3, #0]
 80026da:	b2da      	uxtb	r2, r3
 80026dc:	4b0d      	ldr	r3, [pc, #52]	; (8002714 <USART1_IRQHandler+0x64>)
 80026de:	681b      	ldr	r3, [r3, #0]
 80026e0:	695b      	ldr	r3, [r3, #20]
 80026e2:	b292      	uxth	r2, r2
 80026e4:	801a      	strh	r2, [r3, #0]
		buffer++;
 80026e6:	4b0c      	ldr	r3, [pc, #48]	; (8002718 <USART1_IRQHandler+0x68>)
 80026e8:	681b      	ldr	r3, [r3, #0]
 80026ea:	3301      	adds	r3, #1
 80026ec:	4a0a      	ldr	r2, [pc, #40]	; (8002718 <USART1_IRQHandler+0x68>)
 80026ee:	6013      	str	r3, [r2, #0]
		return;
 80026f0:	e00c      	b.n	800270c <USART1_IRQHandler+0x5c>
	}
	*(Saved_UART->ControlRegister1) ^= USART_CR1_TXEIE;
 80026f2:	4b08      	ldr	r3, [pc, #32]	; (8002714 <USART1_IRQHandler+0x64>)
 80026f4:	681b      	ldr	r3, [r3, #0]
 80026f6:	685b      	ldr	r3, [r3, #4]
 80026f8:	681a      	ldr	r2, [r3, #0]
 80026fa:	4b06      	ldr	r3, [pc, #24]	; (8002714 <USART1_IRQHandler+0x64>)
 80026fc:	681b      	ldr	r3, [r3, #0]
 80026fe:	685b      	ldr	r3, [r3, #4]
 8002700:	f082 0280 	eor.w	r2, r2, #128	; 0x80
 8002704:	601a      	str	r2, [r3, #0]
	buffer = 0x00;
 8002706:	4b04      	ldr	r3, [pc, #16]	; (8002718 <USART1_IRQHandler+0x68>)
 8002708:	2200      	movs	r2, #0
 800270a:	601a      	str	r2, [r3, #0]
}
 800270c:	46bd      	mov	sp, r7
 800270e:	f85d 7b04 	ldr.w	r7, [sp], #4
 8002712:	4770      	bx	lr
 8002714:	200008d0 	.word	0x200008d0
 8002718:	200008cc 	.word	0x200008cc

0800271c <EnableInterrupt>:
//	}



// Enable interrupts for USART1 rx functionality.
void EnableInterrupt() {
 800271c:	b580      	push	{r7, lr}
 800271e:	af00      	add	r7, sp, #0
  __ASM volatile ("cpsid i" : : : "memory");
 8002720:	b672      	cpsid	i
}
 8002722:	bf00      	nop

	__disable_irq(); // Disable the interrupts while editing settings.

	// Enable the system configuration controller (SYSCFG in RCC).
	RCC->APB2ENR |= RCC_APB2ENR_SYSCFGEN;
 8002724:	4b0e      	ldr	r3, [pc, #56]	; (8002760 <EnableInterrupt+0x44>)
 8002726:	699b      	ldr	r3, [r3, #24]
 8002728:	4a0d      	ldr	r2, [pc, #52]	; (8002760 <EnableInterrupt+0x44>)
 800272a:	f043 0301 	orr.w	r3, r3, #1
 800272e:	6193      	str	r3, [r2, #24]

	//////USART1->CR1 |= USART_CR1_RXNEIE; // Enable RXNE (Receive Data Register Not Empty) interrupt.

    // Configure EXTI line for USART1.
    SYSCFG->EXTICR[1] &= ~SYSCFG_EXTICR2_EXTI5_Msk; // Clear EXTI5, remove previous settings.
 8002730:	4b0c      	ldr	r3, [pc, #48]	; (8002764 <EnableInterrupt+0x48>)
 8002732:	68db      	ldr	r3, [r3, #12]
 8002734:	4a0b      	ldr	r2, [pc, #44]	; (8002764 <EnableInterrupt+0x48>)
 8002736:	f023 03f0 	bic.w	r3, r3, #240	; 0xf0
 800273a:	60d3      	str	r3, [r2, #12]
    SYSCFG->EXTICR[1] |= SYSCFG_EXTICR2_EXTI5_PA; // Set EXTI5 bits to PA for  (USART1)
 800273c:	4b09      	ldr	r3, [pc, #36]	; (8002764 <EnableInterrupt+0x48>)
 800273e:	4a09      	ldr	r2, [pc, #36]	; (8002764 <EnableInterrupt+0x48>)
 8002740:	68db      	ldr	r3, [r3, #12]
 8002742:	60d3      	str	r3, [r2, #12]

    // Enable EXTI5 interrupt (corresponding to USART1).
    EXTI->IMR |= EXTI_IMR_MR5; // Enable interrupt on EXTI line 5 (corresponding to PA5/USART1).
 8002744:	4b08      	ldr	r3, [pc, #32]	; (8002768 <EnableInterrupt+0x4c>)
 8002746:	681b      	ldr	r3, [r3, #0]
 8002748:	4a07      	ldr	r2, [pc, #28]	; (8002768 <EnableInterrupt+0x4c>)
 800274a:	f043 0320 	orr.w	r3, r3, #32
 800274e:	6013      	str	r3, [r2, #0]

	// Tell the NVIC module that EXTI0 interrupts should be handled.
	// NVIC_SetPriority(USART1_IRQn, 3); // Set priority to 5, fairly low.
	NVIC_EnableIRQ(USART1_IRQn);
 8002750:	2025      	movs	r0, #37	; 0x25
 8002752:	f7ff fee7 	bl	8002524 <__NVIC_EnableIRQ>
  __ASM volatile ("cpsie i" : : : "memory");
 8002756:	b662      	cpsie	i
}
 8002758:	bf00      	nop

	__enable_irq(); // Re-enable all interrupts now that we are finished editing settings.
}
 800275a:	bf00      	nop
 800275c:	bd80      	pop	{r7, pc}
 800275e:	bf00      	nop
 8002760:	40021000 	.word	0x40021000
 8002764:	40010000 	.word	0x40010000
 8002768:	40010400 	.word	0x40010400

0800276c <HAL_MspInit>:
void HAL_TIM_MspPostInit(TIM_HandleTypeDef *htim);
                    /**
  * Initializes the Global MSP.
  */
void HAL_MspInit(void)
{
 800276c:	b580      	push	{r7, lr}
 800276e:	b082      	sub	sp, #8
 8002770:	af00      	add	r7, sp, #0
  /* USER CODE BEGIN MspInit 0 */

  /* USER CODE END MspInit 0 */

  __HAL_RCC_SYSCFG_CLK_ENABLE();
 8002772:	4b0f      	ldr	r3, [pc, #60]	; (80027b0 <HAL_MspInit+0x44>)
 8002774:	699b      	ldr	r3, [r3, #24]
 8002776:	4a0e      	ldr	r2, [pc, #56]	; (80027b0 <HAL_MspInit+0x44>)
 8002778:	f043 0301 	orr.w	r3, r3, #1
 800277c:	6193      	str	r3, [r2, #24]
 800277e:	4b0c      	ldr	r3, [pc, #48]	; (80027b0 <HAL_MspInit+0x44>)
 8002780:	699b      	ldr	r3, [r3, #24]
 8002782:	f003 0301 	and.w	r3, r3, #1
 8002786:	607b      	str	r3, [r7, #4]
 8002788:	687b      	ldr	r3, [r7, #4]
  __HAL_RCC_PWR_CLK_ENABLE();
 800278a:	4b09      	ldr	r3, [pc, #36]	; (80027b0 <HAL_MspInit+0x44>)
 800278c:	69db      	ldr	r3, [r3, #28]
 800278e:	4a08      	ldr	r2, [pc, #32]	; (80027b0 <HAL_MspInit+0x44>)
 8002790:	f043 5380 	orr.w	r3, r3, #268435456	; 0x10000000
 8002794:	61d3      	str	r3, [r2, #28]
 8002796:	4b06      	ldr	r3, [pc, #24]	; (80027b0 <HAL_MspInit+0x44>)
 8002798:	69db      	ldr	r3, [r3, #28]
 800279a:	f003 5380 	and.w	r3, r3, #268435456	; 0x10000000
 800279e:	603b      	str	r3, [r7, #0]
 80027a0:	683b      	ldr	r3, [r7, #0]

  HAL_NVIC_SetPriorityGrouping(NVIC_PRIORITYGROUP_0);
 80027a2:	2007      	movs	r0, #7
 80027a4:	f000 fc5e 	bl	8003064 <HAL_NVIC_SetPriorityGrouping>
  /* System interrupt init*/

  /* USER CODE BEGIN MspInit 1 */

  /* USER CODE END MspInit 1 */
}
 80027a8:	bf00      	nop
 80027aa:	3708      	adds	r7, #8
 80027ac:	46bd      	mov	sp, r7
 80027ae:	bd80      	pop	{r7, pc}
 80027b0:	40021000 	.word	0x40021000

080027b4 <HAL_I2C_MspInit>:
* This function configures the hardware resources used in this example
* @param hi2c: I2C handle pointer
* @retval None
*/
void HAL_I2C_MspInit(I2C_HandleTypeDef* hi2c)
{
 80027b4:	b580      	push	{r7, lr}
 80027b6:	b08c      	sub	sp, #48	; 0x30
 80027b8:	af00      	add	r7, sp, #0
 80027ba:	6078      	str	r0, [r7, #4]
  GPIO_InitTypeDef GPIO_InitStruct = {0};
 80027bc:	f107 031c 	add.w	r3, r7, #28
 80027c0:	2200      	movs	r2, #0
 80027c2:	601a      	str	r2, [r3, #0]
 80027c4:	605a      	str	r2, [r3, #4]
 80027c6:	609a      	str	r2, [r3, #8]
 80027c8:	60da      	str	r2, [r3, #12]
 80027ca:	611a      	str	r2, [r3, #16]
  if(hi2c->Instance==I2C1)
 80027cc:	687b      	ldr	r3, [r7, #4]
 80027ce:	681b      	ldr	r3, [r3, #0]
 80027d0:	4a2f      	ldr	r2, [pc, #188]	; (8002890 <HAL_I2C_MspInit+0xdc>)
 80027d2:	4293      	cmp	r3, r2
 80027d4:	d128      	bne.n	8002828 <HAL_I2C_MspInit+0x74>
  {
  /* USER CODE BEGIN I2C1_MspInit 0 */

  /* USER CODE END I2C1_MspInit 0 */

    __HAL_RCC_GPIOB_CLK_ENABLE();
 80027d6:	4b2f      	ldr	r3, [pc, #188]	; (8002894 <HAL_I2C_MspInit+0xe0>)
 80027d8:	695b      	ldr	r3, [r3, #20]
 80027da:	4a2e      	ldr	r2, [pc, #184]	; (8002894 <HAL_I2C_MspInit+0xe0>)
 80027dc:	f443 2380 	orr.w	r3, r3, #262144	; 0x40000
 80027e0:	6153      	str	r3, [r2, #20]
 80027e2:	4b2c      	ldr	r3, [pc, #176]	; (8002894 <HAL_I2C_MspInit+0xe0>)
 80027e4:	695b      	ldr	r3, [r3, #20]
 80027e6:	f403 2380 	and.w	r3, r3, #262144	; 0x40000
 80027ea:	61bb      	str	r3, [r7, #24]
 80027ec:	69bb      	ldr	r3, [r7, #24]
    /**I2C1 GPIO Configuration
    PB6     ------> I2C1_SCL
    PB7     ------> I2C1_SDA
    */
    GPIO_InitStruct.Pin = I2C1_SCL_Pin|I2C1_SDA_Pin;
 80027ee:	23c0      	movs	r3, #192	; 0xc0
 80027f0:	61fb      	str	r3, [r7, #28]
    GPIO_InitStruct.Mode = GPIO_MODE_AF_OD;
 80027f2:	2312      	movs	r3, #18
 80027f4:	623b      	str	r3, [r7, #32]
    GPIO_InitStruct.Pull = GPIO_PULLUP;
 80027f6:	2301      	movs	r3, #1
 80027f8:	627b      	str	r3, [r7, #36]	; 0x24
    GPIO_InitStruct.Speed = GPIO_SPEED_FREQ_HIGH;
 80027fa:	2303      	movs	r3, #3
 80027fc:	62bb      	str	r3, [r7, #40]	; 0x28
    GPIO_InitStruct.Alternate = GPIO_AF4_I2C1;
 80027fe:	2304      	movs	r3, #4
 8002800:	62fb      	str	r3, [r7, #44]	; 0x2c
    HAL_GPIO_Init(GPIOB, &GPIO_InitStruct);
 8002802:	f107 031c 	add.w	r3, r7, #28
 8002806:	4619      	mov	r1, r3
 8002808:	4823      	ldr	r0, [pc, #140]	; (8002898 <HAL_I2C_MspInit+0xe4>)
 800280a:	f000 fc6d 	bl	80030e8 <HAL_GPIO_Init>

    /* Peripheral clock enable */
    __HAL_RCC_I2C1_CLK_ENABLE();
 800280e:	4b21      	ldr	r3, [pc, #132]	; (8002894 <HAL_I2C_MspInit+0xe0>)
 8002810:	69db      	ldr	r3, [r3, #28]
 8002812:	4a20      	ldr	r2, [pc, #128]	; (8002894 <HAL_I2C_MspInit+0xe0>)
 8002814:	f443 1300 	orr.w	r3, r3, #2097152	; 0x200000
 8002818:	61d3      	str	r3, [r2, #28]
 800281a:	4b1e      	ldr	r3, [pc, #120]	; (8002894 <HAL_I2C_MspInit+0xe0>)
 800281c:	69db      	ldr	r3, [r3, #28]
 800281e:	f403 1300 	and.w	r3, r3, #2097152	; 0x200000
 8002822:	617b      	str	r3, [r7, #20]
 8002824:	697b      	ldr	r3, [r7, #20]
  /* USER CODE BEGIN I2C2_MspInit 1 */

  /* USER CODE END I2C2_MspInit 1 */
  }

}
 8002826:	e02e      	b.n	8002886 <HAL_I2C_MspInit+0xd2>
  else if(hi2c->Instance==I2C2)
 8002828:	687b      	ldr	r3, [r7, #4]
 800282a:	681b      	ldr	r3, [r3, #0]
 800282c:	4a1b      	ldr	r2, [pc, #108]	; (800289c <HAL_I2C_MspInit+0xe8>)
 800282e:	4293      	cmp	r3, r2
 8002830:	d129      	bne.n	8002886 <HAL_I2C_MspInit+0xd2>
    __HAL_RCC_GPIOA_CLK_ENABLE();
 8002832:	4b18      	ldr	r3, [pc, #96]	; (8002894 <HAL_I2C_MspInit+0xe0>)
 8002834:	695b      	ldr	r3, [r3, #20]
 8002836:	4a17      	ldr	r2, [pc, #92]	; (8002894 <HAL_I2C_MspInit+0xe0>)
 8002838:	f443 3300 	orr.w	r3, r3, #131072	; 0x20000
 800283c:	6153      	str	r3, [r2, #20]
 800283e:	4b15      	ldr	r3, [pc, #84]	; (8002894 <HAL_I2C_MspInit+0xe0>)
 8002840:	695b      	ldr	r3, [r3, #20]
 8002842:	f403 3300 	and.w	r3, r3, #131072	; 0x20000
 8002846:	613b      	str	r3, [r7, #16]
 8002848:	693b      	ldr	r3, [r7, #16]
    GPIO_InitStruct.Pin = GPIO_PIN_9|GPIO_PIN_10;
 800284a:	f44f 63c0 	mov.w	r3, #1536	; 0x600
 800284e:	61fb      	str	r3, [r7, #28]
    GPIO_InitStruct.Mode = GPIO_MODE_AF_OD;
 8002850:	2312      	movs	r3, #18
 8002852:	623b      	str	r3, [r7, #32]
    GPIO_InitStruct.Pull = GPIO_PULLUP;
 8002854:	2301      	movs	r3, #1
 8002856:	627b      	str	r3, [r7, #36]	; 0x24
    GPIO_InitStruct.Speed = GPIO_SPEED_FREQ_HIGH;
 8002858:	2303      	movs	r3, #3
 800285a:	62bb      	str	r3, [r7, #40]	; 0x28
    GPIO_InitStruct.Alternate = GPIO_AF4_I2C2;
 800285c:	2304      	movs	r3, #4
 800285e:	62fb      	str	r3, [r7, #44]	; 0x2c
    HAL_GPIO_Init(GPIOA, &GPIO_InitStruct);
 8002860:	f107 031c 	add.w	r3, r7, #28
 8002864:	4619      	mov	r1, r3
 8002866:	f04f 4090 	mov.w	r0, #1207959552	; 0x48000000
 800286a:	f000 fc3d 	bl	80030e8 <HAL_GPIO_Init>
    __HAL_RCC_I2C2_CLK_ENABLE();
 800286e:	4b09      	ldr	r3, [pc, #36]	; (8002894 <HAL_I2C_MspInit+0xe0>)
 8002870:	69db      	ldr	r3, [r3, #28]
 8002872:	4a08      	ldr	r2, [pc, #32]	; (8002894 <HAL_I2C_MspInit+0xe0>)
 8002874:	f443 0380 	orr.w	r3, r3, #4194304	; 0x400000
 8002878:	61d3      	str	r3, [r2, #28]
 800287a:	4b06      	ldr	r3, [pc, #24]	; (8002894 <HAL_I2C_MspInit+0xe0>)
 800287c:	69db      	ldr	r3, [r3, #28]
 800287e:	f403 0380 	and.w	r3, r3, #4194304	; 0x400000
 8002882:	60fb      	str	r3, [r7, #12]
 8002884:	68fb      	ldr	r3, [r7, #12]
}
 8002886:	bf00      	nop
 8002888:	3730      	adds	r7, #48	; 0x30
 800288a:	46bd      	mov	sp, r7
 800288c:	bd80      	pop	{r7, pc}
 800288e:	bf00      	nop
 8002890:	40005400 	.word	0x40005400
 8002894:	40021000 	.word	0x40021000
 8002898:	48000400 	.word	0x48000400
 800289c:	40005800 	.word	0x40005800

080028a0 <HAL_SPI_MspInit>:
* This function configures the hardware resources used in this example
* @param hspi: SPI handle pointer
* @retval None
*/
void HAL_SPI_MspInit(SPI_HandleTypeDef* hspi)
{
 80028a0:	b580      	push	{r7, lr}
 80028a2:	b08a      	sub	sp, #40	; 0x28
 80028a4:	af00      	add	r7, sp, #0
 80028a6:	6078      	str	r0, [r7, #4]
  GPIO_InitTypeDef GPIO_InitStruct = {0};
 80028a8:	f107 0314 	add.w	r3, r7, #20
 80028ac:	2200      	movs	r2, #0
 80028ae:	601a      	str	r2, [r3, #0]
 80028b0:	605a      	str	r2, [r3, #4]
 80028b2:	609a      	str	r2, [r3, #8]
 80028b4:	60da      	str	r2, [r3, #12]
 80028b6:	611a      	str	r2, [r3, #16]
  if(hspi->Instance==SPI1)
 80028b8:	687b      	ldr	r3, [r7, #4]
 80028ba:	681b      	ldr	r3, [r3, #0]
 80028bc:	4a17      	ldr	r2, [pc, #92]	; (800291c <HAL_SPI_MspInit+0x7c>)
 80028be:	4293      	cmp	r3, r2
 80028c0:	d128      	bne.n	8002914 <HAL_SPI_MspInit+0x74>
  {
  /* USER CODE BEGIN SPI1_MspInit 0 */

  /* USER CODE END SPI1_MspInit 0 */
    /* Peripheral clock enable */
    __HAL_RCC_SPI1_CLK_ENABLE();
 80028c2:	4b17      	ldr	r3, [pc, #92]	; (8002920 <HAL_SPI_MspInit+0x80>)
 80028c4:	699b      	ldr	r3, [r3, #24]
 80028c6:	4a16      	ldr	r2, [pc, #88]	; (8002920 <HAL_SPI_MspInit+0x80>)
 80028c8:	f443 5380 	orr.w	r3, r3, #4096	; 0x1000
 80028cc:	6193      	str	r3, [r2, #24]
 80028ce:	4b14      	ldr	r3, [pc, #80]	; (8002920 <HAL_SPI_MspInit+0x80>)
 80028d0:	699b      	ldr	r3, [r3, #24]
 80028d2:	f403 5380 	and.w	r3, r3, #4096	; 0x1000
 80028d6:	613b      	str	r3, [r7, #16]
 80028d8:	693b      	ldr	r3, [r7, #16]

    __HAL_RCC_GPIOA_CLK_ENABLE();
 80028da:	4b11      	ldr	r3, [pc, #68]	; (8002920 <HAL_SPI_MspInit+0x80>)
 80028dc:	695b      	ldr	r3, [r3, #20]
 80028de:	4a10      	ldr	r2, [pc, #64]	; (8002920 <HAL_SPI_MspInit+0x80>)
 80028e0:	f443 3300 	orr.w	r3, r3, #131072	; 0x20000
 80028e4:	6153      	str	r3, [r2, #20]
 80028e6:	4b0e      	ldr	r3, [pc, #56]	; (8002920 <HAL_SPI_MspInit+0x80>)
 80028e8:	695b      	ldr	r3, [r3, #20]
 80028ea:	f403 3300 	and.w	r3, r3, #131072	; 0x20000
 80028ee:	60fb      	str	r3, [r7, #12]
 80028f0:	68fb      	ldr	r3, [r7, #12]
    /**SPI1 GPIO Configuration
    PA5     ------> SPI1_SCK
    PA6     ------> SPI1_MISO
    PA7     ------> SPI1_MOSI
    */
    GPIO_InitStruct.Pin = SPI1_SCK_Pin|SPI1_MISO_Pin|SPI1_MISOA7_Pin;
 80028f2:	23e0      	movs	r3, #224	; 0xe0
 80028f4:	617b      	str	r3, [r7, #20]
    GPIO_InitStruct.Mode = GPIO_MODE_AF_PP;
 80028f6:	2302      	movs	r3, #2
 80028f8:	61bb      	str	r3, [r7, #24]
    GPIO_InitStruct.Pull = GPIO_NOPULL;
 80028fa:	2300      	movs	r3, #0
 80028fc:	61fb      	str	r3, [r7, #28]
    GPIO_InitStruct.Speed = GPIO_SPEED_FREQ_HIGH;
 80028fe:	2303      	movs	r3, #3
 8002900:	623b      	str	r3, [r7, #32]
    GPIO_InitStruct.Alternate = GPIO_AF5_SPI1;
 8002902:	2305      	movs	r3, #5
 8002904:	627b      	str	r3, [r7, #36]	; 0x24
    HAL_GPIO_Init(GPIOA, &GPIO_InitStruct);
 8002906:	f107 0314 	add.w	r3, r7, #20
 800290a:	4619      	mov	r1, r3
 800290c:	f04f 4090 	mov.w	r0, #1207959552	; 0x48000000
 8002910:	f000 fbea 	bl	80030e8 <HAL_GPIO_Init>
  /* USER CODE BEGIN SPI1_MspInit 1 */

  /* USER CODE END SPI1_MspInit 1 */
  }

}
 8002914:	bf00      	nop
 8002916:	3728      	adds	r7, #40	; 0x28
 8002918:	46bd      	mov	sp, r7
 800291a:	bd80      	pop	{r7, pc}
 800291c:	40013000 	.word	0x40013000
 8002920:	40021000 	.word	0x40021000

08002924 <HAL_TIM_Base_MspInit>:
* This function configures the hardware resources used in this example
* @param htim_base: TIM_Base handle pointer
* @retval None
*/
void HAL_TIM_Base_MspInit(TIM_HandleTypeDef* htim_base)
{
 8002924:	b580      	push	{r7, lr}
 8002926:	b08a      	sub	sp, #40	; 0x28
 8002928:	af00      	add	r7, sp, #0
 800292a:	6078      	str	r0, [r7, #4]
  GPIO_InitTypeDef GPIO_InitStruct = {0};
 800292c:	f107 0314 	add.w	r3, r7, #20
 8002930:	2200      	movs	r2, #0
 8002932:	601a      	str	r2, [r3, #0]
 8002934:	605a      	str	r2, [r3, #4]
 8002936:	609a      	str	r2, [r3, #8]
 8002938:	60da      	str	r2, [r3, #12]
 800293a:	611a      	str	r2, [r3, #16]
  if(htim_base->Instance==TIM1)
 800293c:	687b      	ldr	r3, [r7, #4]
 800293e:	681b      	ldr	r3, [r3, #0]
 8002940:	4a1c      	ldr	r2, [pc, #112]	; (80029b4 <HAL_TIM_Base_MspInit+0x90>)
 8002942:	4293      	cmp	r3, r2
 8002944:	d131      	bne.n	80029aa <HAL_TIM_Base_MspInit+0x86>
  {
  /* USER CODE BEGIN TIM1_MspInit 0 */

  /* USER CODE END TIM1_MspInit 0 */
    /* Peripheral clock enable */
    __HAL_RCC_TIM1_CLK_ENABLE();
 8002946:	4b1c      	ldr	r3, [pc, #112]	; (80029b8 <HAL_TIM_Base_MspInit+0x94>)
 8002948:	699b      	ldr	r3, [r3, #24]
 800294a:	4a1b      	ldr	r2, [pc, #108]	; (80029b8 <HAL_TIM_Base_MspInit+0x94>)
 800294c:	f443 6300 	orr.w	r3, r3, #2048	; 0x800
 8002950:	6193      	str	r3, [r2, #24]
 8002952:	4b19      	ldr	r3, [pc, #100]	; (80029b8 <HAL_TIM_Base_MspInit+0x94>)
 8002954:	699b      	ldr	r3, [r3, #24]
 8002956:	f403 6300 	and.w	r3, r3, #2048	; 0x800
 800295a:	613b      	str	r3, [r7, #16]
 800295c:	693b      	ldr	r3, [r7, #16]

    __HAL_RCC_GPIOA_CLK_ENABLE();
 800295e:	4b16      	ldr	r3, [pc, #88]	; (80029b8 <HAL_TIM_Base_MspInit+0x94>)
 8002960:	695b      	ldr	r3, [r3, #20]
 8002962:	4a15      	ldr	r2, [pc, #84]	; (80029b8 <HAL_TIM_Base_MspInit+0x94>)
 8002964:	f443 3300 	orr.w	r3, r3, #131072	; 0x20000
 8002968:	6153      	str	r3, [r2, #20]
 800296a:	4b13      	ldr	r3, [pc, #76]	; (80029b8 <HAL_TIM_Base_MspInit+0x94>)
 800296c:	695b      	ldr	r3, [r3, #20]
 800296e:	f403 3300 	and.w	r3, r3, #131072	; 0x20000
 8002972:	60fb      	str	r3, [r7, #12]
 8002974:	68fb      	ldr	r3, [r7, #12]
    /**TIM1 GPIO Configuration
    PA8     ------> TIM1_CH1
    */
    GPIO_InitStruct.Pin = GPIO_PIN_8;
 8002976:	f44f 7380 	mov.w	r3, #256	; 0x100
 800297a:	617b      	str	r3, [r7, #20]
    GPIO_InitStruct.Mode = GPIO_MODE_AF_PP;
 800297c:	2302      	movs	r3, #2
 800297e:	61bb      	str	r3, [r7, #24]
    GPIO_InitStruct.Pull = GPIO_NOPULL;
 8002980:	2300      	movs	r3, #0
 8002982:	61fb      	str	r3, [r7, #28]
    GPIO_InitStruct.Speed = GPIO_SPEED_FREQ_LOW;
 8002984:	2300      	movs	r3, #0
 8002986:	623b      	str	r3, [r7, #32]
    GPIO_InitStruct.Alternate = GPIO_AF6_TIM1;
 8002988:	2306      	movs	r3, #6
 800298a:	627b      	str	r3, [r7, #36]	; 0x24
    HAL_GPIO_Init(GPIOA, &GPIO_InitStruct);
 800298c:	f107 0314 	add.w	r3, r7, #20
 8002990:	4619      	mov	r1, r3
 8002992:	f04f 4090 	mov.w	r0, #1207959552	; 0x48000000
 8002996:	f000 fba7 	bl	80030e8 <HAL_GPIO_Init>

    /* TIM1 interrupt Init */
    HAL_NVIC_SetPriority(TIM1_CC_IRQn, 0, 0);
 800299a:	2200      	movs	r2, #0
 800299c:	2100      	movs	r1, #0
 800299e:	201b      	movs	r0, #27
 80029a0:	f000 fb6b 	bl	800307a <HAL_NVIC_SetPriority>
    HAL_NVIC_EnableIRQ(TIM1_CC_IRQn);
 80029a4:	201b      	movs	r0, #27
 80029a6:	f000 fb84 	bl	80030b2 <HAL_NVIC_EnableIRQ>
  /* USER CODE BEGIN TIM1_MspInit 1 */

  /* USER CODE END TIM1_MspInit 1 */
  }

}
 80029aa:	bf00      	nop
 80029ac:	3728      	adds	r7, #40	; 0x28
 80029ae:	46bd      	mov	sp, r7
 80029b0:	bd80      	pop	{r7, pc}
 80029b2:	bf00      	nop
 80029b4:	40012c00 	.word	0x40012c00
 80029b8:	40021000 	.word	0x40021000

080029bc <HAL_PCD_MspInit>:
* This function configures the hardware resources used in this example
* @param hpcd: PCD handle pointer
* @retval None
*/
void HAL_PCD_MspInit(PCD_HandleTypeDef* hpcd)
{
 80029bc:	b580      	push	{r7, lr}
 80029be:	b08a      	sub	sp, #40	; 0x28
 80029c0:	af00      	add	r7, sp, #0
 80029c2:	6078      	str	r0, [r7, #4]
  GPIO_InitTypeDef GPIO_InitStruct = {0};
 80029c4:	f107 0314 	add.w	r3, r7, #20
 80029c8:	2200      	movs	r2, #0
 80029ca:	601a      	str	r2, [r3, #0]
 80029cc:	605a      	str	r2, [r3, #4]
 80029ce:	609a      	str	r2, [r3, #8]
 80029d0:	60da      	str	r2, [r3, #12]
 80029d2:	611a      	str	r2, [r3, #16]
  if(hpcd->Instance==USB)
 80029d4:	687b      	ldr	r3, [r7, #4]
 80029d6:	681b      	ldr	r3, [r3, #0]
 80029d8:	4a18      	ldr	r2, [pc, #96]	; (8002a3c <HAL_PCD_MspInit+0x80>)
 80029da:	4293      	cmp	r3, r2
 80029dc:	d129      	bne.n	8002a32 <HAL_PCD_MspInit+0x76>
  {
  /* USER CODE BEGIN USB_MspInit 0 */

  /* USER CODE END USB_MspInit 0 */

    __HAL_RCC_GPIOA_CLK_ENABLE();
 80029de:	4b18      	ldr	r3, [pc, #96]	; (8002a40 <HAL_PCD_MspInit+0x84>)
 80029e0:	695b      	ldr	r3, [r3, #20]
 80029e2:	4a17      	ldr	r2, [pc, #92]	; (8002a40 <HAL_PCD_MspInit+0x84>)
 80029e4:	f443 3300 	orr.w	r3, r3, #131072	; 0x20000
 80029e8:	6153      	str	r3, [r2, #20]
 80029ea:	4b15      	ldr	r3, [pc, #84]	; (8002a40 <HAL_PCD_MspInit+0x84>)
 80029ec:	695b      	ldr	r3, [r3, #20]
 80029ee:	f403 3300 	and.w	r3, r3, #131072	; 0x20000
 80029f2:	613b      	str	r3, [r7, #16]
 80029f4:	693b      	ldr	r3, [r7, #16]
    /**USB GPIO Configuration
    PA11     ------> USB_DM
    PA12     ------> USB_DP
    */
    GPIO_InitStruct.Pin = DM_Pin|DP_Pin;
 80029f6:	f44f 53c0 	mov.w	r3, #6144	; 0x1800
 80029fa:	617b      	str	r3, [r7, #20]
    GPIO_InitStruct.Mode = GPIO_MODE_AF_PP;
 80029fc:	2302      	movs	r3, #2
 80029fe:	61bb      	str	r3, [r7, #24]
    GPIO_InitStruct.Pull = GPIO_NOPULL;
 8002a00:	2300      	movs	r3, #0
 8002a02:	61fb      	str	r3, [r7, #28]
    GPIO_InitStruct.Speed = GPIO_SPEED_FREQ_HIGH;
 8002a04:	2303      	movs	r3, #3
 8002a06:	623b      	str	r3, [r7, #32]
    GPIO_InitStruct.Alternate = GPIO_AF14_USB;
 8002a08:	230e      	movs	r3, #14
 8002a0a:	627b      	str	r3, [r7, #36]	; 0x24
    HAL_GPIO_Init(GPIOA, &GPIO_InitStruct);
 8002a0c:	f107 0314 	add.w	r3, r7, #20
 8002a10:	4619      	mov	r1, r3
 8002a12:	f04f 4090 	mov.w	r0, #1207959552	; 0x48000000
 8002a16:	f000 fb67 	bl	80030e8 <HAL_GPIO_Init>

    /* Peripheral clock enable */
    __HAL_RCC_USB_CLK_ENABLE();
 8002a1a:	4b09      	ldr	r3, [pc, #36]	; (8002a40 <HAL_PCD_MspInit+0x84>)
 8002a1c:	69db      	ldr	r3, [r3, #28]
 8002a1e:	4a08      	ldr	r2, [pc, #32]	; (8002a40 <HAL_PCD_MspInit+0x84>)
 8002a20:	f443 0300 	orr.w	r3, r3, #8388608	; 0x800000
 8002a24:	61d3      	str	r3, [r2, #28]
 8002a26:	4b06      	ldr	r3, [pc, #24]	; (8002a40 <HAL_PCD_MspInit+0x84>)
 8002a28:	69db      	ldr	r3, [r3, #28]
 8002a2a:	f403 0300 	and.w	r3, r3, #8388608	; 0x800000
 8002a2e:	60fb      	str	r3, [r7, #12]
 8002a30:	68fb      	ldr	r3, [r7, #12]
  /* USER CODE BEGIN USB_MspInit 1 */

  /* USER CODE END USB_MspInit 1 */
  }

}
 8002a32:	bf00      	nop
 8002a34:	3728      	adds	r7, #40	; 0x28
 8002a36:	46bd      	mov	sp, r7
 8002a38:	bd80      	pop	{r7, pc}
 8002a3a:	bf00      	nop
 8002a3c:	40005c00 	.word	0x40005c00
 8002a40:	40021000 	.word	0x40021000

08002a44 <NMI_Handler>:
/******************************************************************************/
/**
  * @brief This function handles Non maskable interrupt.
  */
void NMI_Handler(void)
{
 8002a44:	b480      	push	{r7}
 8002a46:	af00      	add	r7, sp, #0
  /* USER CODE BEGIN NonMaskableInt_IRQn 0 */

  /* USER CODE END NonMaskableInt_IRQn 0 */
  /* USER CODE BEGIN NonMaskableInt_IRQn 1 */
  while (1)
 8002a48:	e7fe      	b.n	8002a48 <NMI_Handler+0x4>

08002a4a <HardFault_Handler>:

/**
  * @brief This function handles Hard fault interrupt.
  */
void HardFault_Handler(void)
{
 8002a4a:	b480      	push	{r7}
 8002a4c:	af00      	add	r7, sp, #0
  /* USER CODE BEGIN HardFault_IRQn 0 */

  /* USER CODE END HardFault_IRQn 0 */
  while (1)
 8002a4e:	e7fe      	b.n	8002a4e <HardFault_Handler+0x4>

08002a50 <MemManage_Handler>:

/**
  * @brief This function handles Memory management fault.
  */
void MemManage_Handler(void)
{
 8002a50:	b480      	push	{r7}
 8002a52:	af00      	add	r7, sp, #0
  /* USER CODE BEGIN MemoryManagement_IRQn 0 */

  /* USER CODE END MemoryManagement_IRQn 0 */
  while (1)
 8002a54:	e7fe      	b.n	8002a54 <MemManage_Handler+0x4>

08002a56 <BusFault_Handler>:

/**
  * @brief This function handles Pre-fetch fault, memory access fault.
  */
void BusFault_Handler(void)
{
 8002a56:	b480      	push	{r7}
 8002a58:	af00      	add	r7, sp, #0
  /* USER CODE BEGIN BusFault_IRQn 0 */

  /* USER CODE END BusFault_IRQn 0 */
  while (1)
 8002a5a:	e7fe      	b.n	8002a5a <BusFault_Handler+0x4>

08002a5c <UsageFault_Handler>:

/**
  * @brief This function handles Undefined instruction or illegal state.
  */
void UsageFault_Handler(void)
{
 8002a5c:	b480      	push	{r7}
 8002a5e:	af00      	add	r7, sp, #0
  /* USER CODE BEGIN UsageFault_IRQn 0 */

  /* USER CODE END UsageFault_IRQn 0 */
  while (1)
 8002a60:	e7fe      	b.n	8002a60 <UsageFault_Handler+0x4>

08002a62 <SVC_Handler>:

/**
  * @brief This function handles System service call via SWI instruction.
  */
void SVC_Handler(void)
{
 8002a62:	b480      	push	{r7}
 8002a64:	af00      	add	r7, sp, #0

  /* USER CODE END SVCall_IRQn 0 */
  /* USER CODE BEGIN SVCall_IRQn 1 */

  /* USER CODE END SVCall_IRQn 1 */
}
 8002a66:	bf00      	nop
 8002a68:	46bd      	mov	sp, r7
 8002a6a:	f85d 7b04 	ldr.w	r7, [sp], #4
 8002a6e:	4770      	bx	lr

08002a70 <DebugMon_Handler>:

/**
  * @brief This function handles Debug monitor.
  */
void DebugMon_Handler(void)
{
 8002a70:	b480      	push	{r7}
 8002a72:	af00      	add	r7, sp, #0

  /* USER CODE END DebugMonitor_IRQn 0 */
  /* USER CODE BEGIN DebugMonitor_IRQn 1 */

  /* USER CODE END DebugMonitor_IRQn 1 */
}
 8002a74:	bf00      	nop
 8002a76:	46bd      	mov	sp, r7
 8002a78:	f85d 7b04 	ldr.w	r7, [sp], #4
 8002a7c:	4770      	bx	lr

08002a7e <PendSV_Handler>:

/**
  * @brief This function handles Pendable request for system service.
  */
void PendSV_Handler(void)
{
 8002a7e:	b480      	push	{r7}
 8002a80:	af00      	add	r7, sp, #0

  /* USER CODE END PendSV_IRQn 0 */
  /* USER CODE BEGIN PendSV_IRQn 1 */

  /* USER CODE END PendSV_IRQn 1 */
}
 8002a82:	bf00      	nop
 8002a84:	46bd      	mov	sp, r7
 8002a86:	f85d 7b04 	ldr.w	r7, [sp], #4
 8002a8a:	4770      	bx	lr

08002a8c <SysTick_Handler>:

/**
  * @brief This function handles System tick timer.
  */
void SysTick_Handler(void)
{
 8002a8c:	b580      	push	{r7, lr}
 8002a8e:	af00      	add	r7, sp, #0
  /* USER CODE BEGIN SysTick_IRQn 0 */

  /* USER CODE END SysTick_IRQn 0 */
  HAL_IncTick();
 8002a90:	f000 f9d4 	bl	8002e3c <HAL_IncTick>
  /* USER CODE BEGIN SysTick_IRQn 1 */

  /* USER CODE END SysTick_IRQn 1 */
}
 8002a94:	bf00      	nop
 8002a96:	bd80      	pop	{r7, pc}

08002a98 <TIM1_CC_IRQHandler>:

/**
  * @brief This function handles TIM1 capture compare interrupt.
  */
void TIM1_CC_IRQHandler(void)
{
 8002a98:	b580      	push	{r7, lr}
 8002a9a:	af00      	add	r7, sp, #0
  /* USER CODE BEGIN TIM1_CC_IRQn 0 */

  /* USER CODE END TIM1_CC_IRQn 0 */
  HAL_TIM_IRQHandler(&htim1);
 8002a9c:	4802      	ldr	r0, [pc, #8]	; (8002aa8 <TIM1_CC_IRQHandler+0x10>)
 8002a9e:	f003 fb27 	bl	80060f0 <HAL_TIM_IRQHandler>
  /* USER CODE BEGIN TIM1_CC_IRQn 1 */

  /* USER CODE END TIM1_CC_IRQn 1 */
}
 8002aa2:	bf00      	nop
 8002aa4:	bd80      	pop	{r7, pc}
 8002aa6:	bf00      	nop
 8002aa8:	20000538 	.word	0x20000538

08002aac <TIM2_IRQHandler>:

/**
  * @brief This function handles TIM2 global interrupt.
  */
void TIM2_IRQHandler(void)
{
 8002aac:	b580      	push	{r7, lr}
 8002aae:	af00      	add	r7, sp, #0
  /* USER CODE BEGIN TIM2_IRQn 0 */

  /* USER CODE END TIM2_IRQn 0 */
  HAL_TIM_IRQHandler(&htim2);
 8002ab0:	4802      	ldr	r0, [pc, #8]	; (8002abc <TIM2_IRQHandler+0x10>)
 8002ab2:	f003 fb1d 	bl	80060f0 <HAL_TIM_IRQHandler>
  /* USER CODE BEGIN TIM2_IRQn 1 */

  /* USER CODE END TIM2_IRQn 1 */
}
 8002ab6:	bf00      	nop
 8002ab8:	bd80      	pop	{r7, pc}
 8002aba:	bf00      	nop
 8002abc:	20000584 	.word	0x20000584

08002ac0 <_getpid>:
void initialise_monitor_handles()
{
}

int _getpid(void)
{
 8002ac0:	b480      	push	{r7}
 8002ac2:	af00      	add	r7, sp, #0
	return 1;
 8002ac4:	2301      	movs	r3, #1
}
 8002ac6:	4618      	mov	r0, r3
 8002ac8:	46bd      	mov	sp, r7
 8002aca:	f85d 7b04 	ldr.w	r7, [sp], #4
 8002ace:	4770      	bx	lr

08002ad0 <_kill>:

int _kill(int pid, int sig)
{
 8002ad0:	b580      	push	{r7, lr}
 8002ad2:	b082      	sub	sp, #8
 8002ad4:	af00      	add	r7, sp, #0
 8002ad6:	6078      	str	r0, [r7, #4]
 8002ad8:	6039      	str	r1, [r7, #0]
	errno = EINVAL;
 8002ada:	f004 f941 	bl	8006d60 <__errno>
 8002ade:	4603      	mov	r3, r0
 8002ae0:	2216      	movs	r2, #22
 8002ae2:	601a      	str	r2, [r3, #0]
	return -1;
 8002ae4:	f04f 33ff 	mov.w	r3, #4294967295
}
 8002ae8:	4618      	mov	r0, r3
 8002aea:	3708      	adds	r7, #8
 8002aec:	46bd      	mov	sp, r7
 8002aee:	bd80      	pop	{r7, pc}

08002af0 <_exit>:

void _exit (int status)
{
 8002af0:	b580      	push	{r7, lr}
 8002af2:	b082      	sub	sp, #8
 8002af4:	af00      	add	r7, sp, #0
 8002af6:	6078      	str	r0, [r7, #4]
	_kill(status, -1);
 8002af8:	f04f 31ff 	mov.w	r1, #4294967295
 8002afc:	6878      	ldr	r0, [r7, #4]
 8002afe:	f7ff ffe7 	bl	8002ad0 <_kill>
	while (1) {}		/* Make sure we hang here */
 8002b02:	e7fe      	b.n	8002b02 <_exit+0x12>

08002b04 <_read>:
}

__attribute__((weak)) int _read(int file, char *ptr, int len)
{
 8002b04:	b580      	push	{r7, lr}
 8002b06:	b086      	sub	sp, #24
 8002b08:	af00      	add	r7, sp, #0
 8002b0a:	60f8      	str	r0, [r7, #12]
 8002b0c:	60b9      	str	r1, [r7, #8]
 8002b0e:	607a      	str	r2, [r7, #4]
	int DataIdx;

	for (DataIdx = 0; DataIdx < len; DataIdx++)
 8002b10:	2300      	movs	r3, #0
 8002b12:	617b      	str	r3, [r7, #20]
 8002b14:	e00a      	b.n	8002b2c <_read+0x28>
	{
		*ptr++ = __io_getchar();
 8002b16:	f3af 8000 	nop.w
 8002b1a:	4601      	mov	r1, r0
 8002b1c:	68bb      	ldr	r3, [r7, #8]
 8002b1e:	1c5a      	adds	r2, r3, #1
 8002b20:	60ba      	str	r2, [r7, #8]
 8002b22:	b2ca      	uxtb	r2, r1
 8002b24:	701a      	strb	r2, [r3, #0]
	for (DataIdx = 0; DataIdx < len; DataIdx++)
 8002b26:	697b      	ldr	r3, [r7, #20]
 8002b28:	3301      	adds	r3, #1
 8002b2a:	617b      	str	r3, [r7, #20]
 8002b2c:	697a      	ldr	r2, [r7, #20]
 8002b2e:	687b      	ldr	r3, [r7, #4]
 8002b30:	429a      	cmp	r2, r3
 8002b32:	dbf0      	blt.n	8002b16 <_read+0x12>
	}

return len;
 8002b34:	687b      	ldr	r3, [r7, #4]
}
 8002b36:	4618      	mov	r0, r3
 8002b38:	3718      	adds	r7, #24
 8002b3a:	46bd      	mov	sp, r7
 8002b3c:	bd80      	pop	{r7, pc}

08002b3e <_write>:

__attribute__((weak)) int _write(int file, char *ptr, int len)
{
 8002b3e:	b580      	push	{r7, lr}
 8002b40:	b086      	sub	sp, #24
 8002b42:	af00      	add	r7, sp, #0
 8002b44:	60f8      	str	r0, [r7, #12]
 8002b46:	60b9      	str	r1, [r7, #8]
 8002b48:	607a      	str	r2, [r7, #4]
	int DataIdx;

	for (DataIdx = 0; DataIdx < len; DataIdx++)
 8002b4a:	2300      	movs	r3, #0
 8002b4c:	617b      	str	r3, [r7, #20]
 8002b4e:	e009      	b.n	8002b64 <_write+0x26>
	{
		__io_putchar(*ptr++);
 8002b50:	68bb      	ldr	r3, [r7, #8]
 8002b52:	1c5a      	adds	r2, r3, #1
 8002b54:	60ba      	str	r2, [r7, #8]
 8002b56:	781b      	ldrb	r3, [r3, #0]
 8002b58:	4618      	mov	r0, r3
 8002b5a:	f3af 8000 	nop.w
	for (DataIdx = 0; DataIdx < len; DataIdx++)
 8002b5e:	697b      	ldr	r3, [r7, #20]
 8002b60:	3301      	adds	r3, #1
 8002b62:	617b      	str	r3, [r7, #20]
 8002b64:	697a      	ldr	r2, [r7, #20]
 8002b66:	687b      	ldr	r3, [r7, #4]
 8002b68:	429a      	cmp	r2, r3
 8002b6a:	dbf1      	blt.n	8002b50 <_write+0x12>
	}
	return len;
 8002b6c:	687b      	ldr	r3, [r7, #4]
}
 8002b6e:	4618      	mov	r0, r3
 8002b70:	3718      	adds	r7, #24
 8002b72:	46bd      	mov	sp, r7
 8002b74:	bd80      	pop	{r7, pc}

08002b76 <_close>:

int _close(int file)
{
 8002b76:	b480      	push	{r7}
 8002b78:	b083      	sub	sp, #12
 8002b7a:	af00      	add	r7, sp, #0
 8002b7c:	6078      	str	r0, [r7, #4]
	return -1;
 8002b7e:	f04f 33ff 	mov.w	r3, #4294967295
}
 8002b82:	4618      	mov	r0, r3
 8002b84:	370c      	adds	r7, #12
 8002b86:	46bd      	mov	sp, r7
 8002b88:	f85d 7b04 	ldr.w	r7, [sp], #4
 8002b8c:	4770      	bx	lr

08002b8e <_fstat>:


int _fstat(int file, struct stat *st)
{
 8002b8e:	b480      	push	{r7}
 8002b90:	b083      	sub	sp, #12
 8002b92:	af00      	add	r7, sp, #0
 8002b94:	6078      	str	r0, [r7, #4]
 8002b96:	6039      	str	r1, [r7, #0]
	st->st_mode = S_IFCHR;
 8002b98:	683b      	ldr	r3, [r7, #0]
 8002b9a:	f44f 5200 	mov.w	r2, #8192	; 0x2000
 8002b9e:	605a      	str	r2, [r3, #4]
	return 0;
 8002ba0:	2300      	movs	r3, #0
}
 8002ba2:	4618      	mov	r0, r3
 8002ba4:	370c      	adds	r7, #12
 8002ba6:	46bd      	mov	sp, r7
 8002ba8:	f85d 7b04 	ldr.w	r7, [sp], #4
 8002bac:	4770      	bx	lr

08002bae <_isatty>:

int _isatty(int file)
{
 8002bae:	b480      	push	{r7}
 8002bb0:	b083      	sub	sp, #12
 8002bb2:	af00      	add	r7, sp, #0
 8002bb4:	6078      	str	r0, [r7, #4]
	return 1;
 8002bb6:	2301      	movs	r3, #1
}
 8002bb8:	4618      	mov	r0, r3
 8002bba:	370c      	adds	r7, #12
 8002bbc:	46bd      	mov	sp, r7
 8002bbe:	f85d 7b04 	ldr.w	r7, [sp], #4
 8002bc2:	4770      	bx	lr

08002bc4 <_lseek>:

int _lseek(int file, int ptr, int dir)
{
 8002bc4:	b480      	push	{r7}
 8002bc6:	b085      	sub	sp, #20
 8002bc8:	af00      	add	r7, sp, #0
 8002bca:	60f8      	str	r0, [r7, #12]
 8002bcc:	60b9      	str	r1, [r7, #8]
 8002bce:	607a      	str	r2, [r7, #4]
	return 0;
 8002bd0:	2300      	movs	r3, #0
}
 8002bd2:	4618      	mov	r0, r3
 8002bd4:	3714      	adds	r7, #20
 8002bd6:	46bd      	mov	sp, r7
 8002bd8:	f85d 7b04 	ldr.w	r7, [sp], #4
 8002bdc:	4770      	bx	lr
	...

08002be0 <_sbrk>:
 *
 * @param incr Memory size
 * @return Pointer to allocated memory
 */
void *_sbrk(ptrdiff_t incr)
{
 8002be0:	b580      	push	{r7, lr}
 8002be2:	b086      	sub	sp, #24
 8002be4:	af00      	add	r7, sp, #0
 8002be6:	6078      	str	r0, [r7, #4]
  extern uint8_t _end; /* Symbol defined in the linker script */
  extern uint8_t _estack; /* Symbol defined in the linker script */
  extern uint32_t _Min_Stack_Size; /* Symbol defined in the linker script */
  const uint32_t stack_limit = (uint32_t)&_estack - (uint32_t)&_Min_Stack_Size;
 8002be8:	4a14      	ldr	r2, [pc, #80]	; (8002c3c <_sbrk+0x5c>)
 8002bea:	4b15      	ldr	r3, [pc, #84]	; (8002c40 <_sbrk+0x60>)
 8002bec:	1ad3      	subs	r3, r2, r3
 8002bee:	617b      	str	r3, [r7, #20]
  const uint8_t *max_heap = (uint8_t *)stack_limit;
 8002bf0:	697b      	ldr	r3, [r7, #20]
 8002bf2:	613b      	str	r3, [r7, #16]
  uint8_t *prev_heap_end;

  /* Initialize heap end at first call */
  if (NULL == __sbrk_heap_end)
 8002bf4:	4b13      	ldr	r3, [pc, #76]	; (8002c44 <_sbrk+0x64>)
 8002bf6:	681b      	ldr	r3, [r3, #0]
 8002bf8:	2b00      	cmp	r3, #0
 8002bfa:	d102      	bne.n	8002c02 <_sbrk+0x22>
  {
    __sbrk_heap_end = &_end;
 8002bfc:	4b11      	ldr	r3, [pc, #68]	; (8002c44 <_sbrk+0x64>)
 8002bfe:	4a12      	ldr	r2, [pc, #72]	; (8002c48 <_sbrk+0x68>)
 8002c00:	601a      	str	r2, [r3, #0]
  }

  /* Protect heap from growing into the reserved MSP stack */
  if (__sbrk_heap_end + incr > max_heap)
 8002c02:	4b10      	ldr	r3, [pc, #64]	; (8002c44 <_sbrk+0x64>)
 8002c04:	681a      	ldr	r2, [r3, #0]
 8002c06:	687b      	ldr	r3, [r7, #4]
 8002c08:	4413      	add	r3, r2
 8002c0a:	693a      	ldr	r2, [r7, #16]
 8002c0c:	429a      	cmp	r2, r3
 8002c0e:	d207      	bcs.n	8002c20 <_sbrk+0x40>
  {
    errno = ENOMEM;
 8002c10:	f004 f8a6 	bl	8006d60 <__errno>
 8002c14:	4603      	mov	r3, r0
 8002c16:	220c      	movs	r2, #12
 8002c18:	601a      	str	r2, [r3, #0]
    return (void *)-1;
 8002c1a:	f04f 33ff 	mov.w	r3, #4294967295
 8002c1e:	e009      	b.n	8002c34 <_sbrk+0x54>
  }

  prev_heap_end = __sbrk_heap_end;
 8002c20:	4b08      	ldr	r3, [pc, #32]	; (8002c44 <_sbrk+0x64>)
 8002c22:	681b      	ldr	r3, [r3, #0]
 8002c24:	60fb      	str	r3, [r7, #12]
  __sbrk_heap_end += incr;
 8002c26:	4b07      	ldr	r3, [pc, #28]	; (8002c44 <_sbrk+0x64>)
 8002c28:	681a      	ldr	r2, [r3, #0]
 8002c2a:	687b      	ldr	r3, [r7, #4]
 8002c2c:	4413      	add	r3, r2
 8002c2e:	4a05      	ldr	r2, [pc, #20]	; (8002c44 <_sbrk+0x64>)
 8002c30:	6013      	str	r3, [r2, #0]

  return (void *)prev_heap_end;
 8002c32:	68fb      	ldr	r3, [r7, #12]
}
 8002c34:	4618      	mov	r0, r3
 8002c36:	3718      	adds	r7, #24
 8002c38:	46bd      	mov	sp, r7
 8002c3a:	bd80      	pop	{r7, pc}
 8002c3c:	2000a000 	.word	0x2000a000
 8002c40:	00000400 	.word	0x00000400
 8002c44:	200008d4 	.word	0x200008d4
 8002c48:	200008f0 	.word	0x200008f0

08002c4c <SystemInit>:
  * @brief  Setup the microcontroller system
  * @param  None
  * @retval None
  */
void SystemInit(void)
{
 8002c4c:	b480      	push	{r7}
 8002c4e:	af00      	add	r7, sp, #0
/* FPU settings --------------------------------------------------------------*/
#if (__FPU_PRESENT == 1) && (__FPU_USED == 1)
  SCB->CPACR |= ((3UL << 10*2)|(3UL << 11*2));  /* set CP10 and CP11 Full Access */
 8002c50:	4b06      	ldr	r3, [pc, #24]	; (8002c6c <SystemInit+0x20>)
 8002c52:	f8d3 3088 	ldr.w	r3, [r3, #136]	; 0x88
 8002c56:	4a05      	ldr	r2, [pc, #20]	; (8002c6c <SystemInit+0x20>)
 8002c58:	f443 0370 	orr.w	r3, r3, #15728640	; 0xf00000
 8002c5c:	f8c2 3088 	str.w	r3, [r2, #136]	; 0x88

  /* Configure the Vector Table location -------------------------------------*/
#if defined(USER_VECT_TAB_ADDRESS)
  SCB->VTOR = VECT_TAB_BASE_ADDRESS | VECT_TAB_OFFSET; /* Vector Table Relocation in Internal SRAM */
#endif /* USER_VECT_TAB_ADDRESS */
}
 8002c60:	bf00      	nop
 8002c62:	46bd      	mov	sp, r7
 8002c64:	f85d 7b04 	ldr.w	r7, [sp], #4
 8002c68:	4770      	bx	lr
 8002c6a:	bf00      	nop
 8002c6c:	e000ed00 	.word	0xe000ed00

08002c70 <__NVIC_EnableIRQ>:
{
 8002c70:	b480      	push	{r7}
 8002c72:	b083      	sub	sp, #12
 8002c74:	af00      	add	r7, sp, #0
 8002c76:	4603      	mov	r3, r0
 8002c78:	71fb      	strb	r3, [r7, #7]
  if ((int32_t)(IRQn) >= 0)
 8002c7a:	f997 3007 	ldrsb.w	r3, [r7, #7]
 8002c7e:	2b00      	cmp	r3, #0
 8002c80:	db0b      	blt.n	8002c9a <__NVIC_EnableIRQ+0x2a>
    NVIC->ISER[(((uint32_t)IRQn) >> 5UL)] = (uint32_t)(1UL << (((uint32_t)IRQn) & 0x1FUL));
 8002c82:	79fb      	ldrb	r3, [r7, #7]
 8002c84:	f003 021f 	and.w	r2, r3, #31
 8002c88:	4907      	ldr	r1, [pc, #28]	; (8002ca8 <__NVIC_EnableIRQ+0x38>)
 8002c8a:	f997 3007 	ldrsb.w	r3, [r7, #7]
 8002c8e:	095b      	lsrs	r3, r3, #5
 8002c90:	2001      	movs	r0, #1
 8002c92:	fa00 f202 	lsl.w	r2, r0, r2
 8002c96:	f841 2023 	str.w	r2, [r1, r3, lsl #2]
}
 8002c9a:	bf00      	nop
 8002c9c:	370c      	adds	r7, #12
 8002c9e:	46bd      	mov	sp, r7
 8002ca0:	f85d 7b04 	ldr.w	r7, [sp], #4
 8002ca4:	4770      	bx	lr
 8002ca6:	bf00      	nop
 8002ca8:	e000e100 	.word	0xe000e100

08002cac <up_count_TIM3>:
// Function pointer set up
void (*function_pointer)() = 0x00;
void (*oneshot_function_pointer)() = 0x00;
void (*interrupt_pointer)() = 0x00;

void up_count_TIM3(uint32_t time, void (*desired_function)()){
 8002cac:	b580      	push	{r7, lr}
 8002cae:	b084      	sub	sp, #16
 8002cb0:	af00      	add	r7, sp, #0
 8002cb2:	6078      	str	r0, [r7, #4]
 8002cb4:	6039      	str	r1, [r7, #0]
	// Set function pointer to given function
	interrupt_pointer = desired_function;
 8002cb6:	4a07      	ldr	r2, [pc, #28]	; (8002cd4 <up_count_TIM3+0x28>)
 8002cb8:	683b      	ldr	r3, [r7, #0]
 8002cba:	6013      	str	r3, [r2, #0]

	uint32_t prescaler = 0;
 8002cbc:	2300      	movs	r3, #0
 8002cbe:	60fb      	str	r3, [r7, #12]

	// Enable timer 2 in PWM mode
	config_TIM3(time, prescaler, PWM_MODE);
 8002cc0:	2201      	movs	r2, #1
 8002cc2:	68f9      	ldr	r1, [r7, #12]
 8002cc4:	6878      	ldr	r0, [r7, #4]
 8002cc6:	f000 f807 	bl	8002cd8 <config_TIM3>

}
 8002cca:	bf00      	nop
 8002ccc:	3710      	adds	r7, #16
 8002cce:	46bd      	mov	sp, r7
 8002cd0:	bd80      	pop	{r7, pc}
 8002cd2:	bf00      	nop
 8002cd4:	200008d8 	.word	0x200008d8

08002cd8 <config_TIM3>:

void config_TIM3(uint32_t time, uint32_t prescaler, uint32_t mode){
 8002cd8:	b580      	push	{r7, lr}
 8002cda:	b084      	sub	sp, #16
 8002cdc:	af00      	add	r7, sp, #0
 8002cde:	60f8      	str	r0, [r7, #12]
 8002ce0:	60b9      	str	r1, [r7, #8]
 8002ce2:	607a      	str	r2, [r7, #4]
  __ASM volatile ("cpsid i" : : : "memory");
 8002ce4:	b672      	cpsid	i
}
 8002ce6:	bf00      	nop
	__disable_irq();
	// enable the TIM3 Peripherial through the RCC registers
	RCC->APB1ENR |= RCC_APB1ENR_TIM4EN;
 8002ce8:	4b11      	ldr	r3, [pc, #68]	; (8002d30 <config_TIM3+0x58>)
 8002cea:	69db      	ldr	r3, [r3, #28]
 8002cec:	4a10      	ldr	r2, [pc, #64]	; (8002d30 <config_TIM3+0x58>)
 8002cee:	f043 0304 	orr.w	r3, r3, #4
 8002cf2:	61d3      	str	r3, [r2, #28]

	// set the prescaler so that 1 count is 1 milisecond
	// 8MHz = 0.000000125, 1 microsecond is 0.000001,
	// prescaler 0.000001/0.000000125 = 8
	TIM4->PSC = 47999;  // timer at 48MHz/1KHz sysclock/desiredfreq
 8002cf4:	4b0f      	ldr	r3, [pc, #60]	; (8002d34 <config_TIM3+0x5c>)
 8002cf6:	f64b 327f 	movw	r2, #47999	; 0xbb7f
 8002cfa:	629a      	str	r2, [r3, #40]	; 0x28
	TIM4->ARR = time-1; // 1 second before reset
 8002cfc:	4a0d      	ldr	r2, [pc, #52]	; (8002d34 <config_TIM3+0x5c>)
 8002cfe:	68fb      	ldr	r3, [r7, #12]
 8002d00:	3b01      	subs	r3, #1
 8002d02:	62d3      	str	r3, [r2, #44]	; 0x2c
	// Make the TIM3 trigger an interrupt when there is an overflow
	TIM4->DIER |= TIM_DIER_UIE;// | TIM_DIER_CC1IE;
 8002d04:	4b0b      	ldr	r3, [pc, #44]	; (8002d34 <config_TIM3+0x5c>)
 8002d06:	68db      	ldr	r3, [r3, #12]
 8002d08:	4a0a      	ldr	r2, [pc, #40]	; (8002d34 <config_TIM3+0x5c>)
 8002d0a:	f043 0301 	orr.w	r3, r3, #1
 8002d0e:	60d3      	str	r3, [r2, #12]

	// NVIC_SetPriority(TIM3_IRQn, 20);
	// Tell the NVIC module that timer2 interrupts should be handled
	NVIC_EnableIRQ(TIM4_IRQn); //TIM_CR1_CMS
 8002d10:	201e      	movs	r0, #30
 8002d12:	f7ff ffad 	bl	8002c70 <__NVIC_EnableIRQ>

	// Finally, enable the timer 3
	TIM4->CR1 |= TIM_CR1_CEN;
 8002d16:	4b07      	ldr	r3, [pc, #28]	; (8002d34 <config_TIM3+0x5c>)
 8002d18:	681b      	ldr	r3, [r3, #0]
 8002d1a:	4a06      	ldr	r2, [pc, #24]	; (8002d34 <config_TIM3+0x5c>)
 8002d1c:	f043 0301 	orr.w	r3, r3, #1
 8002d20:	6013      	str	r3, [r2, #0]
  __ASM volatile ("cpsie i" : : : "memory");
 8002d22:	b662      	cpsie	i
}
 8002d24:	bf00      	nop

	// Re-enable all interrupts (now that we are finished)
	__enable_irq();
}
 8002d26:	bf00      	nop
 8002d28:	3710      	adds	r7, #16
 8002d2a:	46bd      	mov	sp, r7
 8002d2c:	bd80      	pop	{r7, pc}
 8002d2e:	bf00      	nop
 8002d30:	40021000 	.word	0x40021000
 8002d34:	40000800 	.word	0x40000800

08002d38 <TIM4_IRQHandler>:

void TIM4_IRQHandler(void){
 8002d38:	b580      	push	{r7, lr}
 8002d3a:	af00      	add	r7, sp, #0
	// enable interrupts on USART 1?
	interrupt_pointer();
 8002d3c:	4b05      	ldr	r3, [pc, #20]	; (8002d54 <TIM4_IRQHandler+0x1c>)
 8002d3e:	681b      	ldr	r3, [r3, #0]
 8002d40:	4798      	blx	r3
	//TIM3->SR &= ~TIM_SR_UIF
	TIM4->SR &= ~(TIM_SR_UIF | TIM_SR_CC1IF  | TIM_SR_CC2IF | TIM_SR_CC3IF );
 8002d42:	4b05      	ldr	r3, [pc, #20]	; (8002d58 <TIM4_IRQHandler+0x20>)
 8002d44:	691b      	ldr	r3, [r3, #16]
 8002d46:	4a04      	ldr	r2, [pc, #16]	; (8002d58 <TIM4_IRQHandler+0x20>)
 8002d48:	f023 030f 	bic.w	r3, r3, #15
 8002d4c:	6113      	str	r3, [r2, #16]
	//TIM4->SR ^= TIM4->SR;
}
 8002d4e:	bf00      	nop
 8002d50:	bd80      	pop	{r7, pc}
 8002d52:	bf00      	nop
 8002d54:	200008d8 	.word	0x200008d8
 8002d58:	40000800 	.word	0x40000800

08002d5c <Reset_Handler>:
 8002d5c:	f8df d034 	ldr.w	sp, [pc, #52]	; 8002d94 <LoopForever+0x2>
 8002d60:	f7ff ff74 	bl	8002c4c <SystemInit>
 8002d64:	480c      	ldr	r0, [pc, #48]	; (8002d98 <LoopForever+0x6>)
 8002d66:	490d      	ldr	r1, [pc, #52]	; (8002d9c <LoopForever+0xa>)
 8002d68:	4a0d      	ldr	r2, [pc, #52]	; (8002da0 <LoopForever+0xe>)
 8002d6a:	2300      	movs	r3, #0
 8002d6c:	e002      	b.n	8002d74 <LoopCopyDataInit>

08002d6e <CopyDataInit>:
 8002d6e:	58d4      	ldr	r4, [r2, r3]
 8002d70:	50c4      	str	r4, [r0, r3]
 8002d72:	3304      	adds	r3, #4

08002d74 <LoopCopyDataInit>:
 8002d74:	18c4      	adds	r4, r0, r3
 8002d76:	428c      	cmp	r4, r1
 8002d78:	d3f9      	bcc.n	8002d6e <CopyDataInit>
 8002d7a:	4a0a      	ldr	r2, [pc, #40]	; (8002da4 <LoopForever+0x12>)
 8002d7c:	4c0a      	ldr	r4, [pc, #40]	; (8002da8 <LoopForever+0x16>)
 8002d7e:	2300      	movs	r3, #0
 8002d80:	e001      	b.n	8002d86 <LoopFillZerobss>

08002d82 <FillZerobss>:
 8002d82:	6013      	str	r3, [r2, #0]
 8002d84:	3204      	adds	r2, #4

08002d86 <LoopFillZerobss>:
 8002d86:	42a2      	cmp	r2, r4
 8002d88:	d3fb      	bcc.n	8002d82 <FillZerobss>
 8002d8a:	f003 ffef 	bl	8006d6c <__libc_init_array>
 8002d8e:	f7fd ffdf 	bl	8000d50 <main>

08002d92 <LoopForever>:
 8002d92:	e7fe      	b.n	8002d92 <LoopForever>
 8002d94:	2000a000 	.word	0x2000a000
 8002d98:	20000000 	.word	0x20000000
 8002d9c:	20000410 	.word	0x20000410
 8002da0:	0800c518 	.word	0x0800c518
 8002da4:	20000410 	.word	0x20000410
 8002da8:	200008f0 	.word	0x200008f0

08002dac <ADC1_2_IRQHandler>:
 8002dac:	e7fe      	b.n	8002dac <ADC1_2_IRQHandler>
	...

08002db0 <HAL_Init>:
  *         In the default implementation,Systick is used as source of time base.
  *       The tick variable is incremented each 1ms in its ISR.
  * @retval HAL status
  */
HAL_StatusTypeDef HAL_Init(void)
{
 8002db0:	b580      	push	{r7, lr}
 8002db2:	af00      	add	r7, sp, #0
  /* Configure Flash prefetch */
#if (PREFETCH_ENABLE != 0U)
  __HAL_FLASH_PREFETCH_BUFFER_ENABLE();
 8002db4:	4b08      	ldr	r3, [pc, #32]	; (8002dd8 <HAL_Init+0x28>)
 8002db6:	681b      	ldr	r3, [r3, #0]
 8002db8:	4a07      	ldr	r2, [pc, #28]	; (8002dd8 <HAL_Init+0x28>)
 8002dba:	f043 0310 	orr.w	r3, r3, #16
 8002dbe:	6013      	str	r3, [r2, #0]
#endif /* PREFETCH_ENABLE */

  /* Set Interrupt Group Priority */
  HAL_NVIC_SetPriorityGrouping(NVIC_PRIORITYGROUP_4);
 8002dc0:	2003      	movs	r0, #3
 8002dc2:	f000 f94f 	bl	8003064 <HAL_NVIC_SetPriorityGrouping>

  /* Enable systick and configure 1ms tick (default clock after Reset is HSI) */
  HAL_InitTick(TICK_INT_PRIORITY);
 8002dc6:	2000      	movs	r0, #0
 8002dc8:	f000 f808 	bl	8002ddc <HAL_InitTick>

  /* Init the low level hardware */
  HAL_MspInit();
 8002dcc:	f7ff fcce 	bl	800276c <HAL_MspInit>

  /* Return function status */
  return HAL_OK;
 8002dd0:	2300      	movs	r3, #0
}
 8002dd2:	4618      	mov	r0, r3
 8002dd4:	bd80      	pop	{r7, pc}
 8002dd6:	bf00      	nop
 8002dd8:	40022000 	.word	0x40022000

08002ddc <HAL_InitTick>:
  *         implementation  in user file.
  * @param TickPriority Tick interrupt priority.
  * @retval HAL status
  */
__weak HAL_StatusTypeDef HAL_InitTick(uint32_t TickPriority)
{
 8002ddc:	b580      	push	{r7, lr}
 8002dde:	b082      	sub	sp, #8
 8002de0:	af00      	add	r7, sp, #0
 8002de2:	6078      	str	r0, [r7, #4]
  /* Configure the SysTick to have interrupt in 1ms time basis*/
  if (HAL_SYSTICK_Config(SystemCoreClock / (1000U / uwTickFreq)) > 0U)
 8002de4:	4b12      	ldr	r3, [pc, #72]	; (8002e30 <HAL_InitTick+0x54>)
 8002de6:	681a      	ldr	r2, [r3, #0]
 8002de8:	4b12      	ldr	r3, [pc, #72]	; (8002e34 <HAL_InitTick+0x58>)
 8002dea:	781b      	ldrb	r3, [r3, #0]
 8002dec:	4619      	mov	r1, r3
 8002dee:	f44f 737a 	mov.w	r3, #1000	; 0x3e8
 8002df2:	fbb3 f3f1 	udiv	r3, r3, r1
 8002df6:	fbb2 f3f3 	udiv	r3, r2, r3
 8002dfa:	4618      	mov	r0, r3
 8002dfc:	f000 f967 	bl	80030ce <HAL_SYSTICK_Config>
 8002e00:	4603      	mov	r3, r0
 8002e02:	2b00      	cmp	r3, #0
 8002e04:	d001      	beq.n	8002e0a <HAL_InitTick+0x2e>
  {
    return HAL_ERROR;
 8002e06:	2301      	movs	r3, #1
 8002e08:	e00e      	b.n	8002e28 <HAL_InitTick+0x4c>
  }

  /* Configure the SysTick IRQ priority */
  if (TickPriority < (1UL << __NVIC_PRIO_BITS))
 8002e0a:	687b      	ldr	r3, [r7, #4]
 8002e0c:	2b0f      	cmp	r3, #15
 8002e0e:	d80a      	bhi.n	8002e26 <HAL_InitTick+0x4a>
  {
    HAL_NVIC_SetPriority(SysTick_IRQn, TickPriority, 0U);
 8002e10:	2200      	movs	r2, #0
 8002e12:	6879      	ldr	r1, [r7, #4]
 8002e14:	f04f 30ff 	mov.w	r0, #4294967295
 8002e18:	f000 f92f 	bl	800307a <HAL_NVIC_SetPriority>
    uwTickPrio = TickPriority;
 8002e1c:	4a06      	ldr	r2, [pc, #24]	; (8002e38 <HAL_InitTick+0x5c>)
 8002e1e:	687b      	ldr	r3, [r7, #4]
 8002e20:	6013      	str	r3, [r2, #0]
  else
  {
    return HAL_ERROR;
  }
   /* Return function status */
  return HAL_OK;
 8002e22:	2300      	movs	r3, #0
 8002e24:	e000      	b.n	8002e28 <HAL_InitTick+0x4c>
    return HAL_ERROR;
 8002e26:	2301      	movs	r3, #1
}
 8002e28:	4618      	mov	r0, r3
 8002e2a:	3708      	adds	r7, #8
 8002e2c:	46bd      	mov	sp, r7
 8002e2e:	bd80      	pop	{r7, pc}
 8002e30:	20000234 	.word	0x20000234
 8002e34:	2000023c 	.word	0x2000023c
 8002e38:	20000238 	.word	0x20000238

08002e3c <HAL_IncTick>:
  * @note This function is declared as __weak to be overwritten in case of other 
  *         implementations  in user file.
  * @retval None
  */
__weak void HAL_IncTick(void)
{
 8002e3c:	b480      	push	{r7}
 8002e3e:	af00      	add	r7, sp, #0
  uwTick += uwTickFreq;
 8002e40:	4b06      	ldr	r3, [pc, #24]	; (8002e5c <HAL_IncTick+0x20>)
 8002e42:	781b      	ldrb	r3, [r3, #0]
 8002e44:	461a      	mov	r2, r3
 8002e46:	4b06      	ldr	r3, [pc, #24]	; (8002e60 <HAL_IncTick+0x24>)
 8002e48:	681b      	ldr	r3, [r3, #0]
 8002e4a:	4413      	add	r3, r2
 8002e4c:	4a04      	ldr	r2, [pc, #16]	; (8002e60 <HAL_IncTick+0x24>)
 8002e4e:	6013      	str	r3, [r2, #0]
}
 8002e50:	bf00      	nop
 8002e52:	46bd      	mov	sp, r7
 8002e54:	f85d 7b04 	ldr.w	r7, [sp], #4
 8002e58:	4770      	bx	lr
 8002e5a:	bf00      	nop
 8002e5c:	2000023c 	.word	0x2000023c
 8002e60:	200008dc 	.word	0x200008dc

08002e64 <HAL_GetTick>:
  * @note   The function is declared as __Weak  to be overwritten  in case of other 
  *         implementations  in user file.
  * @retval tick value
  */
__weak uint32_t HAL_GetTick(void)
{
 8002e64:	b480      	push	{r7}
 8002e66:	af00      	add	r7, sp, #0
  return uwTick;  
 8002e68:	4b03      	ldr	r3, [pc, #12]	; (8002e78 <HAL_GetTick+0x14>)
 8002e6a:	681b      	ldr	r3, [r3, #0]
}
 8002e6c:	4618      	mov	r0, r3
 8002e6e:	46bd      	mov	sp, r7
 8002e70:	f85d 7b04 	ldr.w	r7, [sp], #4
 8002e74:	4770      	bx	lr
 8002e76:	bf00      	nop
 8002e78:	200008dc 	.word	0x200008dc

08002e7c <HAL_Delay>:
  *         implementations  in user file.
  * @param  Delay specifies the delay time length, in milliseconds.
  * @retval None
  */
__weak void HAL_Delay(uint32_t Delay)
{
 8002e7c:	b580      	push	{r7, lr}
 8002e7e:	b084      	sub	sp, #16
 8002e80:	af00      	add	r7, sp, #0
 8002e82:	6078      	str	r0, [r7, #4]
  uint32_t tickstart = HAL_GetTick();
 8002e84:	f7ff ffee 	bl	8002e64 <HAL_GetTick>
 8002e88:	60b8      	str	r0, [r7, #8]
  uint32_t wait = Delay;
 8002e8a:	687b      	ldr	r3, [r7, #4]
 8002e8c:	60fb      	str	r3, [r7, #12]
  
  /* Add freq to guarantee minimum wait */
  if (wait < HAL_MAX_DELAY)
 8002e8e:	68fb      	ldr	r3, [r7, #12]
 8002e90:	f1b3 3fff 	cmp.w	r3, #4294967295
 8002e94:	d005      	beq.n	8002ea2 <HAL_Delay+0x26>
  {
    wait += (uint32_t)(uwTickFreq);
 8002e96:	4b0a      	ldr	r3, [pc, #40]	; (8002ec0 <HAL_Delay+0x44>)
 8002e98:	781b      	ldrb	r3, [r3, #0]
 8002e9a:	461a      	mov	r2, r3
 8002e9c:	68fb      	ldr	r3, [r7, #12]
 8002e9e:	4413      	add	r3, r2
 8002ea0:	60fb      	str	r3, [r7, #12]
  }
  
  while((HAL_GetTick() - tickstart) < wait)
 8002ea2:	bf00      	nop
 8002ea4:	f7ff ffde 	bl	8002e64 <HAL_GetTick>
 8002ea8:	4602      	mov	r2, r0
 8002eaa:	68bb      	ldr	r3, [r7, #8]
 8002eac:	1ad3      	subs	r3, r2, r3
 8002eae:	68fa      	ldr	r2, [r7, #12]
 8002eb0:	429a      	cmp	r2, r3
 8002eb2:	d8f7      	bhi.n	8002ea4 <HAL_Delay+0x28>
  {
  }
}
 8002eb4:	bf00      	nop
 8002eb6:	bf00      	nop
 8002eb8:	3710      	adds	r7, #16
 8002eba:	46bd      	mov	sp, r7
 8002ebc:	bd80      	pop	{r7, pc}
 8002ebe:	bf00      	nop
 8002ec0:	2000023c 	.word	0x2000023c

08002ec4 <__NVIC_SetPriorityGrouping>:
{
 8002ec4:	b480      	push	{r7}
 8002ec6:	b085      	sub	sp, #20
 8002ec8:	af00      	add	r7, sp, #0
 8002eca:	6078      	str	r0, [r7, #4]
  uint32_t PriorityGroupTmp = (PriorityGroup & (uint32_t)0x07UL);             /* only values 0..7 are used          */
 8002ecc:	687b      	ldr	r3, [r7, #4]
 8002ece:	f003 0307 	and.w	r3, r3, #7
 8002ed2:	60fb      	str	r3, [r7, #12]
  reg_value  =  SCB->AIRCR;                                                   /* read old register configuration    */
 8002ed4:	4b0c      	ldr	r3, [pc, #48]	; (8002f08 <__NVIC_SetPriorityGrouping+0x44>)
 8002ed6:	68db      	ldr	r3, [r3, #12]
 8002ed8:	60bb      	str	r3, [r7, #8]
  reg_value &= ~((uint32_t)(SCB_AIRCR_VECTKEY_Msk | SCB_AIRCR_PRIGROUP_Msk)); /* clear bits to change               */
 8002eda:	68ba      	ldr	r2, [r7, #8]
 8002edc:	f64f 03ff 	movw	r3, #63743	; 0xf8ff
 8002ee0:	4013      	ands	r3, r2
 8002ee2:	60bb      	str	r3, [r7, #8]
                (PriorityGroupTmp << SCB_AIRCR_PRIGROUP_Pos)  );              /* Insert write key and priority group */
 8002ee4:	68fb      	ldr	r3, [r7, #12]
 8002ee6:	021a      	lsls	r2, r3, #8
                ((uint32_t)0x5FAUL << SCB_AIRCR_VECTKEY_Pos) |
 8002ee8:	68bb      	ldr	r3, [r7, #8]
 8002eea:	4313      	orrs	r3, r2
  reg_value  =  (reg_value                                   |
 8002eec:	f043 63bf 	orr.w	r3, r3, #100139008	; 0x5f80000
 8002ef0:	f443 3300 	orr.w	r3, r3, #131072	; 0x20000
 8002ef4:	60bb      	str	r3, [r7, #8]
  SCB->AIRCR =  reg_value;
 8002ef6:	4a04      	ldr	r2, [pc, #16]	; (8002f08 <__NVIC_SetPriorityGrouping+0x44>)
 8002ef8:	68bb      	ldr	r3, [r7, #8]
 8002efa:	60d3      	str	r3, [r2, #12]
}
 8002efc:	bf00      	nop
 8002efe:	3714      	adds	r7, #20
 8002f00:	46bd      	mov	sp, r7
 8002f02:	f85d 7b04 	ldr.w	r7, [sp], #4
 8002f06:	4770      	bx	lr
 8002f08:	e000ed00 	.word	0xe000ed00

08002f0c <__NVIC_GetPriorityGrouping>:
{
 8002f0c:	b480      	push	{r7}
 8002f0e:	af00      	add	r7, sp, #0
  return ((uint32_t)((SCB->AIRCR & SCB_AIRCR_PRIGROUP_Msk) >> SCB_AIRCR_PRIGROUP_Pos));
 8002f10:	4b04      	ldr	r3, [pc, #16]	; (8002f24 <__NVIC_GetPriorityGrouping+0x18>)
 8002f12:	68db      	ldr	r3, [r3, #12]
 8002f14:	0a1b      	lsrs	r3, r3, #8
 8002f16:	f003 0307 	and.w	r3, r3, #7
}
 8002f1a:	4618      	mov	r0, r3
 8002f1c:	46bd      	mov	sp, r7
 8002f1e:	f85d 7b04 	ldr.w	r7, [sp], #4
 8002f22:	4770      	bx	lr
 8002f24:	e000ed00 	.word	0xe000ed00

08002f28 <__NVIC_EnableIRQ>:
{
 8002f28:	b480      	push	{r7}
 8002f2a:	b083      	sub	sp, #12
 8002f2c:	af00      	add	r7, sp, #0
 8002f2e:	4603      	mov	r3, r0
 8002f30:	71fb      	strb	r3, [r7, #7]
  if ((int32_t)(IRQn) >= 0)
 8002f32:	f997 3007 	ldrsb.w	r3, [r7, #7]
 8002f36:	2b00      	cmp	r3, #0
 8002f38:	db0b      	blt.n	8002f52 <__NVIC_EnableIRQ+0x2a>
    NVIC->ISER[(((uint32_t)IRQn) >> 5UL)] = (uint32_t)(1UL << (((uint32_t)IRQn) & 0x1FUL));
 8002f3a:	79fb      	ldrb	r3, [r7, #7]
 8002f3c:	f003 021f 	and.w	r2, r3, #31
 8002f40:	4907      	ldr	r1, [pc, #28]	; (8002f60 <__NVIC_EnableIRQ+0x38>)
 8002f42:	f997 3007 	ldrsb.w	r3, [r7, #7]
 8002f46:	095b      	lsrs	r3, r3, #5
 8002f48:	2001      	movs	r0, #1
 8002f4a:	fa00 f202 	lsl.w	r2, r0, r2
 8002f4e:	f841 2023 	str.w	r2, [r1, r3, lsl #2]
}
 8002f52:	bf00      	nop
 8002f54:	370c      	adds	r7, #12
 8002f56:	46bd      	mov	sp, r7
 8002f58:	f85d 7b04 	ldr.w	r7, [sp], #4
 8002f5c:	4770      	bx	lr
 8002f5e:	bf00      	nop
 8002f60:	e000e100 	.word	0xe000e100

08002f64 <__NVIC_SetPriority>:
  \param [in]      IRQn  Interrupt number.
  \param [in]  priority  Priority to set.
  \note    The priority cannot be set for every processor exception.
 */
__STATIC_INLINE void __NVIC_SetPriority(IRQn_Type IRQn, uint32_t priority)
{
 8002f64:	b480      	push	{r7}
 8002f66:	b083      	sub	sp, #12
 8002f68:	af00      	add	r7, sp, #0
 8002f6a:	4603      	mov	r3, r0
 8002f6c:	6039      	str	r1, [r7, #0]
 8002f6e:	71fb      	strb	r3, [r7, #7]
  if ((int32_t)(IRQn) >= 0)
 8002f70:	f997 3007 	ldrsb.w	r3, [r7, #7]
 8002f74:	2b00      	cmp	r3, #0
 8002f76:	db0a      	blt.n	8002f8e <__NVIC_SetPriority+0x2a>
  {
    NVIC->IP[((uint32_t)IRQn)]               = (uint8_t)((priority << (8U - __NVIC_PRIO_BITS)) & (uint32_t)0xFFUL);
 8002f78:	683b      	ldr	r3, [r7, #0]
 8002f7a:	b2da      	uxtb	r2, r3
 8002f7c:	490c      	ldr	r1, [pc, #48]	; (8002fb0 <__NVIC_SetPriority+0x4c>)
 8002f7e:	f997 3007 	ldrsb.w	r3, [r7, #7]
 8002f82:	0112      	lsls	r2, r2, #4
 8002f84:	b2d2      	uxtb	r2, r2
 8002f86:	440b      	add	r3, r1
 8002f88:	f883 2300 	strb.w	r2, [r3, #768]	; 0x300
  }
  else
  {
    SCB->SHP[(((uint32_t)IRQn) & 0xFUL)-4UL] = (uint8_t)((priority << (8U - __NVIC_PRIO_BITS)) & (uint32_t)0xFFUL);
  }
}
 8002f8c:	e00a      	b.n	8002fa4 <__NVIC_SetPriority+0x40>
    SCB->SHP[(((uint32_t)IRQn) & 0xFUL)-4UL] = (uint8_t)((priority << (8U - __NVIC_PRIO_BITS)) & (uint32_t)0xFFUL);
 8002f8e:	683b      	ldr	r3, [r7, #0]
 8002f90:	b2da      	uxtb	r2, r3
 8002f92:	4908      	ldr	r1, [pc, #32]	; (8002fb4 <__NVIC_SetPriority+0x50>)
 8002f94:	79fb      	ldrb	r3, [r7, #7]
 8002f96:	f003 030f 	and.w	r3, r3, #15
 8002f9a:	3b04      	subs	r3, #4
 8002f9c:	0112      	lsls	r2, r2, #4
 8002f9e:	b2d2      	uxtb	r2, r2
 8002fa0:	440b      	add	r3, r1
 8002fa2:	761a      	strb	r2, [r3, #24]
}
 8002fa4:	bf00      	nop
 8002fa6:	370c      	adds	r7, #12
 8002fa8:	46bd      	mov	sp, r7
 8002faa:	f85d 7b04 	ldr.w	r7, [sp], #4
 8002fae:	4770      	bx	lr
 8002fb0:	e000e100 	.word	0xe000e100
 8002fb4:	e000ed00 	.word	0xe000ed00

08002fb8 <NVIC_EncodePriority>:
  \param [in]   PreemptPriority  Preemptive priority value (starting from 0).
  \param [in]       SubPriority  Subpriority value (starting from 0).
  \return                        Encoded priority. Value can be used in the function \ref NVIC_SetPriority().
 */
__STATIC_INLINE uint32_t NVIC_EncodePriority (uint32_t PriorityGroup, uint32_t PreemptPriority, uint32_t SubPriority)
{
 8002fb8:	b480      	push	{r7}
 8002fba:	b089      	sub	sp, #36	; 0x24
 8002fbc:	af00      	add	r7, sp, #0
 8002fbe:	60f8      	str	r0, [r7, #12]
 8002fc0:	60b9      	str	r1, [r7, #8]
 8002fc2:	607a      	str	r2, [r7, #4]
  uint32_t PriorityGroupTmp = (PriorityGroup & (uint32_t)0x07UL);   /* only values 0..7 are used          */
 8002fc4:	68fb      	ldr	r3, [r7, #12]
 8002fc6:	f003 0307 	and.w	r3, r3, #7
 8002fca:	61fb      	str	r3, [r7, #28]
  uint32_t PreemptPriorityBits;
  uint32_t SubPriorityBits;

  PreemptPriorityBits = ((7UL - PriorityGroupTmp) > (uint32_t)(__NVIC_PRIO_BITS)) ? (uint32_t)(__NVIC_PRIO_BITS) : (uint32_t)(7UL - PriorityGroupTmp);
 8002fcc:	69fb      	ldr	r3, [r7, #28]
 8002fce:	f1c3 0307 	rsb	r3, r3, #7
 8002fd2:	2b04      	cmp	r3, #4
 8002fd4:	bf28      	it	cs
 8002fd6:	2304      	movcs	r3, #4
 8002fd8:	61bb      	str	r3, [r7, #24]
  SubPriorityBits     = ((PriorityGroupTmp + (uint32_t)(__NVIC_PRIO_BITS)) < (uint32_t)7UL) ? (uint32_t)0UL : (uint32_t)((PriorityGroupTmp - 7UL) + (uint32_t)(__NVIC_PRIO_BITS));
 8002fda:	69fb      	ldr	r3, [r7, #28]
 8002fdc:	3304      	adds	r3, #4
 8002fde:	2b06      	cmp	r3, #6
 8002fe0:	d902      	bls.n	8002fe8 <NVIC_EncodePriority+0x30>
 8002fe2:	69fb      	ldr	r3, [r7, #28]
 8002fe4:	3b03      	subs	r3, #3
 8002fe6:	e000      	b.n	8002fea <NVIC_EncodePriority+0x32>
 8002fe8:	2300      	movs	r3, #0
 8002fea:	617b      	str	r3, [r7, #20]

  return (
           ((PreemptPriority & (uint32_t)((1UL << (PreemptPriorityBits)) - 1UL)) << SubPriorityBits) |
 8002fec:	f04f 32ff 	mov.w	r2, #4294967295
 8002ff0:	69bb      	ldr	r3, [r7, #24]
 8002ff2:	fa02 f303 	lsl.w	r3, r2, r3
 8002ff6:	43da      	mvns	r2, r3
 8002ff8:	68bb      	ldr	r3, [r7, #8]
 8002ffa:	401a      	ands	r2, r3
 8002ffc:	697b      	ldr	r3, [r7, #20]
 8002ffe:	409a      	lsls	r2, r3
           ((SubPriority     & (uint32_t)((1UL << (SubPriorityBits    )) - 1UL)))
 8003000:	f04f 31ff 	mov.w	r1, #4294967295
 8003004:	697b      	ldr	r3, [r7, #20]
 8003006:	fa01 f303 	lsl.w	r3, r1, r3
 800300a:	43d9      	mvns	r1, r3
 800300c:	687b      	ldr	r3, [r7, #4]
 800300e:	400b      	ands	r3, r1
           ((PreemptPriority & (uint32_t)((1UL << (PreemptPriorityBits)) - 1UL)) << SubPriorityBits) |
 8003010:	4313      	orrs	r3, r2
         );
}
 8003012:	4618      	mov	r0, r3
 8003014:	3724      	adds	r7, #36	; 0x24
 8003016:	46bd      	mov	sp, r7
 8003018:	f85d 7b04 	ldr.w	r7, [sp], #4
 800301c:	4770      	bx	lr
	...

08003020 <SysTick_Config>:
  \note    When the variable <b>__Vendor_SysTickConfig</b> is set to 1, then the
           function <b>SysTick_Config</b> is not included. In this case, the file <b><i>device</i>.h</b>
           must contain a vendor-specific implementation of this function.
 */
__STATIC_INLINE uint32_t SysTick_Config(uint32_t ticks)
{
 8003020:	b580      	push	{r7, lr}
 8003022:	b082      	sub	sp, #8
 8003024:	af00      	add	r7, sp, #0
 8003026:	6078      	str	r0, [r7, #4]
  if ((ticks - 1UL) > SysTick_LOAD_RELOAD_Msk)
 8003028:	687b      	ldr	r3, [r7, #4]
 800302a:	3b01      	subs	r3, #1
 800302c:	f1b3 7f80 	cmp.w	r3, #16777216	; 0x1000000
 8003030:	d301      	bcc.n	8003036 <SysTick_Config+0x16>
  {
    return (1UL);                                                   /* Reload value impossible */
 8003032:	2301      	movs	r3, #1
 8003034:	e00f      	b.n	8003056 <SysTick_Config+0x36>
  }

  SysTick->LOAD  = (uint32_t)(ticks - 1UL);                         /* set reload register */
 8003036:	4a0a      	ldr	r2, [pc, #40]	; (8003060 <SysTick_Config+0x40>)
 8003038:	687b      	ldr	r3, [r7, #4]
 800303a:	3b01      	subs	r3, #1
 800303c:	6053      	str	r3, [r2, #4]
  NVIC_SetPriority (SysTick_IRQn, (1UL << __NVIC_PRIO_BITS) - 1UL); /* set Priority for Systick Interrupt */
 800303e:	210f      	movs	r1, #15
 8003040:	f04f 30ff 	mov.w	r0, #4294967295
 8003044:	f7ff ff8e 	bl	8002f64 <__NVIC_SetPriority>
  SysTick->VAL   = 0UL;                                             /* Load the SysTick Counter Value */
 8003048:	4b05      	ldr	r3, [pc, #20]	; (8003060 <SysTick_Config+0x40>)
 800304a:	2200      	movs	r2, #0
 800304c:	609a      	str	r2, [r3, #8]
  SysTick->CTRL  = SysTick_CTRL_CLKSOURCE_Msk |
 800304e:	4b04      	ldr	r3, [pc, #16]	; (8003060 <SysTick_Config+0x40>)
 8003050:	2207      	movs	r2, #7
 8003052:	601a      	str	r2, [r3, #0]
                   SysTick_CTRL_TICKINT_Msk   |
                   SysTick_CTRL_ENABLE_Msk;                         /* Enable SysTick IRQ and SysTick Timer */
  return (0UL);                                                     /* Function successful */
 8003054:	2300      	movs	r3, #0
}
 8003056:	4618      	mov	r0, r3
 8003058:	3708      	adds	r7, #8
 800305a:	46bd      	mov	sp, r7
 800305c:	bd80      	pop	{r7, pc}
 800305e:	bf00      	nop
 8003060:	e000e010 	.word	0xe000e010

08003064 <HAL_NVIC_SetPriorityGrouping>:
  * @note   When the NVIC_PriorityGroup_0 is selected, IRQ pre-emption is no more possible.
  *         The pending IRQ priority will be managed only by the subpriority.
  * @retval None
  */
void HAL_NVIC_SetPriorityGrouping(uint32_t PriorityGroup)
{
 8003064:	b580      	push	{r7, lr}
 8003066:	b082      	sub	sp, #8
 8003068:	af00      	add	r7, sp, #0
 800306a:	6078      	str	r0, [r7, #4]
  /* Check the parameters */
  assert_param(IS_NVIC_PRIORITY_GROUP(PriorityGroup));

  /* Set the PRIGROUP[10:8] bits according to the PriorityGroup parameter value */
  NVIC_SetPriorityGrouping(PriorityGroup);
 800306c:	6878      	ldr	r0, [r7, #4]
 800306e:	f7ff ff29 	bl	8002ec4 <__NVIC_SetPriorityGrouping>
}
 8003072:	bf00      	nop
 8003074:	3708      	adds	r7, #8
 8003076:	46bd      	mov	sp, r7
 8003078:	bd80      	pop	{r7, pc}

0800307a <HAL_NVIC_SetPriority>:
  *         This parameter can be a value between 0 and 15 as described in the table CORTEX_NVIC_Priority_Table
  *         A lower priority value indicates a higher priority.
  * @retval None
  */
void HAL_NVIC_SetPriority(IRQn_Type IRQn, uint32_t PreemptPriority, uint32_t SubPriority)
{
 800307a:	b580      	push	{r7, lr}
 800307c:	b086      	sub	sp, #24
 800307e:	af00      	add	r7, sp, #0
 8003080:	4603      	mov	r3, r0
 8003082:	60b9      	str	r1, [r7, #8]
 8003084:	607a      	str	r2, [r7, #4]
 8003086:	73fb      	strb	r3, [r7, #15]
  uint32_t prioritygroup = 0x00U;
 8003088:	2300      	movs	r3, #0
 800308a:	617b      	str	r3, [r7, #20]
  
  /* Check the parameters */
  assert_param(IS_NVIC_SUB_PRIORITY(SubPriority));
  assert_param(IS_NVIC_PREEMPTION_PRIORITY(PreemptPriority));
  
  prioritygroup = NVIC_GetPriorityGrouping();
 800308c:	f7ff ff3e 	bl	8002f0c <__NVIC_GetPriorityGrouping>
 8003090:	6178      	str	r0, [r7, #20]
  
  NVIC_SetPriority(IRQn, NVIC_EncodePriority(prioritygroup, PreemptPriority, SubPriority));
 8003092:	687a      	ldr	r2, [r7, #4]
 8003094:	68b9      	ldr	r1, [r7, #8]
 8003096:	6978      	ldr	r0, [r7, #20]
 8003098:	f7ff ff8e 	bl	8002fb8 <NVIC_EncodePriority>
 800309c:	4602      	mov	r2, r0
 800309e:	f997 300f 	ldrsb.w	r3, [r7, #15]
 80030a2:	4611      	mov	r1, r2
 80030a4:	4618      	mov	r0, r3
 80030a6:	f7ff ff5d 	bl	8002f64 <__NVIC_SetPriority>
}
 80030aa:	bf00      	nop
 80030ac:	3718      	adds	r7, #24
 80030ae:	46bd      	mov	sp, r7
 80030b0:	bd80      	pop	{r7, pc}

080030b2 <HAL_NVIC_EnableIRQ>:
  *         This parameter can be an enumerator of IRQn_Type enumeration
  *         (For the complete STM32 Devices IRQ Channels list, please refer to the appropriate CMSIS device file (stm32f3xxxx.h))
  * @retval None
  */
void HAL_NVIC_EnableIRQ(IRQn_Type IRQn)
{
 80030b2:	b580      	push	{r7, lr}
 80030b4:	b082      	sub	sp, #8
 80030b6:	af00      	add	r7, sp, #0
 80030b8:	4603      	mov	r3, r0
 80030ba:	71fb      	strb	r3, [r7, #7]
  /* Check the parameters */
  assert_param(IS_NVIC_DEVICE_IRQ(IRQn));
  
  /* Enable interrupt */
  NVIC_EnableIRQ(IRQn);
 80030bc:	f997 3007 	ldrsb.w	r3, [r7, #7]
 80030c0:	4618      	mov	r0, r3
 80030c2:	f7ff ff31 	bl	8002f28 <__NVIC_EnableIRQ>
}
 80030c6:	bf00      	nop
 80030c8:	3708      	adds	r7, #8
 80030ca:	46bd      	mov	sp, r7
 80030cc:	bd80      	pop	{r7, pc}

080030ce <HAL_SYSTICK_Config>:
  * @param  TicksNumb Specifies the ticks Number of ticks between two interrupts.
  * @retval status:  - 0  Function succeeded.
  *                  - 1  Function failed.
  */
uint32_t HAL_SYSTICK_Config(uint32_t TicksNumb)
{
 80030ce:	b580      	push	{r7, lr}
 80030d0:	b082      	sub	sp, #8
 80030d2:	af00      	add	r7, sp, #0
 80030d4:	6078      	str	r0, [r7, #4]
   return SysTick_Config(TicksNumb);
 80030d6:	6878      	ldr	r0, [r7, #4]
 80030d8:	f7ff ffa2 	bl	8003020 <SysTick_Config>
 80030dc:	4603      	mov	r3, r0
}
 80030de:	4618      	mov	r0, r3
 80030e0:	3708      	adds	r7, #8
 80030e2:	46bd      	mov	sp, r7
 80030e4:	bd80      	pop	{r7, pc}
	...

080030e8 <HAL_GPIO_Init>:
  * @param  GPIO_Init pointer to a GPIO_InitTypeDef structure that contains
  *         the configuration information for the specified GPIO peripheral.
  * @retval None
  */
void HAL_GPIO_Init(GPIO_TypeDef  *GPIOx, GPIO_InitTypeDef *GPIO_Init)
{
 80030e8:	b480      	push	{r7}
 80030ea:	b087      	sub	sp, #28
 80030ec:	af00      	add	r7, sp, #0
 80030ee:	6078      	str	r0, [r7, #4]
 80030f0:	6039      	str	r1, [r7, #0]
  uint32_t position = 0x00u;
 80030f2:	2300      	movs	r3, #0
 80030f4:	617b      	str	r3, [r7, #20]
  assert_param(IS_GPIO_ALL_INSTANCE(GPIOx));
  assert_param(IS_GPIO_PIN(GPIO_Init->Pin));
  assert_param(IS_GPIO_MODE(GPIO_Init->Mode));

  /* Configure the port pins */
  while (((GPIO_Init->Pin) >> position) != 0x00u)
 80030f6:	e154      	b.n	80033a2 <HAL_GPIO_Init+0x2ba>
  {
    /* Get current io position */
    iocurrent = (GPIO_Init->Pin) & (1uL << position);
 80030f8:	683b      	ldr	r3, [r7, #0]
 80030fa:	681a      	ldr	r2, [r3, #0]
 80030fc:	2101      	movs	r1, #1
 80030fe:	697b      	ldr	r3, [r7, #20]
 8003100:	fa01 f303 	lsl.w	r3, r1, r3
 8003104:	4013      	ands	r3, r2
 8003106:	60fb      	str	r3, [r7, #12]

    if (iocurrent != 0x00u)
 8003108:	68fb      	ldr	r3, [r7, #12]
 800310a:	2b00      	cmp	r3, #0
 800310c:	f000 8146 	beq.w	800339c <HAL_GPIO_Init+0x2b4>
    {
      /*--------------------- GPIO Mode Configuration ------------------------*/
      /* In case of Output or Alternate function mode selection */
      if(((GPIO_Init->Mode & GPIO_MODE) == MODE_OUTPUT) || ((GPIO_Init->Mode & GPIO_MODE) == MODE_AF))
 8003110:	683b      	ldr	r3, [r7, #0]
 8003112:	685b      	ldr	r3, [r3, #4]
 8003114:	f003 0303 	and.w	r3, r3, #3
 8003118:	2b01      	cmp	r3, #1
 800311a:	d005      	beq.n	8003128 <HAL_GPIO_Init+0x40>
 800311c:	683b      	ldr	r3, [r7, #0]
 800311e:	685b      	ldr	r3, [r3, #4]
 8003120:	f003 0303 	and.w	r3, r3, #3
 8003124:	2b02      	cmp	r3, #2
 8003126:	d130      	bne.n	800318a <HAL_GPIO_Init+0xa2>
      {
        /* Check the Speed parameter */
        assert_param(IS_GPIO_SPEED(GPIO_Init->Speed));
        /* Configure the IO Speed */
        temp = GPIOx->OSPEEDR;
 8003128:	687b      	ldr	r3, [r7, #4]
 800312a:	689b      	ldr	r3, [r3, #8]
 800312c:	613b      	str	r3, [r7, #16]
        temp &= ~(GPIO_OSPEEDER_OSPEEDR0 << (position * 2u));
 800312e:	697b      	ldr	r3, [r7, #20]
 8003130:	005b      	lsls	r3, r3, #1
 8003132:	2203      	movs	r2, #3
 8003134:	fa02 f303 	lsl.w	r3, r2, r3
 8003138:	43db      	mvns	r3, r3
 800313a:	693a      	ldr	r2, [r7, #16]
 800313c:	4013      	ands	r3, r2
 800313e:	613b      	str	r3, [r7, #16]
        temp |= (GPIO_Init->Speed << (position * 2u));
 8003140:	683b      	ldr	r3, [r7, #0]
 8003142:	68da      	ldr	r2, [r3, #12]
 8003144:	697b      	ldr	r3, [r7, #20]
 8003146:	005b      	lsls	r3, r3, #1
 8003148:	fa02 f303 	lsl.w	r3, r2, r3
 800314c:	693a      	ldr	r2, [r7, #16]
 800314e:	4313      	orrs	r3, r2
 8003150:	613b      	str	r3, [r7, #16]
        GPIOx->OSPEEDR = temp;
 8003152:	687b      	ldr	r3, [r7, #4]
 8003154:	693a      	ldr	r2, [r7, #16]
 8003156:	609a      	str	r2, [r3, #8]

        /* Configure the IO Output Type */
        temp = GPIOx->OTYPER;
 8003158:	687b      	ldr	r3, [r7, #4]
 800315a:	685b      	ldr	r3, [r3, #4]
 800315c:	613b      	str	r3, [r7, #16]
        temp &= ~(GPIO_OTYPER_OT_0 << position) ;
 800315e:	2201      	movs	r2, #1
 8003160:	697b      	ldr	r3, [r7, #20]
 8003162:	fa02 f303 	lsl.w	r3, r2, r3
 8003166:	43db      	mvns	r3, r3
 8003168:	693a      	ldr	r2, [r7, #16]
 800316a:	4013      	ands	r3, r2
 800316c:	613b      	str	r3, [r7, #16]
        temp |= (((GPIO_Init->Mode & OUTPUT_TYPE) >> OUTPUT_TYPE_Pos) << position);
 800316e:	683b      	ldr	r3, [r7, #0]
 8003170:	685b      	ldr	r3, [r3, #4]
 8003172:	091b      	lsrs	r3, r3, #4
 8003174:	f003 0201 	and.w	r2, r3, #1
 8003178:	697b      	ldr	r3, [r7, #20]
 800317a:	fa02 f303 	lsl.w	r3, r2, r3
 800317e:	693a      	ldr	r2, [r7, #16]
 8003180:	4313      	orrs	r3, r2
 8003182:	613b      	str	r3, [r7, #16]
        GPIOx->OTYPER = temp;
 8003184:	687b      	ldr	r3, [r7, #4]
 8003186:	693a      	ldr	r2, [r7, #16]
 8003188:	605a      	str	r2, [r3, #4]
      }

      if((GPIO_Init->Mode & GPIO_MODE) != MODE_ANALOG)
 800318a:	683b      	ldr	r3, [r7, #0]
 800318c:	685b      	ldr	r3, [r3, #4]
 800318e:	f003 0303 	and.w	r3, r3, #3
 8003192:	2b03      	cmp	r3, #3
 8003194:	d017      	beq.n	80031c6 <HAL_GPIO_Init+0xde>
      {
        /* Check the Pull parameter */
        assert_param(IS_GPIO_PULL(GPIO_Init->Pull));

        /* Activate the Pull-up or Pull down resistor for the current IO */
        temp = GPIOx->PUPDR;
 8003196:	687b      	ldr	r3, [r7, #4]
 8003198:	68db      	ldr	r3, [r3, #12]
 800319a:	613b      	str	r3, [r7, #16]
        temp &= ~(GPIO_PUPDR_PUPDR0 << (position * 2u));
 800319c:	697b      	ldr	r3, [r7, #20]
 800319e:	005b      	lsls	r3, r3, #1
 80031a0:	2203      	movs	r2, #3
 80031a2:	fa02 f303 	lsl.w	r3, r2, r3
 80031a6:	43db      	mvns	r3, r3
 80031a8:	693a      	ldr	r2, [r7, #16]
 80031aa:	4013      	ands	r3, r2
 80031ac:	613b      	str	r3, [r7, #16]
        temp |= ((GPIO_Init->Pull) << (position * 2u));
 80031ae:	683b      	ldr	r3, [r7, #0]
 80031b0:	689a      	ldr	r2, [r3, #8]
 80031b2:	697b      	ldr	r3, [r7, #20]
 80031b4:	005b      	lsls	r3, r3, #1
 80031b6:	fa02 f303 	lsl.w	r3, r2, r3
 80031ba:	693a      	ldr	r2, [r7, #16]
 80031bc:	4313      	orrs	r3, r2
 80031be:	613b      	str	r3, [r7, #16]
        GPIOx->PUPDR = temp;
 80031c0:	687b      	ldr	r3, [r7, #4]
 80031c2:	693a      	ldr	r2, [r7, #16]
 80031c4:	60da      	str	r2, [r3, #12]
      }

      /*--------------------- GPIO Mode Configuration ------------------------*/
      /* In case of Alternate function mode selection */
      if((GPIO_Init->Mode & GPIO_MODE) == MODE_AF)
 80031c6:	683b      	ldr	r3, [r7, #0]
 80031c8:	685b      	ldr	r3, [r3, #4]
 80031ca:	f003 0303 	and.w	r3, r3, #3
 80031ce:	2b02      	cmp	r3, #2
 80031d0:	d123      	bne.n	800321a <HAL_GPIO_Init+0x132>
        /* Check the Alternate function parameters */
        assert_param(IS_GPIO_AF_INSTANCE(GPIOx));
        assert_param(IS_GPIO_AF(GPIO_Init->Alternate));

        /* Configure Alternate function mapped with the current IO */
        temp = GPIOx->AFR[position >> 3u];
 80031d2:	697b      	ldr	r3, [r7, #20]
 80031d4:	08da      	lsrs	r2, r3, #3
 80031d6:	687b      	ldr	r3, [r7, #4]
 80031d8:	3208      	adds	r2, #8
 80031da:	f853 3022 	ldr.w	r3, [r3, r2, lsl #2]
 80031de:	613b      	str	r3, [r7, #16]
        temp &= ~(0xFu << ((position & 0x07u) * 4u));
 80031e0:	697b      	ldr	r3, [r7, #20]
 80031e2:	f003 0307 	and.w	r3, r3, #7
 80031e6:	009b      	lsls	r3, r3, #2
 80031e8:	220f      	movs	r2, #15
 80031ea:	fa02 f303 	lsl.w	r3, r2, r3
 80031ee:	43db      	mvns	r3, r3
 80031f0:	693a      	ldr	r2, [r7, #16]
 80031f2:	4013      	ands	r3, r2
 80031f4:	613b      	str	r3, [r7, #16]
        temp |= ((GPIO_Init->Alternate) << ((position & 0x07u) * 4u));
 80031f6:	683b      	ldr	r3, [r7, #0]
 80031f8:	691a      	ldr	r2, [r3, #16]
 80031fa:	697b      	ldr	r3, [r7, #20]
 80031fc:	f003 0307 	and.w	r3, r3, #7
 8003200:	009b      	lsls	r3, r3, #2
 8003202:	fa02 f303 	lsl.w	r3, r2, r3
 8003206:	693a      	ldr	r2, [r7, #16]
 8003208:	4313      	orrs	r3, r2
 800320a:	613b      	str	r3, [r7, #16]
        GPIOx->AFR[position >> 3u] = temp;
 800320c:	697b      	ldr	r3, [r7, #20]
 800320e:	08da      	lsrs	r2, r3, #3
 8003210:	687b      	ldr	r3, [r7, #4]
 8003212:	3208      	adds	r2, #8
 8003214:	6939      	ldr	r1, [r7, #16]
 8003216:	f843 1022 	str.w	r1, [r3, r2, lsl #2]
      }

      /* Configure IO Direction mode (Input, Output, Alternate or Analog) */
      temp = GPIOx->MODER;
 800321a:	687b      	ldr	r3, [r7, #4]
 800321c:	681b      	ldr	r3, [r3, #0]
 800321e:	613b      	str	r3, [r7, #16]
      temp &= ~(GPIO_MODER_MODER0 << (position * 2u));
 8003220:	697b      	ldr	r3, [r7, #20]
 8003222:	005b      	lsls	r3, r3, #1
 8003224:	2203      	movs	r2, #3
 8003226:	fa02 f303 	lsl.w	r3, r2, r3
 800322a:	43db      	mvns	r3, r3
 800322c:	693a      	ldr	r2, [r7, #16]
 800322e:	4013      	ands	r3, r2
 8003230:	613b      	str	r3, [r7, #16]
      temp |= ((GPIO_Init->Mode & GPIO_MODE) << (position * 2u));
 8003232:	683b      	ldr	r3, [r7, #0]
 8003234:	685b      	ldr	r3, [r3, #4]
 8003236:	f003 0203 	and.w	r2, r3, #3
 800323a:	697b      	ldr	r3, [r7, #20]
 800323c:	005b      	lsls	r3, r3, #1
 800323e:	fa02 f303 	lsl.w	r3, r2, r3
 8003242:	693a      	ldr	r2, [r7, #16]
 8003244:	4313      	orrs	r3, r2
 8003246:	613b      	str	r3, [r7, #16]
      GPIOx->MODER = temp;
 8003248:	687b      	ldr	r3, [r7, #4]
 800324a:	693a      	ldr	r2, [r7, #16]
 800324c:	601a      	str	r2, [r3, #0]

      /*--------------------- EXTI Mode Configuration ------------------------*/
      /* Configure the External Interrupt or event for the current IO */
      if((GPIO_Init->Mode & EXTI_MODE) != 0x00u)
 800324e:	683b      	ldr	r3, [r7, #0]
 8003250:	685b      	ldr	r3, [r3, #4]
 8003252:	f403 3340 	and.w	r3, r3, #196608	; 0x30000
 8003256:	2b00      	cmp	r3, #0
 8003258:	f000 80a0 	beq.w	800339c <HAL_GPIO_Init+0x2b4>
      {
        /* Enable SYSCFG Clock */
        __HAL_RCC_SYSCFG_CLK_ENABLE();
 800325c:	4b58      	ldr	r3, [pc, #352]	; (80033c0 <HAL_GPIO_Init+0x2d8>)
 800325e:	699b      	ldr	r3, [r3, #24]
 8003260:	4a57      	ldr	r2, [pc, #348]	; (80033c0 <HAL_GPIO_Init+0x2d8>)
 8003262:	f043 0301 	orr.w	r3, r3, #1
 8003266:	6193      	str	r3, [r2, #24]
 8003268:	4b55      	ldr	r3, [pc, #340]	; (80033c0 <HAL_GPIO_Init+0x2d8>)
 800326a:	699b      	ldr	r3, [r3, #24]
 800326c:	f003 0301 	and.w	r3, r3, #1
 8003270:	60bb      	str	r3, [r7, #8]
 8003272:	68bb      	ldr	r3, [r7, #8]

        temp = SYSCFG->EXTICR[position >> 2u];
 8003274:	4a53      	ldr	r2, [pc, #332]	; (80033c4 <HAL_GPIO_Init+0x2dc>)
 8003276:	697b      	ldr	r3, [r7, #20]
 8003278:	089b      	lsrs	r3, r3, #2
 800327a:	3302      	adds	r3, #2
 800327c:	f852 3023 	ldr.w	r3, [r2, r3, lsl #2]
 8003280:	613b      	str	r3, [r7, #16]
        temp &= ~(0x0FuL << (4u * (position & 0x03u)));
 8003282:	697b      	ldr	r3, [r7, #20]
 8003284:	f003 0303 	and.w	r3, r3, #3
 8003288:	009b      	lsls	r3, r3, #2
 800328a:	220f      	movs	r2, #15
 800328c:	fa02 f303 	lsl.w	r3, r2, r3
 8003290:	43db      	mvns	r3, r3
 8003292:	693a      	ldr	r2, [r7, #16]
 8003294:	4013      	ands	r3, r2
 8003296:	613b      	str	r3, [r7, #16]
        temp |= (GPIO_GET_INDEX(GPIOx) << (4u * (position & 0x03u)));
 8003298:	687b      	ldr	r3, [r7, #4]
 800329a:	f1b3 4f90 	cmp.w	r3, #1207959552	; 0x48000000
 800329e:	d019      	beq.n	80032d4 <HAL_GPIO_Init+0x1ec>
 80032a0:	687b      	ldr	r3, [r7, #4]
 80032a2:	4a49      	ldr	r2, [pc, #292]	; (80033c8 <HAL_GPIO_Init+0x2e0>)
 80032a4:	4293      	cmp	r3, r2
 80032a6:	d013      	beq.n	80032d0 <HAL_GPIO_Init+0x1e8>
 80032a8:	687b      	ldr	r3, [r7, #4]
 80032aa:	4a48      	ldr	r2, [pc, #288]	; (80033cc <HAL_GPIO_Init+0x2e4>)
 80032ac:	4293      	cmp	r3, r2
 80032ae:	d00d      	beq.n	80032cc <HAL_GPIO_Init+0x1e4>
 80032b0:	687b      	ldr	r3, [r7, #4]
 80032b2:	4a47      	ldr	r2, [pc, #284]	; (80033d0 <HAL_GPIO_Init+0x2e8>)
 80032b4:	4293      	cmp	r3, r2
 80032b6:	d007      	beq.n	80032c8 <HAL_GPIO_Init+0x1e0>
 80032b8:	687b      	ldr	r3, [r7, #4]
 80032ba:	4a46      	ldr	r2, [pc, #280]	; (80033d4 <HAL_GPIO_Init+0x2ec>)
 80032bc:	4293      	cmp	r3, r2
 80032be:	d101      	bne.n	80032c4 <HAL_GPIO_Init+0x1dc>
 80032c0:	2304      	movs	r3, #4
 80032c2:	e008      	b.n	80032d6 <HAL_GPIO_Init+0x1ee>
 80032c4:	2305      	movs	r3, #5
 80032c6:	e006      	b.n	80032d6 <HAL_GPIO_Init+0x1ee>
 80032c8:	2303      	movs	r3, #3
 80032ca:	e004      	b.n	80032d6 <HAL_GPIO_Init+0x1ee>
 80032cc:	2302      	movs	r3, #2
 80032ce:	e002      	b.n	80032d6 <HAL_GPIO_Init+0x1ee>
 80032d0:	2301      	movs	r3, #1
 80032d2:	e000      	b.n	80032d6 <HAL_GPIO_Init+0x1ee>
 80032d4:	2300      	movs	r3, #0
 80032d6:	697a      	ldr	r2, [r7, #20]
 80032d8:	f002 0203 	and.w	r2, r2, #3
 80032dc:	0092      	lsls	r2, r2, #2
 80032de:	4093      	lsls	r3, r2
 80032e0:	693a      	ldr	r2, [r7, #16]
 80032e2:	4313      	orrs	r3, r2
 80032e4:	613b      	str	r3, [r7, #16]
        SYSCFG->EXTICR[position >> 2u] = temp;
 80032e6:	4937      	ldr	r1, [pc, #220]	; (80033c4 <HAL_GPIO_Init+0x2dc>)
 80032e8:	697b      	ldr	r3, [r7, #20]
 80032ea:	089b      	lsrs	r3, r3, #2
 80032ec:	3302      	adds	r3, #2
 80032ee:	693a      	ldr	r2, [r7, #16]
 80032f0:	f841 2023 	str.w	r2, [r1, r3, lsl #2]

        /* Clear Rising Falling edge configuration */
        temp = EXTI->RTSR;
 80032f4:	4b38      	ldr	r3, [pc, #224]	; (80033d8 <HAL_GPIO_Init+0x2f0>)
 80032f6:	689b      	ldr	r3, [r3, #8]
 80032f8:	613b      	str	r3, [r7, #16]
        temp &= ~(iocurrent);
 80032fa:	68fb      	ldr	r3, [r7, #12]
 80032fc:	43db      	mvns	r3, r3
 80032fe:	693a      	ldr	r2, [r7, #16]
 8003300:	4013      	ands	r3, r2
 8003302:	613b      	str	r3, [r7, #16]
        if((GPIO_Init->Mode & TRIGGER_RISING) != 0x00u)
 8003304:	683b      	ldr	r3, [r7, #0]
 8003306:	685b      	ldr	r3, [r3, #4]
 8003308:	f403 1380 	and.w	r3, r3, #1048576	; 0x100000
 800330c:	2b00      	cmp	r3, #0
 800330e:	d003      	beq.n	8003318 <HAL_GPIO_Init+0x230>
        {
          temp |= iocurrent;
 8003310:	693a      	ldr	r2, [r7, #16]
 8003312:	68fb      	ldr	r3, [r7, #12]
 8003314:	4313      	orrs	r3, r2
 8003316:	613b      	str	r3, [r7, #16]
        }
        EXTI->RTSR = temp;
 8003318:	4a2f      	ldr	r2, [pc, #188]	; (80033d8 <HAL_GPIO_Init+0x2f0>)
 800331a:	693b      	ldr	r3, [r7, #16]
 800331c:	6093      	str	r3, [r2, #8]

        temp = EXTI->FTSR;
 800331e:	4b2e      	ldr	r3, [pc, #184]	; (80033d8 <HAL_GPIO_Init+0x2f0>)
 8003320:	68db      	ldr	r3, [r3, #12]
 8003322:	613b      	str	r3, [r7, #16]
        temp &= ~(iocurrent);
 8003324:	68fb      	ldr	r3, [r7, #12]
 8003326:	43db      	mvns	r3, r3
 8003328:	693a      	ldr	r2, [r7, #16]
 800332a:	4013      	ands	r3, r2
 800332c:	613b      	str	r3, [r7, #16]
        if((GPIO_Init->Mode & TRIGGER_FALLING) != 0x00u)
 800332e:	683b      	ldr	r3, [r7, #0]
 8003330:	685b      	ldr	r3, [r3, #4]
 8003332:	f403 1300 	and.w	r3, r3, #2097152	; 0x200000
 8003336:	2b00      	cmp	r3, #0
 8003338:	d003      	beq.n	8003342 <HAL_GPIO_Init+0x25a>
        {
          temp |= iocurrent;
 800333a:	693a      	ldr	r2, [r7, #16]
 800333c:	68fb      	ldr	r3, [r7, #12]
 800333e:	4313      	orrs	r3, r2
 8003340:	613b      	str	r3, [r7, #16]
        }
        EXTI->FTSR = temp;
 8003342:	4a25      	ldr	r2, [pc, #148]	; (80033d8 <HAL_GPIO_Init+0x2f0>)
 8003344:	693b      	ldr	r3, [r7, #16]
 8003346:	60d3      	str	r3, [r2, #12]

        temp = EXTI->EMR;
 8003348:	4b23      	ldr	r3, [pc, #140]	; (80033d8 <HAL_GPIO_Init+0x2f0>)
 800334a:	685b      	ldr	r3, [r3, #4]
 800334c:	613b      	str	r3, [r7, #16]
        temp &= ~(iocurrent);
 800334e:	68fb      	ldr	r3, [r7, #12]
 8003350:	43db      	mvns	r3, r3
 8003352:	693a      	ldr	r2, [r7, #16]
 8003354:	4013      	ands	r3, r2
 8003356:	613b      	str	r3, [r7, #16]
        if((GPIO_Init->Mode & EXTI_EVT) != 0x00u)
 8003358:	683b      	ldr	r3, [r7, #0]
 800335a:	685b      	ldr	r3, [r3, #4]
 800335c:	f403 3300 	and.w	r3, r3, #131072	; 0x20000
 8003360:	2b00      	cmp	r3, #0
 8003362:	d003      	beq.n	800336c <HAL_GPIO_Init+0x284>
        {
          temp |= iocurrent;
 8003364:	693a      	ldr	r2, [r7, #16]
 8003366:	68fb      	ldr	r3, [r7, #12]
 8003368:	4313      	orrs	r3, r2
 800336a:	613b      	str	r3, [r7, #16]
        }
        EXTI->EMR = temp;
 800336c:	4a1a      	ldr	r2, [pc, #104]	; (80033d8 <HAL_GPIO_Init+0x2f0>)
 800336e:	693b      	ldr	r3, [r7, #16]
 8003370:	6053      	str	r3, [r2, #4]

        /* Clear EXTI line configuration */
        temp = EXTI->IMR;
 8003372:	4b19      	ldr	r3, [pc, #100]	; (80033d8 <HAL_GPIO_Init+0x2f0>)
 8003374:	681b      	ldr	r3, [r3, #0]
 8003376:	613b      	str	r3, [r7, #16]
        temp &= ~(iocurrent);
 8003378:	68fb      	ldr	r3, [r7, #12]
 800337a:	43db      	mvns	r3, r3
 800337c:	693a      	ldr	r2, [r7, #16]
 800337e:	4013      	ands	r3, r2
 8003380:	613b      	str	r3, [r7, #16]
        if((GPIO_Init->Mode & EXTI_IT) != 0x00u)
 8003382:	683b      	ldr	r3, [r7, #0]
 8003384:	685b      	ldr	r3, [r3, #4]
 8003386:	f403 3380 	and.w	r3, r3, #65536	; 0x10000
 800338a:	2b00      	cmp	r3, #0
 800338c:	d003      	beq.n	8003396 <HAL_GPIO_Init+0x2ae>
        {
          temp |= iocurrent;
 800338e:	693a      	ldr	r2, [r7, #16]
 8003390:	68fb      	ldr	r3, [r7, #12]
 8003392:	4313      	orrs	r3, r2
 8003394:	613b      	str	r3, [r7, #16]
        }
        EXTI->IMR = temp;
 8003396:	4a10      	ldr	r2, [pc, #64]	; (80033d8 <HAL_GPIO_Init+0x2f0>)
 8003398:	693b      	ldr	r3, [r7, #16]
 800339a:	6013      	str	r3, [r2, #0]
      }
    }

    position++;
 800339c:	697b      	ldr	r3, [r7, #20]
 800339e:	3301      	adds	r3, #1
 80033a0:	617b      	str	r3, [r7, #20]
  while (((GPIO_Init->Pin) >> position) != 0x00u)
 80033a2:	683b      	ldr	r3, [r7, #0]
 80033a4:	681a      	ldr	r2, [r3, #0]
 80033a6:	697b      	ldr	r3, [r7, #20]
 80033a8:	fa22 f303 	lsr.w	r3, r2, r3
 80033ac:	2b00      	cmp	r3, #0
 80033ae:	f47f aea3 	bne.w	80030f8 <HAL_GPIO_Init+0x10>
  }
}
 80033b2:	bf00      	nop
 80033b4:	bf00      	nop
 80033b6:	371c      	adds	r7, #28
 80033b8:	46bd      	mov	sp, r7
 80033ba:	f85d 7b04 	ldr.w	r7, [sp], #4
 80033be:	4770      	bx	lr
 80033c0:	40021000 	.word	0x40021000
 80033c4:	40010000 	.word	0x40010000
 80033c8:	48000400 	.word	0x48000400
 80033cc:	48000800 	.word	0x48000800
 80033d0:	48000c00 	.word	0x48000c00
 80033d4:	48001000 	.word	0x48001000
 80033d8:	40010400 	.word	0x40010400

080033dc <HAL_GPIO_ReadPin>:
  * @param  GPIO_Pin specifies the port bit to read.
  *         This parameter can be GPIO_PIN_x where x can be (0..15).
  * @retval The input port pin value.
  */
GPIO_PinState HAL_GPIO_ReadPin(GPIO_TypeDef* GPIOx, uint16_t GPIO_Pin)
{
 80033dc:	b480      	push	{r7}
 80033de:	b085      	sub	sp, #20
 80033e0:	af00      	add	r7, sp, #0
 80033e2:	6078      	str	r0, [r7, #4]
 80033e4:	460b      	mov	r3, r1
 80033e6:	807b      	strh	r3, [r7, #2]
  GPIO_PinState bitstatus;

  /* Check the parameters */
  assert_param(IS_GPIO_PIN(GPIO_Pin));

  if((GPIOx->IDR & GPIO_Pin) != (uint32_t)GPIO_PIN_RESET)
 80033e8:	687b      	ldr	r3, [r7, #4]
 80033ea:	691a      	ldr	r2, [r3, #16]
 80033ec:	887b      	ldrh	r3, [r7, #2]
 80033ee:	4013      	ands	r3, r2
 80033f0:	2b00      	cmp	r3, #0
 80033f2:	d002      	beq.n	80033fa <HAL_GPIO_ReadPin+0x1e>
  {
    bitstatus = GPIO_PIN_SET;
 80033f4:	2301      	movs	r3, #1
 80033f6:	73fb      	strb	r3, [r7, #15]
 80033f8:	e001      	b.n	80033fe <HAL_GPIO_ReadPin+0x22>
  }
  else
  {
    bitstatus = GPIO_PIN_RESET;
 80033fa:	2300      	movs	r3, #0
 80033fc:	73fb      	strb	r3, [r7, #15]
  }
  return bitstatus;
 80033fe:	7bfb      	ldrb	r3, [r7, #15]
}
 8003400:	4618      	mov	r0, r3
 8003402:	3714      	adds	r7, #20
 8003404:	46bd      	mov	sp, r7
 8003406:	f85d 7b04 	ldr.w	r7, [sp], #4
 800340a:	4770      	bx	lr

0800340c <HAL_GPIO_WritePin>:
  *            @arg GPIO_PIN_RESET: to clear the port pin
  *            @arg GPIO_PIN_SET: to set the port pin
  * @retval None
  */
void HAL_GPIO_WritePin(GPIO_TypeDef* GPIOx, uint16_t GPIO_Pin, GPIO_PinState PinState)
{
 800340c:	b480      	push	{r7}
 800340e:	b083      	sub	sp, #12
 8003410:	af00      	add	r7, sp, #0
 8003412:	6078      	str	r0, [r7, #4]
 8003414:	460b      	mov	r3, r1
 8003416:	807b      	strh	r3, [r7, #2]
 8003418:	4613      	mov	r3, r2
 800341a:	707b      	strb	r3, [r7, #1]
  /* Check the parameters */
  assert_param(IS_GPIO_PIN(GPIO_Pin));
  assert_param(IS_GPIO_PIN_ACTION(PinState));

  if(PinState != GPIO_PIN_RESET)
 800341c:	787b      	ldrb	r3, [r7, #1]
 800341e:	2b00      	cmp	r3, #0
 8003420:	d003      	beq.n	800342a <HAL_GPIO_WritePin+0x1e>
  {
    GPIOx->BSRR = (uint32_t)GPIO_Pin;
 8003422:	887a      	ldrh	r2, [r7, #2]
 8003424:	687b      	ldr	r3, [r7, #4]
 8003426:	619a      	str	r2, [r3, #24]
  }
  else
  {
    GPIOx->BRR = (uint32_t)GPIO_Pin;
  }
}
 8003428:	e002      	b.n	8003430 <HAL_GPIO_WritePin+0x24>
    GPIOx->BRR = (uint32_t)GPIO_Pin;
 800342a:	887a      	ldrh	r2, [r7, #2]
 800342c:	687b      	ldr	r3, [r7, #4]
 800342e:	629a      	str	r2, [r3, #40]	; 0x28
}
 8003430:	bf00      	nop
 8003432:	370c      	adds	r7, #12
 8003434:	46bd      	mov	sp, r7
 8003436:	f85d 7b04 	ldr.w	r7, [sp], #4
 800343a:	4770      	bx	lr

0800343c <HAL_I2C_Init>:
  * @param  hi2c Pointer to a I2C_HandleTypeDef structure that contains
  *                the configuration information for the specified I2C.
  * @retval HAL status
  */
HAL_StatusTypeDef HAL_I2C_Init(I2C_HandleTypeDef *hi2c)
{
 800343c:	b580      	push	{r7, lr}
 800343e:	b082      	sub	sp, #8
 8003440:	af00      	add	r7, sp, #0
 8003442:	6078      	str	r0, [r7, #4]
  /* Check the I2C handle allocation */
  if (hi2c == NULL)
 8003444:	687b      	ldr	r3, [r7, #4]
 8003446:	2b00      	cmp	r3, #0
 8003448:	d101      	bne.n	800344e <HAL_I2C_Init+0x12>
  {
    return HAL_ERROR;
 800344a:	2301      	movs	r3, #1
 800344c:	e081      	b.n	8003552 <HAL_I2C_Init+0x116>
  assert_param(IS_I2C_OWN_ADDRESS2(hi2c->Init.OwnAddress2));
  assert_param(IS_I2C_OWN_ADDRESS2_MASK(hi2c->Init.OwnAddress2Masks));
  assert_param(IS_I2C_GENERAL_CALL(hi2c->Init.GeneralCallMode));
  assert_param(IS_I2C_NO_STRETCH(hi2c->Init.NoStretchMode));

  if (hi2c->State == HAL_I2C_STATE_RESET)
 800344e:	687b      	ldr	r3, [r7, #4]
 8003450:	f893 3041 	ldrb.w	r3, [r3, #65]	; 0x41
 8003454:	b2db      	uxtb	r3, r3
 8003456:	2b00      	cmp	r3, #0
 8003458:	d106      	bne.n	8003468 <HAL_I2C_Init+0x2c>
  {
    /* Allocate lock resource and initialize it */
    hi2c->Lock = HAL_UNLOCKED;
 800345a:	687b      	ldr	r3, [r7, #4]
 800345c:	2200      	movs	r2, #0
 800345e:	f883 2040 	strb.w	r2, [r3, #64]	; 0x40

    /* Init the low level hardware : GPIO, CLOCK, CORTEX...etc */
    hi2c->MspInitCallback(hi2c);
#else
    /* Init the low level hardware : GPIO, CLOCK, CORTEX...etc */
    HAL_I2C_MspInit(hi2c);
 8003462:	6878      	ldr	r0, [r7, #4]
 8003464:	f7ff f9a6 	bl	80027b4 <HAL_I2C_MspInit>
#endif /* USE_HAL_I2C_REGISTER_CALLBACKS */
  }

  hi2c->State = HAL_I2C_STATE_BUSY;
 8003468:	687b      	ldr	r3, [r7, #4]
 800346a:	2224      	movs	r2, #36	; 0x24
 800346c:	f883 2041 	strb.w	r2, [r3, #65]	; 0x41

  /* Disable the selected I2C peripheral */
  __HAL_I2C_DISABLE(hi2c);
 8003470:	687b      	ldr	r3, [r7, #4]
 8003472:	681b      	ldr	r3, [r3, #0]
 8003474:	681a      	ldr	r2, [r3, #0]
 8003476:	687b      	ldr	r3, [r7, #4]
 8003478:	681b      	ldr	r3, [r3, #0]
 800347a:	f022 0201 	bic.w	r2, r2, #1
 800347e:	601a      	str	r2, [r3, #0]

  /*---------------------------- I2Cx TIMINGR Configuration ------------------*/
  /* Configure I2Cx: Frequency range */
  hi2c->Instance->TIMINGR = hi2c->Init.Timing & TIMING_CLEAR_MASK;
 8003480:	687b      	ldr	r3, [r7, #4]
 8003482:	685a      	ldr	r2, [r3, #4]
 8003484:	687b      	ldr	r3, [r7, #4]
 8003486:	681b      	ldr	r3, [r3, #0]
 8003488:	f022 6270 	bic.w	r2, r2, #251658240	; 0xf000000
 800348c:	611a      	str	r2, [r3, #16]

  /*---------------------------- I2Cx OAR1 Configuration ---------------------*/
  /* Disable Own Address1 before set the Own Address1 configuration */
  hi2c->Instance->OAR1 &= ~I2C_OAR1_OA1EN;
 800348e:	687b      	ldr	r3, [r7, #4]
 8003490:	681b      	ldr	r3, [r3, #0]
 8003492:	689a      	ldr	r2, [r3, #8]
 8003494:	687b      	ldr	r3, [r7, #4]
 8003496:	681b      	ldr	r3, [r3, #0]
 8003498:	f422 4200 	bic.w	r2, r2, #32768	; 0x8000
 800349c:	609a      	str	r2, [r3, #8]

  /* Configure I2Cx: Own Address1 and ack own address1 mode */
  if (hi2c->Init.AddressingMode == I2C_ADDRESSINGMODE_7BIT)
 800349e:	687b      	ldr	r3, [r7, #4]
 80034a0:	68db      	ldr	r3, [r3, #12]
 80034a2:	2b01      	cmp	r3, #1
 80034a4:	d107      	bne.n	80034b6 <HAL_I2C_Init+0x7a>
  {
    hi2c->Instance->OAR1 = (I2C_OAR1_OA1EN | hi2c->Init.OwnAddress1);
 80034a6:	687b      	ldr	r3, [r7, #4]
 80034a8:	689a      	ldr	r2, [r3, #8]
 80034aa:	687b      	ldr	r3, [r7, #4]
 80034ac:	681b      	ldr	r3, [r3, #0]
 80034ae:	f442 4200 	orr.w	r2, r2, #32768	; 0x8000
 80034b2:	609a      	str	r2, [r3, #8]
 80034b4:	e006      	b.n	80034c4 <HAL_I2C_Init+0x88>
  }
  else /* I2C_ADDRESSINGMODE_10BIT */
  {
    hi2c->Instance->OAR1 = (I2C_OAR1_OA1EN | I2C_OAR1_OA1MODE | hi2c->Init.OwnAddress1);
 80034b6:	687b      	ldr	r3, [r7, #4]
 80034b8:	689a      	ldr	r2, [r3, #8]
 80034ba:	687b      	ldr	r3, [r7, #4]
 80034bc:	681b      	ldr	r3, [r3, #0]
 80034be:	f442 4204 	orr.w	r2, r2, #33792	; 0x8400
 80034c2:	609a      	str	r2, [r3, #8]
  }

  /*---------------------------- I2Cx CR2 Configuration ----------------------*/
  /* Configure I2Cx: Addressing Master mode */
  if (hi2c->Init.AddressingMode == I2C_ADDRESSINGMODE_10BIT)
 80034c4:	687b      	ldr	r3, [r7, #4]
 80034c6:	68db      	ldr	r3, [r3, #12]
 80034c8:	2b02      	cmp	r3, #2
 80034ca:	d104      	bne.n	80034d6 <HAL_I2C_Init+0x9a>
  {
    hi2c->Instance->CR2 = (I2C_CR2_ADD10);
 80034cc:	687b      	ldr	r3, [r7, #4]
 80034ce:	681b      	ldr	r3, [r3, #0]
 80034d0:	f44f 6200 	mov.w	r2, #2048	; 0x800
 80034d4:	605a      	str	r2, [r3, #4]
  }
  /* Enable the AUTOEND by default, and enable NACK (should be disable only during Slave process */
  hi2c->Instance->CR2 |= (I2C_CR2_AUTOEND | I2C_CR2_NACK);
 80034d6:	687b      	ldr	r3, [r7, #4]
 80034d8:	681b      	ldr	r3, [r3, #0]
 80034da:	685b      	ldr	r3, [r3, #4]
 80034dc:	687a      	ldr	r2, [r7, #4]
 80034de:	6812      	ldr	r2, [r2, #0]
 80034e0:	f043 7300 	orr.w	r3, r3, #33554432	; 0x2000000
 80034e4:	f443 4300 	orr.w	r3, r3, #32768	; 0x8000
 80034e8:	6053      	str	r3, [r2, #4]

  /*---------------------------- I2Cx OAR2 Configuration ---------------------*/
  /* Disable Own Address2 before set the Own Address2 configuration */
  hi2c->Instance->OAR2 &= ~I2C_DUALADDRESS_ENABLE;
 80034ea:	687b      	ldr	r3, [r7, #4]
 80034ec:	681b      	ldr	r3, [r3, #0]
 80034ee:	68da      	ldr	r2, [r3, #12]
 80034f0:	687b      	ldr	r3, [r7, #4]
 80034f2:	681b      	ldr	r3, [r3, #0]
 80034f4:	f422 4200 	bic.w	r2, r2, #32768	; 0x8000
 80034f8:	60da      	str	r2, [r3, #12]

  /* Configure I2Cx: Dual mode and Own Address2 */
  hi2c->Instance->OAR2 = (hi2c->Init.DualAddressMode | hi2c->Init.OwnAddress2 | \
 80034fa:	687b      	ldr	r3, [r7, #4]
 80034fc:	691a      	ldr	r2, [r3, #16]
 80034fe:	687b      	ldr	r3, [r7, #4]
 8003500:	695b      	ldr	r3, [r3, #20]
 8003502:	ea42 0103 	orr.w	r1, r2, r3
                          (hi2c->Init.OwnAddress2Masks << 8));
 8003506:	687b      	ldr	r3, [r7, #4]
 8003508:	699b      	ldr	r3, [r3, #24]
 800350a:	021a      	lsls	r2, r3, #8
  hi2c->Instance->OAR2 = (hi2c->Init.DualAddressMode | hi2c->Init.OwnAddress2 | \
 800350c:	687b      	ldr	r3, [r7, #4]
 800350e:	681b      	ldr	r3, [r3, #0]
 8003510:	430a      	orrs	r2, r1
 8003512:	60da      	str	r2, [r3, #12]

  /*---------------------------- I2Cx CR1 Configuration ----------------------*/
  /* Configure I2Cx: Generalcall and NoStretch mode */
  hi2c->Instance->CR1 = (hi2c->Init.GeneralCallMode | hi2c->Init.NoStretchMode);
 8003514:	687b      	ldr	r3, [r7, #4]
 8003516:	69d9      	ldr	r1, [r3, #28]
 8003518:	687b      	ldr	r3, [r7, #4]
 800351a:	6a1a      	ldr	r2, [r3, #32]
 800351c:	687b      	ldr	r3, [r7, #4]
 800351e:	681b      	ldr	r3, [r3, #0]
 8003520:	430a      	orrs	r2, r1
 8003522:	601a      	str	r2, [r3, #0]

  /* Enable the selected I2C peripheral */
  __HAL_I2C_ENABLE(hi2c);
 8003524:	687b      	ldr	r3, [r7, #4]
 8003526:	681b      	ldr	r3, [r3, #0]
 8003528:	681a      	ldr	r2, [r3, #0]
 800352a:	687b      	ldr	r3, [r7, #4]
 800352c:	681b      	ldr	r3, [r3, #0]
 800352e:	f042 0201 	orr.w	r2, r2, #1
 8003532:	601a      	str	r2, [r3, #0]

  hi2c->ErrorCode = HAL_I2C_ERROR_NONE;
 8003534:	687b      	ldr	r3, [r7, #4]
 8003536:	2200      	movs	r2, #0
 8003538:	645a      	str	r2, [r3, #68]	; 0x44
  hi2c->State = HAL_I2C_STATE_READY;
 800353a:	687b      	ldr	r3, [r7, #4]
 800353c:	2220      	movs	r2, #32
 800353e:	f883 2041 	strb.w	r2, [r3, #65]	; 0x41
  hi2c->PreviousState = I2C_STATE_NONE;
 8003542:	687b      	ldr	r3, [r7, #4]
 8003544:	2200      	movs	r2, #0
 8003546:	631a      	str	r2, [r3, #48]	; 0x30
  hi2c->Mode = HAL_I2C_MODE_NONE;
 8003548:	687b      	ldr	r3, [r7, #4]
 800354a:	2200      	movs	r2, #0
 800354c:	f883 2042 	strb.w	r2, [r3, #66]	; 0x42

  return HAL_OK;
 8003550:	2300      	movs	r3, #0
}
 8003552:	4618      	mov	r0, r3
 8003554:	3708      	adds	r7, #8
 8003556:	46bd      	mov	sp, r7
 8003558:	bd80      	pop	{r7, pc}
	...

0800355c <HAL_I2C_Mem_Write>:
  * @param  Timeout Timeout duration
  * @retval HAL status
  */
HAL_StatusTypeDef HAL_I2C_Mem_Write(I2C_HandleTypeDef *hi2c, uint16_t DevAddress, uint16_t MemAddress,
                                    uint16_t MemAddSize, uint8_t *pData, uint16_t Size, uint32_t Timeout)
{
 800355c:	b580      	push	{r7, lr}
 800355e:	b088      	sub	sp, #32
 8003560:	af02      	add	r7, sp, #8
 8003562:	60f8      	str	r0, [r7, #12]
 8003564:	4608      	mov	r0, r1
 8003566:	4611      	mov	r1, r2
 8003568:	461a      	mov	r2, r3
 800356a:	4603      	mov	r3, r0
 800356c:	817b      	strh	r3, [r7, #10]
 800356e:	460b      	mov	r3, r1
 8003570:	813b      	strh	r3, [r7, #8]
 8003572:	4613      	mov	r3, r2
 8003574:	80fb      	strh	r3, [r7, #6]
  uint32_t tickstart;

  /* Check the parameters */
  assert_param(IS_I2C_MEMADD_SIZE(MemAddSize));

  if (hi2c->State == HAL_I2C_STATE_READY)
 8003576:	68fb      	ldr	r3, [r7, #12]
 8003578:	f893 3041 	ldrb.w	r3, [r3, #65]	; 0x41
 800357c:	b2db      	uxtb	r3, r3
 800357e:	2b20      	cmp	r3, #32
 8003580:	f040 80f9 	bne.w	8003776 <HAL_I2C_Mem_Write+0x21a>
  {
    if ((pData == NULL) || (Size == 0U))
 8003584:	6a3b      	ldr	r3, [r7, #32]
 8003586:	2b00      	cmp	r3, #0
 8003588:	d002      	beq.n	8003590 <HAL_I2C_Mem_Write+0x34>
 800358a:	8cbb      	ldrh	r3, [r7, #36]	; 0x24
 800358c:	2b00      	cmp	r3, #0
 800358e:	d105      	bne.n	800359c <HAL_I2C_Mem_Write+0x40>
    {
      hi2c->ErrorCode = HAL_I2C_ERROR_INVALID_PARAM;
 8003590:	68fb      	ldr	r3, [r7, #12]
 8003592:	f44f 7200 	mov.w	r2, #512	; 0x200
 8003596:	645a      	str	r2, [r3, #68]	; 0x44
      return  HAL_ERROR;
 8003598:	2301      	movs	r3, #1
 800359a:	e0ed      	b.n	8003778 <HAL_I2C_Mem_Write+0x21c>
    }

    /* Process Locked */
    __HAL_LOCK(hi2c);
 800359c:	68fb      	ldr	r3, [r7, #12]
 800359e:	f893 3040 	ldrb.w	r3, [r3, #64]	; 0x40
 80035a2:	2b01      	cmp	r3, #1
 80035a4:	d101      	bne.n	80035aa <HAL_I2C_Mem_Write+0x4e>
 80035a6:	2302      	movs	r3, #2
 80035a8:	e0e6      	b.n	8003778 <HAL_I2C_Mem_Write+0x21c>
 80035aa:	68fb      	ldr	r3, [r7, #12]
 80035ac:	2201      	movs	r2, #1
 80035ae:	f883 2040 	strb.w	r2, [r3, #64]	; 0x40

    /* Init tickstart for timeout management*/
    tickstart = HAL_GetTick();
 80035b2:	f7ff fc57 	bl	8002e64 <HAL_GetTick>
 80035b6:	6178      	str	r0, [r7, #20]

    if (I2C_WaitOnFlagUntilTimeout(hi2c, I2C_FLAG_BUSY, SET, I2C_TIMEOUT_BUSY, tickstart) != HAL_OK)
 80035b8:	697b      	ldr	r3, [r7, #20]
 80035ba:	9300      	str	r3, [sp, #0]
 80035bc:	2319      	movs	r3, #25
 80035be:	2201      	movs	r2, #1
 80035c0:	f44f 4100 	mov.w	r1, #32768	; 0x8000
 80035c4:	68f8      	ldr	r0, [r7, #12]
 80035c6:	f000 fac3 	bl	8003b50 <I2C_WaitOnFlagUntilTimeout>
 80035ca:	4603      	mov	r3, r0
 80035cc:	2b00      	cmp	r3, #0
 80035ce:	d001      	beq.n	80035d4 <HAL_I2C_Mem_Write+0x78>
    {
      return HAL_ERROR;
 80035d0:	2301      	movs	r3, #1
 80035d2:	e0d1      	b.n	8003778 <HAL_I2C_Mem_Write+0x21c>
    }

    hi2c->State     = HAL_I2C_STATE_BUSY_TX;
 80035d4:	68fb      	ldr	r3, [r7, #12]
 80035d6:	2221      	movs	r2, #33	; 0x21
 80035d8:	f883 2041 	strb.w	r2, [r3, #65]	; 0x41
    hi2c->Mode      = HAL_I2C_MODE_MEM;
 80035dc:	68fb      	ldr	r3, [r7, #12]
 80035de:	2240      	movs	r2, #64	; 0x40
 80035e0:	f883 2042 	strb.w	r2, [r3, #66]	; 0x42
    hi2c->ErrorCode = HAL_I2C_ERROR_NONE;
 80035e4:	68fb      	ldr	r3, [r7, #12]
 80035e6:	2200      	movs	r2, #0
 80035e8:	645a      	str	r2, [r3, #68]	; 0x44

    /* Prepare transfer parameters */
    hi2c->pBuffPtr  = pData;
 80035ea:	68fb      	ldr	r3, [r7, #12]
 80035ec:	6a3a      	ldr	r2, [r7, #32]
 80035ee:	625a      	str	r2, [r3, #36]	; 0x24
    hi2c->XferCount = Size;
 80035f0:	68fb      	ldr	r3, [r7, #12]
 80035f2:	8cba      	ldrh	r2, [r7, #36]	; 0x24
 80035f4:	855a      	strh	r2, [r3, #42]	; 0x2a
    hi2c->XferISR   = NULL;
 80035f6:	68fb      	ldr	r3, [r7, #12]
 80035f8:	2200      	movs	r2, #0
 80035fa:	635a      	str	r2, [r3, #52]	; 0x34

    /* Send Slave Address and Memory Address */
    if (I2C_RequestMemoryWrite(hi2c, DevAddress, MemAddress, MemAddSize, Timeout, tickstart) != HAL_OK)
 80035fc:	88f8      	ldrh	r0, [r7, #6]
 80035fe:	893a      	ldrh	r2, [r7, #8]
 8003600:	8979      	ldrh	r1, [r7, #10]
 8003602:	697b      	ldr	r3, [r7, #20]
 8003604:	9301      	str	r3, [sp, #4]
 8003606:	6abb      	ldr	r3, [r7, #40]	; 0x28
 8003608:	9300      	str	r3, [sp, #0]
 800360a:	4603      	mov	r3, r0
 800360c:	68f8      	ldr	r0, [r7, #12]
 800360e:	f000 f9d3 	bl	80039b8 <I2C_RequestMemoryWrite>
 8003612:	4603      	mov	r3, r0
 8003614:	2b00      	cmp	r3, #0
 8003616:	d005      	beq.n	8003624 <HAL_I2C_Mem_Write+0xc8>
    {
      /* Process Unlocked */
      __HAL_UNLOCK(hi2c);
 8003618:	68fb      	ldr	r3, [r7, #12]
 800361a:	2200      	movs	r2, #0
 800361c:	f883 2040 	strb.w	r2, [r3, #64]	; 0x40
      return HAL_ERROR;
 8003620:	2301      	movs	r3, #1
 8003622:	e0a9      	b.n	8003778 <HAL_I2C_Mem_Write+0x21c>
    }

    /* Set NBYTES to write and reload if hi2c->XferCount > MAX_NBYTE_SIZE */
    if (hi2c->XferCount > MAX_NBYTE_SIZE)
 8003624:	68fb      	ldr	r3, [r7, #12]
 8003626:	8d5b      	ldrh	r3, [r3, #42]	; 0x2a
 8003628:	b29b      	uxth	r3, r3
 800362a:	2bff      	cmp	r3, #255	; 0xff
 800362c:	d90e      	bls.n	800364c <HAL_I2C_Mem_Write+0xf0>
    {
      hi2c->XferSize = MAX_NBYTE_SIZE;
 800362e:	68fb      	ldr	r3, [r7, #12]
 8003630:	22ff      	movs	r2, #255	; 0xff
 8003632:	851a      	strh	r2, [r3, #40]	; 0x28
      I2C_TransferConfig(hi2c, DevAddress, (uint8_t)hi2c->XferSize, I2C_RELOAD_MODE, I2C_NO_STARTSTOP);
 8003634:	68fb      	ldr	r3, [r7, #12]
 8003636:	8d1b      	ldrh	r3, [r3, #40]	; 0x28
 8003638:	b2da      	uxtb	r2, r3
 800363a:	8979      	ldrh	r1, [r7, #10]
 800363c:	2300      	movs	r3, #0
 800363e:	9300      	str	r3, [sp, #0]
 8003640:	f04f 7380 	mov.w	r3, #16777216	; 0x1000000
 8003644:	68f8      	ldr	r0, [r7, #12]
 8003646:	f000 fc3d 	bl	8003ec4 <I2C_TransferConfig>
 800364a:	e00f      	b.n	800366c <HAL_I2C_Mem_Write+0x110>
    }
    else
    {
      hi2c->XferSize = hi2c->XferCount;
 800364c:	68fb      	ldr	r3, [r7, #12]
 800364e:	8d5b      	ldrh	r3, [r3, #42]	; 0x2a
 8003650:	b29a      	uxth	r2, r3
 8003652:	68fb      	ldr	r3, [r7, #12]
 8003654:	851a      	strh	r2, [r3, #40]	; 0x28
      I2C_TransferConfig(hi2c, DevAddress, (uint8_t)hi2c->XferSize, I2C_AUTOEND_MODE, I2C_NO_STARTSTOP);
 8003656:	68fb      	ldr	r3, [r7, #12]
 8003658:	8d1b      	ldrh	r3, [r3, #40]	; 0x28
 800365a:	b2da      	uxtb	r2, r3
 800365c:	8979      	ldrh	r1, [r7, #10]
 800365e:	2300      	movs	r3, #0
 8003660:	9300      	str	r3, [sp, #0]
 8003662:	f04f 7300 	mov.w	r3, #33554432	; 0x2000000
 8003666:	68f8      	ldr	r0, [r7, #12]
 8003668:	f000 fc2c 	bl	8003ec4 <I2C_TransferConfig>
    }

    do
    {
      /* Wait until TXIS flag is set */
      if (I2C_WaitOnTXISFlagUntilTimeout(hi2c, Timeout, tickstart) != HAL_OK)
 800366c:	697a      	ldr	r2, [r7, #20]
 800366e:	6ab9      	ldr	r1, [r7, #40]	; 0x28
 8003670:	68f8      	ldr	r0, [r7, #12]
 8003672:	f000 fabc 	bl	8003bee <I2C_WaitOnTXISFlagUntilTimeout>
 8003676:	4603      	mov	r3, r0
 8003678:	2b00      	cmp	r3, #0
 800367a:	d001      	beq.n	8003680 <HAL_I2C_Mem_Write+0x124>
      {
        return HAL_ERROR;
 800367c:	2301      	movs	r3, #1
 800367e:	e07b      	b.n	8003778 <HAL_I2C_Mem_Write+0x21c>
      }

      /* Write data to TXDR */
      hi2c->Instance->TXDR = *hi2c->pBuffPtr;
 8003680:	68fb      	ldr	r3, [r7, #12]
 8003682:	6a5b      	ldr	r3, [r3, #36]	; 0x24
 8003684:	781a      	ldrb	r2, [r3, #0]
 8003686:	68fb      	ldr	r3, [r7, #12]
 8003688:	681b      	ldr	r3, [r3, #0]
 800368a:	629a      	str	r2, [r3, #40]	; 0x28

      /* Increment Buffer pointer */
      hi2c->pBuffPtr++;
 800368c:	68fb      	ldr	r3, [r7, #12]
 800368e:	6a5b      	ldr	r3, [r3, #36]	; 0x24
 8003690:	1c5a      	adds	r2, r3, #1
 8003692:	68fb      	ldr	r3, [r7, #12]
 8003694:	625a      	str	r2, [r3, #36]	; 0x24

      hi2c->XferCount--;
 8003696:	68fb      	ldr	r3, [r7, #12]
 8003698:	8d5b      	ldrh	r3, [r3, #42]	; 0x2a
 800369a:	b29b      	uxth	r3, r3
 800369c:	3b01      	subs	r3, #1
 800369e:	b29a      	uxth	r2, r3
 80036a0:	68fb      	ldr	r3, [r7, #12]
 80036a2:	855a      	strh	r2, [r3, #42]	; 0x2a
      hi2c->XferSize--;
 80036a4:	68fb      	ldr	r3, [r7, #12]
 80036a6:	8d1b      	ldrh	r3, [r3, #40]	; 0x28
 80036a8:	3b01      	subs	r3, #1
 80036aa:	b29a      	uxth	r2, r3
 80036ac:	68fb      	ldr	r3, [r7, #12]
 80036ae:	851a      	strh	r2, [r3, #40]	; 0x28

      if ((hi2c->XferCount != 0U) && (hi2c->XferSize == 0U))
 80036b0:	68fb      	ldr	r3, [r7, #12]
 80036b2:	8d5b      	ldrh	r3, [r3, #42]	; 0x2a
 80036b4:	b29b      	uxth	r3, r3
 80036b6:	2b00      	cmp	r3, #0
 80036b8:	d034      	beq.n	8003724 <HAL_I2C_Mem_Write+0x1c8>
 80036ba:	68fb      	ldr	r3, [r7, #12]
 80036bc:	8d1b      	ldrh	r3, [r3, #40]	; 0x28
 80036be:	2b00      	cmp	r3, #0
 80036c0:	d130      	bne.n	8003724 <HAL_I2C_Mem_Write+0x1c8>
      {
        /* Wait until TCR flag is set */
        if (I2C_WaitOnFlagUntilTimeout(hi2c, I2C_FLAG_TCR, RESET, Timeout, tickstart) != HAL_OK)
 80036c2:	697b      	ldr	r3, [r7, #20]
 80036c4:	9300      	str	r3, [sp, #0]
 80036c6:	6abb      	ldr	r3, [r7, #40]	; 0x28
 80036c8:	2200      	movs	r2, #0
 80036ca:	2180      	movs	r1, #128	; 0x80
 80036cc:	68f8      	ldr	r0, [r7, #12]
 80036ce:	f000 fa3f 	bl	8003b50 <I2C_WaitOnFlagUntilTimeout>
 80036d2:	4603      	mov	r3, r0
 80036d4:	2b00      	cmp	r3, #0
 80036d6:	d001      	beq.n	80036dc <HAL_I2C_Mem_Write+0x180>
        {
          return HAL_ERROR;
 80036d8:	2301      	movs	r3, #1
 80036da:	e04d      	b.n	8003778 <HAL_I2C_Mem_Write+0x21c>
        }

        if (hi2c->XferCount > MAX_NBYTE_SIZE)
 80036dc:	68fb      	ldr	r3, [r7, #12]
 80036de:	8d5b      	ldrh	r3, [r3, #42]	; 0x2a
 80036e0:	b29b      	uxth	r3, r3
 80036e2:	2bff      	cmp	r3, #255	; 0xff
 80036e4:	d90e      	bls.n	8003704 <HAL_I2C_Mem_Write+0x1a8>
        {
          hi2c->XferSize = MAX_NBYTE_SIZE;
 80036e6:	68fb      	ldr	r3, [r7, #12]
 80036e8:	22ff      	movs	r2, #255	; 0xff
 80036ea:	851a      	strh	r2, [r3, #40]	; 0x28
          I2C_TransferConfig(hi2c, DevAddress, (uint8_t)hi2c->XferSize, I2C_RELOAD_MODE,
 80036ec:	68fb      	ldr	r3, [r7, #12]
 80036ee:	8d1b      	ldrh	r3, [r3, #40]	; 0x28
 80036f0:	b2da      	uxtb	r2, r3
 80036f2:	8979      	ldrh	r1, [r7, #10]
 80036f4:	2300      	movs	r3, #0
 80036f6:	9300      	str	r3, [sp, #0]
 80036f8:	f04f 7380 	mov.w	r3, #16777216	; 0x1000000
 80036fc:	68f8      	ldr	r0, [r7, #12]
 80036fe:	f000 fbe1 	bl	8003ec4 <I2C_TransferConfig>
 8003702:	e00f      	b.n	8003724 <HAL_I2C_Mem_Write+0x1c8>
                             I2C_NO_STARTSTOP);
        }
        else
        {
          hi2c->XferSize = hi2c->XferCount;
 8003704:	68fb      	ldr	r3, [r7, #12]
 8003706:	8d5b      	ldrh	r3, [r3, #42]	; 0x2a
 8003708:	b29a      	uxth	r2, r3
 800370a:	68fb      	ldr	r3, [r7, #12]
 800370c:	851a      	strh	r2, [r3, #40]	; 0x28
          I2C_TransferConfig(hi2c, DevAddress, (uint8_t)hi2c->XferSize, I2C_AUTOEND_MODE,
 800370e:	68fb      	ldr	r3, [r7, #12]
 8003710:	8d1b      	ldrh	r3, [r3, #40]	; 0x28
 8003712:	b2da      	uxtb	r2, r3
 8003714:	8979      	ldrh	r1, [r7, #10]
 8003716:	2300      	movs	r3, #0
 8003718:	9300      	str	r3, [sp, #0]
 800371a:	f04f 7300 	mov.w	r3, #33554432	; 0x2000000
 800371e:	68f8      	ldr	r0, [r7, #12]
 8003720:	f000 fbd0 	bl	8003ec4 <I2C_TransferConfig>
                             I2C_NO_STARTSTOP);
        }
      }

    } while (hi2c->XferCount > 0U);
 8003724:	68fb      	ldr	r3, [r7, #12]
 8003726:	8d5b      	ldrh	r3, [r3, #42]	; 0x2a
 8003728:	b29b      	uxth	r3, r3
 800372a:	2b00      	cmp	r3, #0
 800372c:	d19e      	bne.n	800366c <HAL_I2C_Mem_Write+0x110>

    /* No need to Check TC flag, with AUTOEND mode the stop is automatically generated */
    /* Wait until STOPF flag is reset */
    if (I2C_WaitOnSTOPFlagUntilTimeout(hi2c, Timeout, tickstart) != HAL_OK)
 800372e:	697a      	ldr	r2, [r7, #20]
 8003730:	6ab9      	ldr	r1, [r7, #40]	; 0x28
 8003732:	68f8      	ldr	r0, [r7, #12]
 8003734:	f000 faa2 	bl	8003c7c <I2C_WaitOnSTOPFlagUntilTimeout>
 8003738:	4603      	mov	r3, r0
 800373a:	2b00      	cmp	r3, #0
 800373c:	d001      	beq.n	8003742 <HAL_I2C_Mem_Write+0x1e6>
    {
      return HAL_ERROR;
 800373e:	2301      	movs	r3, #1
 8003740:	e01a      	b.n	8003778 <HAL_I2C_Mem_Write+0x21c>
    }

    /* Clear STOP Flag */
    __HAL_I2C_CLEAR_FLAG(hi2c, I2C_FLAG_STOPF);
 8003742:	68fb      	ldr	r3, [r7, #12]
 8003744:	681b      	ldr	r3, [r3, #0]
 8003746:	2220      	movs	r2, #32
 8003748:	61da      	str	r2, [r3, #28]

    /* Clear Configuration Register 2 */
    I2C_RESET_CR2(hi2c);
 800374a:	68fb      	ldr	r3, [r7, #12]
 800374c:	681b      	ldr	r3, [r3, #0]
 800374e:	6859      	ldr	r1, [r3, #4]
 8003750:	68fb      	ldr	r3, [r7, #12]
 8003752:	681a      	ldr	r2, [r3, #0]
 8003754:	4b0a      	ldr	r3, [pc, #40]	; (8003780 <HAL_I2C_Mem_Write+0x224>)
 8003756:	400b      	ands	r3, r1
 8003758:	6053      	str	r3, [r2, #4]

    hi2c->State = HAL_I2C_STATE_READY;
 800375a:	68fb      	ldr	r3, [r7, #12]
 800375c:	2220      	movs	r2, #32
 800375e:	f883 2041 	strb.w	r2, [r3, #65]	; 0x41
    hi2c->Mode  = HAL_I2C_MODE_NONE;
 8003762:	68fb      	ldr	r3, [r7, #12]
 8003764:	2200      	movs	r2, #0
 8003766:	f883 2042 	strb.w	r2, [r3, #66]	; 0x42

    /* Process Unlocked */
    __HAL_UNLOCK(hi2c);
 800376a:	68fb      	ldr	r3, [r7, #12]
 800376c:	2200      	movs	r2, #0
 800376e:	f883 2040 	strb.w	r2, [r3, #64]	; 0x40

    return HAL_OK;
 8003772:	2300      	movs	r3, #0
 8003774:	e000      	b.n	8003778 <HAL_I2C_Mem_Write+0x21c>
  }
  else
  {
    return HAL_BUSY;
 8003776:	2302      	movs	r3, #2
  }
}
 8003778:	4618      	mov	r0, r3
 800377a:	3718      	adds	r7, #24
 800377c:	46bd      	mov	sp, r7
 800377e:	bd80      	pop	{r7, pc}
 8003780:	fe00e800 	.word	0xfe00e800

08003784 <HAL_I2C_Mem_Read>:
  * @param  Timeout Timeout duration
  * @retval HAL status
  */
HAL_StatusTypeDef HAL_I2C_Mem_Read(I2C_HandleTypeDef *hi2c, uint16_t DevAddress, uint16_t MemAddress,
                                   uint16_t MemAddSize, uint8_t *pData, uint16_t Size, uint32_t Timeout)
{
 8003784:	b580      	push	{r7, lr}
 8003786:	b088      	sub	sp, #32
 8003788:	af02      	add	r7, sp, #8
 800378a:	60f8      	str	r0, [r7, #12]
 800378c:	4608      	mov	r0, r1
 800378e:	4611      	mov	r1, r2
 8003790:	461a      	mov	r2, r3
 8003792:	4603      	mov	r3, r0
 8003794:	817b      	strh	r3, [r7, #10]
 8003796:	460b      	mov	r3, r1
 8003798:	813b      	strh	r3, [r7, #8]
 800379a:	4613      	mov	r3, r2
 800379c:	80fb      	strh	r3, [r7, #6]
  uint32_t tickstart;

  /* Check the parameters */
  assert_param(IS_I2C_MEMADD_SIZE(MemAddSize));

  if (hi2c->State == HAL_I2C_STATE_READY)
 800379e:	68fb      	ldr	r3, [r7, #12]
 80037a0:	f893 3041 	ldrb.w	r3, [r3, #65]	; 0x41
 80037a4:	b2db      	uxtb	r3, r3
 80037a6:	2b20      	cmp	r3, #32
 80037a8:	f040 80fd 	bne.w	80039a6 <HAL_I2C_Mem_Read+0x222>
  {
    if ((pData == NULL) || (Size == 0U))
 80037ac:	6a3b      	ldr	r3, [r7, #32]
 80037ae:	2b00      	cmp	r3, #0
 80037b0:	d002      	beq.n	80037b8 <HAL_I2C_Mem_Read+0x34>
 80037b2:	8cbb      	ldrh	r3, [r7, #36]	; 0x24
 80037b4:	2b00      	cmp	r3, #0
 80037b6:	d105      	bne.n	80037c4 <HAL_I2C_Mem_Read+0x40>
    {
      hi2c->ErrorCode = HAL_I2C_ERROR_INVALID_PARAM;
 80037b8:	68fb      	ldr	r3, [r7, #12]
 80037ba:	f44f 7200 	mov.w	r2, #512	; 0x200
 80037be:	645a      	str	r2, [r3, #68]	; 0x44
      return  HAL_ERROR;
 80037c0:	2301      	movs	r3, #1
 80037c2:	e0f1      	b.n	80039a8 <HAL_I2C_Mem_Read+0x224>
    }

    /* Process Locked */
    __HAL_LOCK(hi2c);
 80037c4:	68fb      	ldr	r3, [r7, #12]
 80037c6:	f893 3040 	ldrb.w	r3, [r3, #64]	; 0x40
 80037ca:	2b01      	cmp	r3, #1
 80037cc:	d101      	bne.n	80037d2 <HAL_I2C_Mem_Read+0x4e>
 80037ce:	2302      	movs	r3, #2
 80037d0:	e0ea      	b.n	80039a8 <HAL_I2C_Mem_Read+0x224>
 80037d2:	68fb      	ldr	r3, [r7, #12]
 80037d4:	2201      	movs	r2, #1
 80037d6:	f883 2040 	strb.w	r2, [r3, #64]	; 0x40

    /* Init tickstart for timeout management*/
    tickstart = HAL_GetTick();
 80037da:	f7ff fb43 	bl	8002e64 <HAL_GetTick>
 80037de:	6178      	str	r0, [r7, #20]

    if (I2C_WaitOnFlagUntilTimeout(hi2c, I2C_FLAG_BUSY, SET, I2C_TIMEOUT_BUSY, tickstart) != HAL_OK)
 80037e0:	697b      	ldr	r3, [r7, #20]
 80037e2:	9300      	str	r3, [sp, #0]
 80037e4:	2319      	movs	r3, #25
 80037e6:	2201      	movs	r2, #1
 80037e8:	f44f 4100 	mov.w	r1, #32768	; 0x8000
 80037ec:	68f8      	ldr	r0, [r7, #12]
 80037ee:	f000 f9af 	bl	8003b50 <I2C_WaitOnFlagUntilTimeout>
 80037f2:	4603      	mov	r3, r0
 80037f4:	2b00      	cmp	r3, #0
 80037f6:	d001      	beq.n	80037fc <HAL_I2C_Mem_Read+0x78>
    {
      return HAL_ERROR;
 80037f8:	2301      	movs	r3, #1
 80037fa:	e0d5      	b.n	80039a8 <HAL_I2C_Mem_Read+0x224>
    }

    hi2c->State     = HAL_I2C_STATE_BUSY_RX;
 80037fc:	68fb      	ldr	r3, [r7, #12]
 80037fe:	2222      	movs	r2, #34	; 0x22
 8003800:	f883 2041 	strb.w	r2, [r3, #65]	; 0x41
    hi2c->Mode      = HAL_I2C_MODE_MEM;
 8003804:	68fb      	ldr	r3, [r7, #12]
 8003806:	2240      	movs	r2, #64	; 0x40
 8003808:	f883 2042 	strb.w	r2, [r3, #66]	; 0x42
    hi2c->ErrorCode = HAL_I2C_ERROR_NONE;
 800380c:	68fb      	ldr	r3, [r7, #12]
 800380e:	2200      	movs	r2, #0
 8003810:	645a      	str	r2, [r3, #68]	; 0x44

    /* Prepare transfer parameters */
    hi2c->pBuffPtr  = pData;
 8003812:	68fb      	ldr	r3, [r7, #12]
 8003814:	6a3a      	ldr	r2, [r7, #32]
 8003816:	625a      	str	r2, [r3, #36]	; 0x24
    hi2c->XferCount = Size;
 8003818:	68fb      	ldr	r3, [r7, #12]
 800381a:	8cba      	ldrh	r2, [r7, #36]	; 0x24
 800381c:	855a      	strh	r2, [r3, #42]	; 0x2a
    hi2c->XferISR   = NULL;
 800381e:	68fb      	ldr	r3, [r7, #12]
 8003820:	2200      	movs	r2, #0
 8003822:	635a      	str	r2, [r3, #52]	; 0x34

    /* Send Slave Address and Memory Address */
    if (I2C_RequestMemoryRead(hi2c, DevAddress, MemAddress, MemAddSize, Timeout, tickstart) != HAL_OK)
 8003824:	88f8      	ldrh	r0, [r7, #6]
 8003826:	893a      	ldrh	r2, [r7, #8]
 8003828:	8979      	ldrh	r1, [r7, #10]
 800382a:	697b      	ldr	r3, [r7, #20]
 800382c:	9301      	str	r3, [sp, #4]
 800382e:	6abb      	ldr	r3, [r7, #40]	; 0x28
 8003830:	9300      	str	r3, [sp, #0]
 8003832:	4603      	mov	r3, r0
 8003834:	68f8      	ldr	r0, [r7, #12]
 8003836:	f000 f913 	bl	8003a60 <I2C_RequestMemoryRead>
 800383a:	4603      	mov	r3, r0
 800383c:	2b00      	cmp	r3, #0
 800383e:	d005      	beq.n	800384c <HAL_I2C_Mem_Read+0xc8>
    {
      /* Process Unlocked */
      __HAL_UNLOCK(hi2c);
 8003840:	68fb      	ldr	r3, [r7, #12]
 8003842:	2200      	movs	r2, #0
 8003844:	f883 2040 	strb.w	r2, [r3, #64]	; 0x40
      return HAL_ERROR;
 8003848:	2301      	movs	r3, #1
 800384a:	e0ad      	b.n	80039a8 <HAL_I2C_Mem_Read+0x224>
    }

    /* Send Slave Address */
    /* Set NBYTES to write and reload if hi2c->XferCount > MAX_NBYTE_SIZE and generate RESTART */
    if (hi2c->XferCount > MAX_NBYTE_SIZE)
 800384c:	68fb      	ldr	r3, [r7, #12]
 800384e:	8d5b      	ldrh	r3, [r3, #42]	; 0x2a
 8003850:	b29b      	uxth	r3, r3
 8003852:	2bff      	cmp	r3, #255	; 0xff
 8003854:	d90e      	bls.n	8003874 <HAL_I2C_Mem_Read+0xf0>
    {
      hi2c->XferSize = MAX_NBYTE_SIZE;
 8003856:	68fb      	ldr	r3, [r7, #12]
 8003858:	22ff      	movs	r2, #255	; 0xff
 800385a:	851a      	strh	r2, [r3, #40]	; 0x28
      I2C_TransferConfig(hi2c, DevAddress, (uint8_t)hi2c->XferSize, I2C_RELOAD_MODE,
 800385c:	68fb      	ldr	r3, [r7, #12]
 800385e:	8d1b      	ldrh	r3, [r3, #40]	; 0x28
 8003860:	b2da      	uxtb	r2, r3
 8003862:	8979      	ldrh	r1, [r7, #10]
 8003864:	4b52      	ldr	r3, [pc, #328]	; (80039b0 <HAL_I2C_Mem_Read+0x22c>)
 8003866:	9300      	str	r3, [sp, #0]
 8003868:	f04f 7380 	mov.w	r3, #16777216	; 0x1000000
 800386c:	68f8      	ldr	r0, [r7, #12]
 800386e:	f000 fb29 	bl	8003ec4 <I2C_TransferConfig>
 8003872:	e00f      	b.n	8003894 <HAL_I2C_Mem_Read+0x110>
                         I2C_GENERATE_START_READ);
    }
    else
    {
      hi2c->XferSize = hi2c->XferCount;
 8003874:	68fb      	ldr	r3, [r7, #12]
 8003876:	8d5b      	ldrh	r3, [r3, #42]	; 0x2a
 8003878:	b29a      	uxth	r2, r3
 800387a:	68fb      	ldr	r3, [r7, #12]
 800387c:	851a      	strh	r2, [r3, #40]	; 0x28
      I2C_TransferConfig(hi2c, DevAddress, (uint8_t)hi2c->XferSize, I2C_AUTOEND_MODE,
 800387e:	68fb      	ldr	r3, [r7, #12]
 8003880:	8d1b      	ldrh	r3, [r3, #40]	; 0x28
 8003882:	b2da      	uxtb	r2, r3
 8003884:	8979      	ldrh	r1, [r7, #10]
 8003886:	4b4a      	ldr	r3, [pc, #296]	; (80039b0 <HAL_I2C_Mem_Read+0x22c>)
 8003888:	9300      	str	r3, [sp, #0]
 800388a:	f04f 7300 	mov.w	r3, #33554432	; 0x2000000
 800388e:	68f8      	ldr	r0, [r7, #12]
 8003890:	f000 fb18 	bl	8003ec4 <I2C_TransferConfig>
    }

    do
    {
      /* Wait until RXNE flag is set */
      if (I2C_WaitOnFlagUntilTimeout(hi2c, I2C_FLAG_RXNE, RESET, Timeout, tickstart) != HAL_OK)
 8003894:	697b      	ldr	r3, [r7, #20]
 8003896:	9300      	str	r3, [sp, #0]
 8003898:	6abb      	ldr	r3, [r7, #40]	; 0x28
 800389a:	2200      	movs	r2, #0
 800389c:	2104      	movs	r1, #4
 800389e:	68f8      	ldr	r0, [r7, #12]
 80038a0:	f000 f956 	bl	8003b50 <I2C_WaitOnFlagUntilTimeout>
 80038a4:	4603      	mov	r3, r0
 80038a6:	2b00      	cmp	r3, #0
 80038a8:	d001      	beq.n	80038ae <HAL_I2C_Mem_Read+0x12a>
      {
        return HAL_ERROR;
 80038aa:	2301      	movs	r3, #1
 80038ac:	e07c      	b.n	80039a8 <HAL_I2C_Mem_Read+0x224>
      }

      /* Read data from RXDR */
      *hi2c->pBuffPtr = (uint8_t)hi2c->Instance->RXDR;
 80038ae:	68fb      	ldr	r3, [r7, #12]
 80038b0:	681b      	ldr	r3, [r3, #0]
 80038b2:	6a5a      	ldr	r2, [r3, #36]	; 0x24
 80038b4:	68fb      	ldr	r3, [r7, #12]
 80038b6:	6a5b      	ldr	r3, [r3, #36]	; 0x24
 80038b8:	b2d2      	uxtb	r2, r2
 80038ba:	701a      	strb	r2, [r3, #0]

      /* Increment Buffer pointer */
      hi2c->pBuffPtr++;
 80038bc:	68fb      	ldr	r3, [r7, #12]
 80038be:	6a5b      	ldr	r3, [r3, #36]	; 0x24
 80038c0:	1c5a      	adds	r2, r3, #1
 80038c2:	68fb      	ldr	r3, [r7, #12]
 80038c4:	625a      	str	r2, [r3, #36]	; 0x24

      hi2c->XferSize--;
 80038c6:	68fb      	ldr	r3, [r7, #12]
 80038c8:	8d1b      	ldrh	r3, [r3, #40]	; 0x28
 80038ca:	3b01      	subs	r3, #1
 80038cc:	b29a      	uxth	r2, r3
 80038ce:	68fb      	ldr	r3, [r7, #12]
 80038d0:	851a      	strh	r2, [r3, #40]	; 0x28
      hi2c->XferCount--;
 80038d2:	68fb      	ldr	r3, [r7, #12]
 80038d4:	8d5b      	ldrh	r3, [r3, #42]	; 0x2a
 80038d6:	b29b      	uxth	r3, r3
 80038d8:	3b01      	subs	r3, #1
 80038da:	b29a      	uxth	r2, r3
 80038dc:	68fb      	ldr	r3, [r7, #12]
 80038de:	855a      	strh	r2, [r3, #42]	; 0x2a

      if ((hi2c->XferCount != 0U) && (hi2c->XferSize == 0U))
 80038e0:	68fb      	ldr	r3, [r7, #12]
 80038e2:	8d5b      	ldrh	r3, [r3, #42]	; 0x2a
 80038e4:	b29b      	uxth	r3, r3
 80038e6:	2b00      	cmp	r3, #0
 80038e8:	d034      	beq.n	8003954 <HAL_I2C_Mem_Read+0x1d0>
 80038ea:	68fb      	ldr	r3, [r7, #12]
 80038ec:	8d1b      	ldrh	r3, [r3, #40]	; 0x28
 80038ee:	2b00      	cmp	r3, #0
 80038f0:	d130      	bne.n	8003954 <HAL_I2C_Mem_Read+0x1d0>
      {
        /* Wait until TCR flag is set */
        if (I2C_WaitOnFlagUntilTimeout(hi2c, I2C_FLAG_TCR, RESET, Timeout, tickstart) != HAL_OK)
 80038f2:	697b      	ldr	r3, [r7, #20]
 80038f4:	9300      	str	r3, [sp, #0]
 80038f6:	6abb      	ldr	r3, [r7, #40]	; 0x28
 80038f8:	2200      	movs	r2, #0
 80038fa:	2180      	movs	r1, #128	; 0x80
 80038fc:	68f8      	ldr	r0, [r7, #12]
 80038fe:	f000 f927 	bl	8003b50 <I2C_WaitOnFlagUntilTimeout>
 8003902:	4603      	mov	r3, r0
 8003904:	2b00      	cmp	r3, #0
 8003906:	d001      	beq.n	800390c <HAL_I2C_Mem_Read+0x188>
        {
          return HAL_ERROR;
 8003908:	2301      	movs	r3, #1
 800390a:	e04d      	b.n	80039a8 <HAL_I2C_Mem_Read+0x224>
        }

        if (hi2c->XferCount > MAX_NBYTE_SIZE)
 800390c:	68fb      	ldr	r3, [r7, #12]
 800390e:	8d5b      	ldrh	r3, [r3, #42]	; 0x2a
 8003910:	b29b      	uxth	r3, r3
 8003912:	2bff      	cmp	r3, #255	; 0xff
 8003914:	d90e      	bls.n	8003934 <HAL_I2C_Mem_Read+0x1b0>
        {
          hi2c->XferSize = MAX_NBYTE_SIZE;
 8003916:	68fb      	ldr	r3, [r7, #12]
 8003918:	22ff      	movs	r2, #255	; 0xff
 800391a:	851a      	strh	r2, [r3, #40]	; 0x28
          I2C_TransferConfig(hi2c, DevAddress, (uint8_t) hi2c->XferSize, I2C_RELOAD_MODE,
 800391c:	68fb      	ldr	r3, [r7, #12]
 800391e:	8d1b      	ldrh	r3, [r3, #40]	; 0x28
 8003920:	b2da      	uxtb	r2, r3
 8003922:	8979      	ldrh	r1, [r7, #10]
 8003924:	2300      	movs	r3, #0
 8003926:	9300      	str	r3, [sp, #0]
 8003928:	f04f 7380 	mov.w	r3, #16777216	; 0x1000000
 800392c:	68f8      	ldr	r0, [r7, #12]
 800392e:	f000 fac9 	bl	8003ec4 <I2C_TransferConfig>
 8003932:	e00f      	b.n	8003954 <HAL_I2C_Mem_Read+0x1d0>
                             I2C_NO_STARTSTOP);
        }
        else
        {
          hi2c->XferSize = hi2c->XferCount;
 8003934:	68fb      	ldr	r3, [r7, #12]
 8003936:	8d5b      	ldrh	r3, [r3, #42]	; 0x2a
 8003938:	b29a      	uxth	r2, r3
 800393a:	68fb      	ldr	r3, [r7, #12]
 800393c:	851a      	strh	r2, [r3, #40]	; 0x28
          I2C_TransferConfig(hi2c, DevAddress, (uint8_t)hi2c->XferSize, I2C_AUTOEND_MODE,
 800393e:	68fb      	ldr	r3, [r7, #12]
 8003940:	8d1b      	ldrh	r3, [r3, #40]	; 0x28
 8003942:	b2da      	uxtb	r2, r3
 8003944:	8979      	ldrh	r1, [r7, #10]
 8003946:	2300      	movs	r3, #0
 8003948:	9300      	str	r3, [sp, #0]
 800394a:	f04f 7300 	mov.w	r3, #33554432	; 0x2000000
 800394e:	68f8      	ldr	r0, [r7, #12]
 8003950:	f000 fab8 	bl	8003ec4 <I2C_TransferConfig>
                             I2C_NO_STARTSTOP);
        }
      }
    } while (hi2c->XferCount > 0U);
 8003954:	68fb      	ldr	r3, [r7, #12]
 8003956:	8d5b      	ldrh	r3, [r3, #42]	; 0x2a
 8003958:	b29b      	uxth	r3, r3
 800395a:	2b00      	cmp	r3, #0
 800395c:	d19a      	bne.n	8003894 <HAL_I2C_Mem_Read+0x110>

    /* No need to Check TC flag, with AUTOEND mode the stop is automatically generated */
    /* Wait until STOPF flag is reset */
    if (I2C_WaitOnSTOPFlagUntilTimeout(hi2c, Timeout, tickstart) != HAL_OK)
 800395e:	697a      	ldr	r2, [r7, #20]
 8003960:	6ab9      	ldr	r1, [r7, #40]	; 0x28
 8003962:	68f8      	ldr	r0, [r7, #12]
 8003964:	f000 f98a 	bl	8003c7c <I2C_WaitOnSTOPFlagUntilTimeout>
 8003968:	4603      	mov	r3, r0
 800396a:	2b00      	cmp	r3, #0
 800396c:	d001      	beq.n	8003972 <HAL_I2C_Mem_Read+0x1ee>
    {
      return HAL_ERROR;
 800396e:	2301      	movs	r3, #1
 8003970:	e01a      	b.n	80039a8 <HAL_I2C_Mem_Read+0x224>
    }

    /* Clear STOP Flag */
    __HAL_I2C_CLEAR_FLAG(hi2c, I2C_FLAG_STOPF);
 8003972:	68fb      	ldr	r3, [r7, #12]
 8003974:	681b      	ldr	r3, [r3, #0]
 8003976:	2220      	movs	r2, #32
 8003978:	61da      	str	r2, [r3, #28]

    /* Clear Configuration Register 2 */
    I2C_RESET_CR2(hi2c);
 800397a:	68fb      	ldr	r3, [r7, #12]
 800397c:	681b      	ldr	r3, [r3, #0]
 800397e:	6859      	ldr	r1, [r3, #4]
 8003980:	68fb      	ldr	r3, [r7, #12]
 8003982:	681a      	ldr	r2, [r3, #0]
 8003984:	4b0b      	ldr	r3, [pc, #44]	; (80039b4 <HAL_I2C_Mem_Read+0x230>)
 8003986:	400b      	ands	r3, r1
 8003988:	6053      	str	r3, [r2, #4]

    hi2c->State = HAL_I2C_STATE_READY;
 800398a:	68fb      	ldr	r3, [r7, #12]
 800398c:	2220      	movs	r2, #32
 800398e:	f883 2041 	strb.w	r2, [r3, #65]	; 0x41
    hi2c->Mode  = HAL_I2C_MODE_NONE;
 8003992:	68fb      	ldr	r3, [r7, #12]
 8003994:	2200      	movs	r2, #0
 8003996:	f883 2042 	strb.w	r2, [r3, #66]	; 0x42

    /* Process Unlocked */
    __HAL_UNLOCK(hi2c);
 800399a:	68fb      	ldr	r3, [r7, #12]
 800399c:	2200      	movs	r2, #0
 800399e:	f883 2040 	strb.w	r2, [r3, #64]	; 0x40

    return HAL_OK;
 80039a2:	2300      	movs	r3, #0
 80039a4:	e000      	b.n	80039a8 <HAL_I2C_Mem_Read+0x224>
  }
  else
  {
    return HAL_BUSY;
 80039a6:	2302      	movs	r3, #2
  }
}
 80039a8:	4618      	mov	r0, r3
 80039aa:	3718      	adds	r7, #24
 80039ac:	46bd      	mov	sp, r7
 80039ae:	bd80      	pop	{r7, pc}
 80039b0:	80002400 	.word	0x80002400
 80039b4:	fe00e800 	.word	0xfe00e800

080039b8 <I2C_RequestMemoryWrite>:
  * @retval HAL status
  */
static HAL_StatusTypeDef I2C_RequestMemoryWrite(I2C_HandleTypeDef *hi2c, uint16_t DevAddress,
                                                uint16_t MemAddress, uint16_t MemAddSize, uint32_t Timeout,
                                                uint32_t Tickstart)
{
 80039b8:	b580      	push	{r7, lr}
 80039ba:	b086      	sub	sp, #24
 80039bc:	af02      	add	r7, sp, #8
 80039be:	60f8      	str	r0, [r7, #12]
 80039c0:	4608      	mov	r0, r1
 80039c2:	4611      	mov	r1, r2
 80039c4:	461a      	mov	r2, r3
 80039c6:	4603      	mov	r3, r0
 80039c8:	817b      	strh	r3, [r7, #10]
 80039ca:	460b      	mov	r3, r1
 80039cc:	813b      	strh	r3, [r7, #8]
 80039ce:	4613      	mov	r3, r2
 80039d0:	80fb      	strh	r3, [r7, #6]
  I2C_TransferConfig(hi2c, DevAddress, (uint8_t)MemAddSize, I2C_RELOAD_MODE, I2C_GENERATE_START_WRITE);
 80039d2:	88fb      	ldrh	r3, [r7, #6]
 80039d4:	b2da      	uxtb	r2, r3
 80039d6:	8979      	ldrh	r1, [r7, #10]
 80039d8:	4b20      	ldr	r3, [pc, #128]	; (8003a5c <I2C_RequestMemoryWrite+0xa4>)
 80039da:	9300      	str	r3, [sp, #0]
 80039dc:	f04f 7380 	mov.w	r3, #16777216	; 0x1000000
 80039e0:	68f8      	ldr	r0, [r7, #12]
 80039e2:	f000 fa6f 	bl	8003ec4 <I2C_TransferConfig>

  /* Wait until TXIS flag is set */
  if (I2C_WaitOnTXISFlagUntilTimeout(hi2c, Timeout, Tickstart) != HAL_OK)
 80039e6:	69fa      	ldr	r2, [r7, #28]
 80039e8:	69b9      	ldr	r1, [r7, #24]
 80039ea:	68f8      	ldr	r0, [r7, #12]
 80039ec:	f000 f8ff 	bl	8003bee <I2C_WaitOnTXISFlagUntilTimeout>
 80039f0:	4603      	mov	r3, r0
 80039f2:	2b00      	cmp	r3, #0
 80039f4:	d001      	beq.n	80039fa <I2C_RequestMemoryWrite+0x42>
  {
    return HAL_ERROR;
 80039f6:	2301      	movs	r3, #1
 80039f8:	e02c      	b.n	8003a54 <I2C_RequestMemoryWrite+0x9c>
  }

  /* If Memory address size is 8Bit */
  if (MemAddSize == I2C_MEMADD_SIZE_8BIT)
 80039fa:	88fb      	ldrh	r3, [r7, #6]
 80039fc:	2b01      	cmp	r3, #1
 80039fe:	d105      	bne.n	8003a0c <I2C_RequestMemoryWrite+0x54>
  {
    /* Send Memory Address */
    hi2c->Instance->TXDR = I2C_MEM_ADD_LSB(MemAddress);
 8003a00:	893b      	ldrh	r3, [r7, #8]
 8003a02:	b2da      	uxtb	r2, r3
 8003a04:	68fb      	ldr	r3, [r7, #12]
 8003a06:	681b      	ldr	r3, [r3, #0]
 8003a08:	629a      	str	r2, [r3, #40]	; 0x28
 8003a0a:	e015      	b.n	8003a38 <I2C_RequestMemoryWrite+0x80>
  }
  /* If Memory address size is 16Bit */
  else
  {
    /* Send MSB of Memory Address */
    hi2c->Instance->TXDR = I2C_MEM_ADD_MSB(MemAddress);
 8003a0c:	893b      	ldrh	r3, [r7, #8]
 8003a0e:	0a1b      	lsrs	r3, r3, #8
 8003a10:	b29b      	uxth	r3, r3
 8003a12:	b2da      	uxtb	r2, r3
 8003a14:	68fb      	ldr	r3, [r7, #12]
 8003a16:	681b      	ldr	r3, [r3, #0]
 8003a18:	629a      	str	r2, [r3, #40]	; 0x28

    /* Wait until TXIS flag is set */
    if (I2C_WaitOnTXISFlagUntilTimeout(hi2c, Timeout, Tickstart) != HAL_OK)
 8003a1a:	69fa      	ldr	r2, [r7, #28]
 8003a1c:	69b9      	ldr	r1, [r7, #24]
 8003a1e:	68f8      	ldr	r0, [r7, #12]
 8003a20:	f000 f8e5 	bl	8003bee <I2C_WaitOnTXISFlagUntilTimeout>
 8003a24:	4603      	mov	r3, r0
 8003a26:	2b00      	cmp	r3, #0
 8003a28:	d001      	beq.n	8003a2e <I2C_RequestMemoryWrite+0x76>
    {
      return HAL_ERROR;
 8003a2a:	2301      	movs	r3, #1
 8003a2c:	e012      	b.n	8003a54 <I2C_RequestMemoryWrite+0x9c>
    }

    /* Send LSB of Memory Address */
    hi2c->Instance->TXDR = I2C_MEM_ADD_LSB(MemAddress);
 8003a2e:	893b      	ldrh	r3, [r7, #8]
 8003a30:	b2da      	uxtb	r2, r3
 8003a32:	68fb      	ldr	r3, [r7, #12]
 8003a34:	681b      	ldr	r3, [r3, #0]
 8003a36:	629a      	str	r2, [r3, #40]	; 0x28
  }

  /* Wait until TCR flag is set */
  if (I2C_WaitOnFlagUntilTimeout(hi2c, I2C_FLAG_TCR, RESET, Timeout, Tickstart) != HAL_OK)
 8003a38:	69fb      	ldr	r3, [r7, #28]
 8003a3a:	9300      	str	r3, [sp, #0]
 8003a3c:	69bb      	ldr	r3, [r7, #24]
 8003a3e:	2200      	movs	r2, #0
 8003a40:	2180      	movs	r1, #128	; 0x80
 8003a42:	68f8      	ldr	r0, [r7, #12]
 8003a44:	f000 f884 	bl	8003b50 <I2C_WaitOnFlagUntilTimeout>
 8003a48:	4603      	mov	r3, r0
 8003a4a:	2b00      	cmp	r3, #0
 8003a4c:	d001      	beq.n	8003a52 <I2C_RequestMemoryWrite+0x9a>
  {
    return HAL_ERROR;
 8003a4e:	2301      	movs	r3, #1
 8003a50:	e000      	b.n	8003a54 <I2C_RequestMemoryWrite+0x9c>
  }

  return HAL_OK;
 8003a52:	2300      	movs	r3, #0
}
 8003a54:	4618      	mov	r0, r3
 8003a56:	3710      	adds	r7, #16
 8003a58:	46bd      	mov	sp, r7
 8003a5a:	bd80      	pop	{r7, pc}
 8003a5c:	80002000 	.word	0x80002000

08003a60 <I2C_RequestMemoryRead>:
  * @retval HAL status
  */
static HAL_StatusTypeDef I2C_RequestMemoryRead(I2C_HandleTypeDef *hi2c, uint16_t DevAddress,
                                               uint16_t MemAddress, uint16_t MemAddSize, uint32_t Timeout,
                                               uint32_t Tickstart)
{
 8003a60:	b580      	push	{r7, lr}
 8003a62:	b086      	sub	sp, #24
 8003a64:	af02      	add	r7, sp, #8
 8003a66:	60f8      	str	r0, [r7, #12]
 8003a68:	4608      	mov	r0, r1
 8003a6a:	4611      	mov	r1, r2
 8003a6c:	461a      	mov	r2, r3
 8003a6e:	4603      	mov	r3, r0
 8003a70:	817b      	strh	r3, [r7, #10]
 8003a72:	460b      	mov	r3, r1
 8003a74:	813b      	strh	r3, [r7, #8]
 8003a76:	4613      	mov	r3, r2
 8003a78:	80fb      	strh	r3, [r7, #6]
  I2C_TransferConfig(hi2c, DevAddress, (uint8_t)MemAddSize, I2C_SOFTEND_MODE, I2C_GENERATE_START_WRITE);
 8003a7a:	88fb      	ldrh	r3, [r7, #6]
 8003a7c:	b2da      	uxtb	r2, r3
 8003a7e:	8979      	ldrh	r1, [r7, #10]
 8003a80:	4b20      	ldr	r3, [pc, #128]	; (8003b04 <I2C_RequestMemoryRead+0xa4>)
 8003a82:	9300      	str	r3, [sp, #0]
 8003a84:	2300      	movs	r3, #0
 8003a86:	68f8      	ldr	r0, [r7, #12]
 8003a88:	f000 fa1c 	bl	8003ec4 <I2C_TransferConfig>

  /* Wait until TXIS flag is set */
  if (I2C_WaitOnTXISFlagUntilTimeout(hi2c, Timeout, Tickstart) != HAL_OK)
 8003a8c:	69fa      	ldr	r2, [r7, #28]
 8003a8e:	69b9      	ldr	r1, [r7, #24]
 8003a90:	68f8      	ldr	r0, [r7, #12]
 8003a92:	f000 f8ac 	bl	8003bee <I2C_WaitOnTXISFlagUntilTimeout>
 8003a96:	4603      	mov	r3, r0
 8003a98:	2b00      	cmp	r3, #0
 8003a9a:	d001      	beq.n	8003aa0 <I2C_RequestMemoryRead+0x40>
  {
    return HAL_ERROR;
 8003a9c:	2301      	movs	r3, #1
 8003a9e:	e02c      	b.n	8003afa <I2C_RequestMemoryRead+0x9a>
  }

  /* If Memory address size is 8Bit */
  if (MemAddSize == I2C_MEMADD_SIZE_8BIT)
 8003aa0:	88fb      	ldrh	r3, [r7, #6]
 8003aa2:	2b01      	cmp	r3, #1
 8003aa4:	d105      	bne.n	8003ab2 <I2C_RequestMemoryRead+0x52>
  {
    /* Send Memory Address */
    hi2c->Instance->TXDR = I2C_MEM_ADD_LSB(MemAddress);
 8003aa6:	893b      	ldrh	r3, [r7, #8]
 8003aa8:	b2da      	uxtb	r2, r3
 8003aaa:	68fb      	ldr	r3, [r7, #12]
 8003aac:	681b      	ldr	r3, [r3, #0]
 8003aae:	629a      	str	r2, [r3, #40]	; 0x28
 8003ab0:	e015      	b.n	8003ade <I2C_RequestMemoryRead+0x7e>
  }
  /* If Memory address size is 16Bit */
  else
  {
    /* Send MSB of Memory Address */
    hi2c->Instance->TXDR = I2C_MEM_ADD_MSB(MemAddress);
 8003ab2:	893b      	ldrh	r3, [r7, #8]
 8003ab4:	0a1b      	lsrs	r3, r3, #8
 8003ab6:	b29b      	uxth	r3, r3
 8003ab8:	b2da      	uxtb	r2, r3
 8003aba:	68fb      	ldr	r3, [r7, #12]
 8003abc:	681b      	ldr	r3, [r3, #0]
 8003abe:	629a      	str	r2, [r3, #40]	; 0x28

    /* Wait until TXIS flag is set */
    if (I2C_WaitOnTXISFlagUntilTimeout(hi2c, Timeout, Tickstart) != HAL_OK)
 8003ac0:	69fa      	ldr	r2, [r7, #28]
 8003ac2:	69b9      	ldr	r1, [r7, #24]
 8003ac4:	68f8      	ldr	r0, [r7, #12]
 8003ac6:	f000 f892 	bl	8003bee <I2C_WaitOnTXISFlagUntilTimeout>
 8003aca:	4603      	mov	r3, r0
 8003acc:	2b00      	cmp	r3, #0
 8003ace:	d001      	beq.n	8003ad4 <I2C_RequestMemoryRead+0x74>
    {
      return HAL_ERROR;
 8003ad0:	2301      	movs	r3, #1
 8003ad2:	e012      	b.n	8003afa <I2C_RequestMemoryRead+0x9a>
    }

    /* Send LSB of Memory Address */
    hi2c->Instance->TXDR = I2C_MEM_ADD_LSB(MemAddress);
 8003ad4:	893b      	ldrh	r3, [r7, #8]
 8003ad6:	b2da      	uxtb	r2, r3
 8003ad8:	68fb      	ldr	r3, [r7, #12]
 8003ada:	681b      	ldr	r3, [r3, #0]
 8003adc:	629a      	str	r2, [r3, #40]	; 0x28
  }

  /* Wait until TC flag is set */
  if (I2C_WaitOnFlagUntilTimeout(hi2c, I2C_FLAG_TC, RESET, Timeout, Tickstart) != HAL_OK)
 8003ade:	69fb      	ldr	r3, [r7, #28]
 8003ae0:	9300      	str	r3, [sp, #0]
 8003ae2:	69bb      	ldr	r3, [r7, #24]
 8003ae4:	2200      	movs	r2, #0
 8003ae6:	2140      	movs	r1, #64	; 0x40
 8003ae8:	68f8      	ldr	r0, [r7, #12]
 8003aea:	f000 f831 	bl	8003b50 <I2C_WaitOnFlagUntilTimeout>
 8003aee:	4603      	mov	r3, r0
 8003af0:	2b00      	cmp	r3, #0
 8003af2:	d001      	beq.n	8003af8 <I2C_RequestMemoryRead+0x98>
  {
    return HAL_ERROR;
 8003af4:	2301      	movs	r3, #1
 8003af6:	e000      	b.n	8003afa <I2C_RequestMemoryRead+0x9a>
  }

  return HAL_OK;
 8003af8:	2300      	movs	r3, #0
}
 8003afa:	4618      	mov	r0, r3
 8003afc:	3710      	adds	r7, #16
 8003afe:	46bd      	mov	sp, r7
 8003b00:	bd80      	pop	{r7, pc}
 8003b02:	bf00      	nop
 8003b04:	80002000 	.word	0x80002000

08003b08 <I2C_Flush_TXDR>:
  * @brief  I2C Tx data register flush process.
  * @param  hi2c I2C handle.
  * @retval None
  */
static void I2C_Flush_TXDR(I2C_HandleTypeDef *hi2c)
{
 8003b08:	b480      	push	{r7}
 8003b0a:	b083      	sub	sp, #12
 8003b0c:	af00      	add	r7, sp, #0
 8003b0e:	6078      	str	r0, [r7, #4]
  /* If a pending TXIS flag is set */
  /* Write a dummy data in TXDR to clear it */
  if (__HAL_I2C_GET_FLAG(hi2c, I2C_FLAG_TXIS) != RESET)
 8003b10:	687b      	ldr	r3, [r7, #4]
 8003b12:	681b      	ldr	r3, [r3, #0]
 8003b14:	699b      	ldr	r3, [r3, #24]
 8003b16:	f003 0302 	and.w	r3, r3, #2
 8003b1a:	2b02      	cmp	r3, #2
 8003b1c:	d103      	bne.n	8003b26 <I2C_Flush_TXDR+0x1e>
  {
    hi2c->Instance->TXDR = 0x00U;
 8003b1e:	687b      	ldr	r3, [r7, #4]
 8003b20:	681b      	ldr	r3, [r3, #0]
 8003b22:	2200      	movs	r2, #0
 8003b24:	629a      	str	r2, [r3, #40]	; 0x28
  }

  /* Flush TX register if not empty */
  if (__HAL_I2C_GET_FLAG(hi2c, I2C_FLAG_TXE) == RESET)
 8003b26:	687b      	ldr	r3, [r7, #4]
 8003b28:	681b      	ldr	r3, [r3, #0]
 8003b2a:	699b      	ldr	r3, [r3, #24]
 8003b2c:	f003 0301 	and.w	r3, r3, #1
 8003b30:	2b01      	cmp	r3, #1
 8003b32:	d007      	beq.n	8003b44 <I2C_Flush_TXDR+0x3c>
  {
    __HAL_I2C_CLEAR_FLAG(hi2c, I2C_FLAG_TXE);
 8003b34:	687b      	ldr	r3, [r7, #4]
 8003b36:	681b      	ldr	r3, [r3, #0]
 8003b38:	699a      	ldr	r2, [r3, #24]
 8003b3a:	687b      	ldr	r3, [r7, #4]
 8003b3c:	681b      	ldr	r3, [r3, #0]
 8003b3e:	f042 0201 	orr.w	r2, r2, #1
 8003b42:	619a      	str	r2, [r3, #24]
  }
}
 8003b44:	bf00      	nop
 8003b46:	370c      	adds	r7, #12
 8003b48:	46bd      	mov	sp, r7
 8003b4a:	f85d 7b04 	ldr.w	r7, [sp], #4
 8003b4e:	4770      	bx	lr

08003b50 <I2C_WaitOnFlagUntilTimeout>:
  * @param  Tickstart Tick start value
  * @retval HAL status
  */
static HAL_StatusTypeDef I2C_WaitOnFlagUntilTimeout(I2C_HandleTypeDef *hi2c, uint32_t Flag, FlagStatus Status,
                                                    uint32_t Timeout, uint32_t Tickstart)
{
 8003b50:	b580      	push	{r7, lr}
 8003b52:	b084      	sub	sp, #16
 8003b54:	af00      	add	r7, sp, #0
 8003b56:	60f8      	str	r0, [r7, #12]
 8003b58:	60b9      	str	r1, [r7, #8]
 8003b5a:	603b      	str	r3, [r7, #0]
 8003b5c:	4613      	mov	r3, r2
 8003b5e:	71fb      	strb	r3, [r7, #7]
  while (__HAL_I2C_GET_FLAG(hi2c, Flag) == Status)
 8003b60:	e031      	b.n	8003bc6 <I2C_WaitOnFlagUntilTimeout+0x76>
  {
    /* Check for the Timeout */
    if (Timeout != HAL_MAX_DELAY)
 8003b62:	683b      	ldr	r3, [r7, #0]
 8003b64:	f1b3 3fff 	cmp.w	r3, #4294967295
 8003b68:	d02d      	beq.n	8003bc6 <I2C_WaitOnFlagUntilTimeout+0x76>
    {
      if (((HAL_GetTick() - Tickstart) > Timeout) || (Timeout == 0U))
 8003b6a:	f7ff f97b 	bl	8002e64 <HAL_GetTick>
 8003b6e:	4602      	mov	r2, r0
 8003b70:	69bb      	ldr	r3, [r7, #24]
 8003b72:	1ad3      	subs	r3, r2, r3
 8003b74:	683a      	ldr	r2, [r7, #0]
 8003b76:	429a      	cmp	r2, r3
 8003b78:	d302      	bcc.n	8003b80 <I2C_WaitOnFlagUntilTimeout+0x30>
 8003b7a:	683b      	ldr	r3, [r7, #0]
 8003b7c:	2b00      	cmp	r3, #0
 8003b7e:	d122      	bne.n	8003bc6 <I2C_WaitOnFlagUntilTimeout+0x76>
      {
        if ((__HAL_I2C_GET_FLAG(hi2c, Flag) == Status))
 8003b80:	68fb      	ldr	r3, [r7, #12]
 8003b82:	681b      	ldr	r3, [r3, #0]
 8003b84:	699a      	ldr	r2, [r3, #24]
 8003b86:	68bb      	ldr	r3, [r7, #8]
 8003b88:	4013      	ands	r3, r2
 8003b8a:	68ba      	ldr	r2, [r7, #8]
 8003b8c:	429a      	cmp	r2, r3
 8003b8e:	bf0c      	ite	eq
 8003b90:	2301      	moveq	r3, #1
 8003b92:	2300      	movne	r3, #0
 8003b94:	b2db      	uxtb	r3, r3
 8003b96:	461a      	mov	r2, r3
 8003b98:	79fb      	ldrb	r3, [r7, #7]
 8003b9a:	429a      	cmp	r2, r3
 8003b9c:	d113      	bne.n	8003bc6 <I2C_WaitOnFlagUntilTimeout+0x76>
        {
          hi2c->ErrorCode |= HAL_I2C_ERROR_TIMEOUT;
 8003b9e:	68fb      	ldr	r3, [r7, #12]
 8003ba0:	6c5b      	ldr	r3, [r3, #68]	; 0x44
 8003ba2:	f043 0220 	orr.w	r2, r3, #32
 8003ba6:	68fb      	ldr	r3, [r7, #12]
 8003ba8:	645a      	str	r2, [r3, #68]	; 0x44
          hi2c->State = HAL_I2C_STATE_READY;
 8003baa:	68fb      	ldr	r3, [r7, #12]
 8003bac:	2220      	movs	r2, #32
 8003bae:	f883 2041 	strb.w	r2, [r3, #65]	; 0x41
          hi2c->Mode = HAL_I2C_MODE_NONE;
 8003bb2:	68fb      	ldr	r3, [r7, #12]
 8003bb4:	2200      	movs	r2, #0
 8003bb6:	f883 2042 	strb.w	r2, [r3, #66]	; 0x42

          /* Process Unlocked */
          __HAL_UNLOCK(hi2c);
 8003bba:	68fb      	ldr	r3, [r7, #12]
 8003bbc:	2200      	movs	r2, #0
 8003bbe:	f883 2040 	strb.w	r2, [r3, #64]	; 0x40
          return HAL_ERROR;
 8003bc2:	2301      	movs	r3, #1
 8003bc4:	e00f      	b.n	8003be6 <I2C_WaitOnFlagUntilTimeout+0x96>
  while (__HAL_I2C_GET_FLAG(hi2c, Flag) == Status)
 8003bc6:	68fb      	ldr	r3, [r7, #12]
 8003bc8:	681b      	ldr	r3, [r3, #0]
 8003bca:	699a      	ldr	r2, [r3, #24]
 8003bcc:	68bb      	ldr	r3, [r7, #8]
 8003bce:	4013      	ands	r3, r2
 8003bd0:	68ba      	ldr	r2, [r7, #8]
 8003bd2:	429a      	cmp	r2, r3
 8003bd4:	bf0c      	ite	eq
 8003bd6:	2301      	moveq	r3, #1
 8003bd8:	2300      	movne	r3, #0
 8003bda:	b2db      	uxtb	r3, r3
 8003bdc:	461a      	mov	r2, r3
 8003bde:	79fb      	ldrb	r3, [r7, #7]
 8003be0:	429a      	cmp	r2, r3
 8003be2:	d0be      	beq.n	8003b62 <I2C_WaitOnFlagUntilTimeout+0x12>
        }
      }
    }
  }
  return HAL_OK;
 8003be4:	2300      	movs	r3, #0
}
 8003be6:	4618      	mov	r0, r3
 8003be8:	3710      	adds	r7, #16
 8003bea:	46bd      	mov	sp, r7
 8003bec:	bd80      	pop	{r7, pc}

08003bee <I2C_WaitOnTXISFlagUntilTimeout>:
  * @param  Tickstart Tick start value
  * @retval HAL status
  */
static HAL_StatusTypeDef I2C_WaitOnTXISFlagUntilTimeout(I2C_HandleTypeDef *hi2c, uint32_t Timeout,
                                                        uint32_t Tickstart)
{
 8003bee:	b580      	push	{r7, lr}
 8003bf0:	b084      	sub	sp, #16
 8003bf2:	af00      	add	r7, sp, #0
 8003bf4:	60f8      	str	r0, [r7, #12]
 8003bf6:	60b9      	str	r1, [r7, #8]
 8003bf8:	607a      	str	r2, [r7, #4]
  while (__HAL_I2C_GET_FLAG(hi2c, I2C_FLAG_TXIS) == RESET)
 8003bfa:	e033      	b.n	8003c64 <I2C_WaitOnTXISFlagUntilTimeout+0x76>
  {
    /* Check if an error is detected */
    if (I2C_IsErrorOccurred(hi2c, Timeout, Tickstart) != HAL_OK)
 8003bfc:	687a      	ldr	r2, [r7, #4]
 8003bfe:	68b9      	ldr	r1, [r7, #8]
 8003c00:	68f8      	ldr	r0, [r7, #12]
 8003c02:	f000 f87f 	bl	8003d04 <I2C_IsErrorOccurred>
 8003c06:	4603      	mov	r3, r0
 8003c08:	2b00      	cmp	r3, #0
 8003c0a:	d001      	beq.n	8003c10 <I2C_WaitOnTXISFlagUntilTimeout+0x22>
    {
      return HAL_ERROR;
 8003c0c:	2301      	movs	r3, #1
 8003c0e:	e031      	b.n	8003c74 <I2C_WaitOnTXISFlagUntilTimeout+0x86>
    }

    /* Check for the Timeout */
    if (Timeout != HAL_MAX_DELAY)
 8003c10:	68bb      	ldr	r3, [r7, #8]
 8003c12:	f1b3 3fff 	cmp.w	r3, #4294967295
 8003c16:	d025      	beq.n	8003c64 <I2C_WaitOnTXISFlagUntilTimeout+0x76>
    {
      if (((HAL_GetTick() - Tickstart) > Timeout) || (Timeout == 0U))
 8003c18:	f7ff f924 	bl	8002e64 <HAL_GetTick>
 8003c1c:	4602      	mov	r2, r0
 8003c1e:	687b      	ldr	r3, [r7, #4]
 8003c20:	1ad3      	subs	r3, r2, r3
 8003c22:	68ba      	ldr	r2, [r7, #8]
 8003c24:	429a      	cmp	r2, r3
 8003c26:	d302      	bcc.n	8003c2e <I2C_WaitOnTXISFlagUntilTimeout+0x40>
 8003c28:	68bb      	ldr	r3, [r7, #8]
 8003c2a:	2b00      	cmp	r3, #0
 8003c2c:	d11a      	bne.n	8003c64 <I2C_WaitOnTXISFlagUntilTimeout+0x76>
      {
        if ((__HAL_I2C_GET_FLAG(hi2c, I2C_FLAG_TXIS) == RESET))
 8003c2e:	68fb      	ldr	r3, [r7, #12]
 8003c30:	681b      	ldr	r3, [r3, #0]
 8003c32:	699b      	ldr	r3, [r3, #24]
 8003c34:	f003 0302 	and.w	r3, r3, #2
 8003c38:	2b02      	cmp	r3, #2
 8003c3a:	d013      	beq.n	8003c64 <I2C_WaitOnTXISFlagUntilTimeout+0x76>
        {
          hi2c->ErrorCode |= HAL_I2C_ERROR_TIMEOUT;
 8003c3c:	68fb      	ldr	r3, [r7, #12]
 8003c3e:	6c5b      	ldr	r3, [r3, #68]	; 0x44
 8003c40:	f043 0220 	orr.w	r2, r3, #32
 8003c44:	68fb      	ldr	r3, [r7, #12]
 8003c46:	645a      	str	r2, [r3, #68]	; 0x44
          hi2c->State = HAL_I2C_STATE_READY;
 8003c48:	68fb      	ldr	r3, [r7, #12]
 8003c4a:	2220      	movs	r2, #32
 8003c4c:	f883 2041 	strb.w	r2, [r3, #65]	; 0x41
          hi2c->Mode = HAL_I2C_MODE_NONE;
 8003c50:	68fb      	ldr	r3, [r7, #12]
 8003c52:	2200      	movs	r2, #0
 8003c54:	f883 2042 	strb.w	r2, [r3, #66]	; 0x42

          /* Process Unlocked */
          __HAL_UNLOCK(hi2c);
 8003c58:	68fb      	ldr	r3, [r7, #12]
 8003c5a:	2200      	movs	r2, #0
 8003c5c:	f883 2040 	strb.w	r2, [r3, #64]	; 0x40

          return HAL_ERROR;
 8003c60:	2301      	movs	r3, #1
 8003c62:	e007      	b.n	8003c74 <I2C_WaitOnTXISFlagUntilTimeout+0x86>
  while (__HAL_I2C_GET_FLAG(hi2c, I2C_FLAG_TXIS) == RESET)
 8003c64:	68fb      	ldr	r3, [r7, #12]
 8003c66:	681b      	ldr	r3, [r3, #0]
 8003c68:	699b      	ldr	r3, [r3, #24]
 8003c6a:	f003 0302 	and.w	r3, r3, #2
 8003c6e:	2b02      	cmp	r3, #2
 8003c70:	d1c4      	bne.n	8003bfc <I2C_WaitOnTXISFlagUntilTimeout+0xe>
        }
      }
    }
  }
  return HAL_OK;
 8003c72:	2300      	movs	r3, #0
}
 8003c74:	4618      	mov	r0, r3
 8003c76:	3710      	adds	r7, #16
 8003c78:	46bd      	mov	sp, r7
 8003c7a:	bd80      	pop	{r7, pc}

08003c7c <I2C_WaitOnSTOPFlagUntilTimeout>:
  * @param  Tickstart Tick start value
  * @retval HAL status
  */
static HAL_StatusTypeDef I2C_WaitOnSTOPFlagUntilTimeout(I2C_HandleTypeDef *hi2c, uint32_t Timeout,
                                                        uint32_t Tickstart)
{
 8003c7c:	b580      	push	{r7, lr}
 8003c7e:	b084      	sub	sp, #16
 8003c80:	af00      	add	r7, sp, #0
 8003c82:	60f8      	str	r0, [r7, #12]
 8003c84:	60b9      	str	r1, [r7, #8]
 8003c86:	607a      	str	r2, [r7, #4]
  while (__HAL_I2C_GET_FLAG(hi2c, I2C_FLAG_STOPF) == RESET)
 8003c88:	e02f      	b.n	8003cea <I2C_WaitOnSTOPFlagUntilTimeout+0x6e>
  {
    /* Check if an error is detected */
    if (I2C_IsErrorOccurred(hi2c, Timeout, Tickstart) != HAL_OK)
 8003c8a:	687a      	ldr	r2, [r7, #4]
 8003c8c:	68b9      	ldr	r1, [r7, #8]
 8003c8e:	68f8      	ldr	r0, [r7, #12]
 8003c90:	f000 f838 	bl	8003d04 <I2C_IsErrorOccurred>
 8003c94:	4603      	mov	r3, r0
 8003c96:	2b00      	cmp	r3, #0
 8003c98:	d001      	beq.n	8003c9e <I2C_WaitOnSTOPFlagUntilTimeout+0x22>
    {
      return HAL_ERROR;
 8003c9a:	2301      	movs	r3, #1
 8003c9c:	e02d      	b.n	8003cfa <I2C_WaitOnSTOPFlagUntilTimeout+0x7e>
    }

    /* Check for the Timeout */
    if (((HAL_GetTick() - Tickstart) > Timeout) || (Timeout == 0U))
 8003c9e:	f7ff f8e1 	bl	8002e64 <HAL_GetTick>
 8003ca2:	4602      	mov	r2, r0
 8003ca4:	687b      	ldr	r3, [r7, #4]
 8003ca6:	1ad3      	subs	r3, r2, r3
 8003ca8:	68ba      	ldr	r2, [r7, #8]
 8003caa:	429a      	cmp	r2, r3
 8003cac:	d302      	bcc.n	8003cb4 <I2C_WaitOnSTOPFlagUntilTimeout+0x38>
 8003cae:	68bb      	ldr	r3, [r7, #8]
 8003cb0:	2b00      	cmp	r3, #0
 8003cb2:	d11a      	bne.n	8003cea <I2C_WaitOnSTOPFlagUntilTimeout+0x6e>
    {
      if ((__HAL_I2C_GET_FLAG(hi2c, I2C_FLAG_STOPF) == RESET))
 8003cb4:	68fb      	ldr	r3, [r7, #12]
 8003cb6:	681b      	ldr	r3, [r3, #0]
 8003cb8:	699b      	ldr	r3, [r3, #24]
 8003cba:	f003 0320 	and.w	r3, r3, #32
 8003cbe:	2b20      	cmp	r3, #32
 8003cc0:	d013      	beq.n	8003cea <I2C_WaitOnSTOPFlagUntilTimeout+0x6e>
      {
        hi2c->ErrorCode |= HAL_I2C_ERROR_TIMEOUT;
 8003cc2:	68fb      	ldr	r3, [r7, #12]
 8003cc4:	6c5b      	ldr	r3, [r3, #68]	; 0x44
 8003cc6:	f043 0220 	orr.w	r2, r3, #32
 8003cca:	68fb      	ldr	r3, [r7, #12]
 8003ccc:	645a      	str	r2, [r3, #68]	; 0x44
        hi2c->State = HAL_I2C_STATE_READY;
 8003cce:	68fb      	ldr	r3, [r7, #12]
 8003cd0:	2220      	movs	r2, #32
 8003cd2:	f883 2041 	strb.w	r2, [r3, #65]	; 0x41
        hi2c->Mode = HAL_I2C_MODE_NONE;
 8003cd6:	68fb      	ldr	r3, [r7, #12]
 8003cd8:	2200      	movs	r2, #0
 8003cda:	f883 2042 	strb.w	r2, [r3, #66]	; 0x42

        /* Process Unlocked */
        __HAL_UNLOCK(hi2c);
 8003cde:	68fb      	ldr	r3, [r7, #12]
 8003ce0:	2200      	movs	r2, #0
 8003ce2:	f883 2040 	strb.w	r2, [r3, #64]	; 0x40

        return HAL_ERROR;
 8003ce6:	2301      	movs	r3, #1
 8003ce8:	e007      	b.n	8003cfa <I2C_WaitOnSTOPFlagUntilTimeout+0x7e>
  while (__HAL_I2C_GET_FLAG(hi2c, I2C_FLAG_STOPF) == RESET)
 8003cea:	68fb      	ldr	r3, [r7, #12]
 8003cec:	681b      	ldr	r3, [r3, #0]
 8003cee:	699b      	ldr	r3, [r3, #24]
 8003cf0:	f003 0320 	and.w	r3, r3, #32
 8003cf4:	2b20      	cmp	r3, #32
 8003cf6:	d1c8      	bne.n	8003c8a <I2C_WaitOnSTOPFlagUntilTimeout+0xe>
      }
    }
  }
  return HAL_OK;
 8003cf8:	2300      	movs	r3, #0
}
 8003cfa:	4618      	mov	r0, r3
 8003cfc:	3710      	adds	r7, #16
 8003cfe:	46bd      	mov	sp, r7
 8003d00:	bd80      	pop	{r7, pc}
	...

08003d04 <I2C_IsErrorOccurred>:
  * @param  Timeout Timeout duration
  * @param  Tickstart Tick start value
  * @retval HAL status
  */
static HAL_StatusTypeDef I2C_IsErrorOccurred(I2C_HandleTypeDef *hi2c, uint32_t Timeout, uint32_t Tickstart)
{
 8003d04:	b580      	push	{r7, lr}
 8003d06:	b08a      	sub	sp, #40	; 0x28
 8003d08:	af00      	add	r7, sp, #0
 8003d0a:	60f8      	str	r0, [r7, #12]
 8003d0c:	60b9      	str	r1, [r7, #8]
 8003d0e:	607a      	str	r2, [r7, #4]
  HAL_StatusTypeDef status = HAL_OK;
 8003d10:	2300      	movs	r3, #0
 8003d12:	f887 3027 	strb.w	r3, [r7, #39]	; 0x27
  uint32_t itflag   = hi2c->Instance->ISR;
 8003d16:	68fb      	ldr	r3, [r7, #12]
 8003d18:	681b      	ldr	r3, [r3, #0]
 8003d1a:	699b      	ldr	r3, [r3, #24]
 8003d1c:	61bb      	str	r3, [r7, #24]
  uint32_t error_code = 0;
 8003d1e:	2300      	movs	r3, #0
 8003d20:	623b      	str	r3, [r7, #32]
  uint32_t tickstart = Tickstart;
 8003d22:	687b      	ldr	r3, [r7, #4]
 8003d24:	61fb      	str	r3, [r7, #28]
  uint32_t tmp1;
  HAL_I2C_ModeTypeDef tmp2;

  if (HAL_IS_BIT_SET(itflag, I2C_FLAG_AF))
 8003d26:	69bb      	ldr	r3, [r7, #24]
 8003d28:	f003 0310 	and.w	r3, r3, #16
 8003d2c:	2b00      	cmp	r3, #0
 8003d2e:	d068      	beq.n	8003e02 <I2C_IsErrorOccurred+0xfe>
  {
    /* Clear NACKF Flag */
    __HAL_I2C_CLEAR_FLAG(hi2c, I2C_FLAG_AF);
 8003d30:	68fb      	ldr	r3, [r7, #12]
 8003d32:	681b      	ldr	r3, [r3, #0]
 8003d34:	2210      	movs	r2, #16
 8003d36:	61da      	str	r2, [r3, #28]

    /* Wait until STOP Flag is set or timeout occurred */
    /* AutoEnd should be initiate after AF */
    while ((__HAL_I2C_GET_FLAG(hi2c, I2C_FLAG_STOPF) == RESET) && (status == HAL_OK))
 8003d38:	e049      	b.n	8003dce <I2C_IsErrorOccurred+0xca>
    {
      /* Check for the Timeout */
      if (Timeout != HAL_MAX_DELAY)
 8003d3a:	68bb      	ldr	r3, [r7, #8]
 8003d3c:	f1b3 3fff 	cmp.w	r3, #4294967295
 8003d40:	d045      	beq.n	8003dce <I2C_IsErrorOccurred+0xca>
      {
        if (((HAL_GetTick() - tickstart) > Timeout) || (Timeout == 0U))
 8003d42:	f7ff f88f 	bl	8002e64 <HAL_GetTick>
 8003d46:	4602      	mov	r2, r0
 8003d48:	69fb      	ldr	r3, [r7, #28]
 8003d4a:	1ad3      	subs	r3, r2, r3
 8003d4c:	68ba      	ldr	r2, [r7, #8]
 8003d4e:	429a      	cmp	r2, r3
 8003d50:	d302      	bcc.n	8003d58 <I2C_IsErrorOccurred+0x54>
 8003d52:	68bb      	ldr	r3, [r7, #8]
 8003d54:	2b00      	cmp	r3, #0
 8003d56:	d13a      	bne.n	8003dce <I2C_IsErrorOccurred+0xca>
        {
          tmp1 = (uint32_t)(hi2c->Instance->CR2 & I2C_CR2_STOP);
 8003d58:	68fb      	ldr	r3, [r7, #12]
 8003d5a:	681b      	ldr	r3, [r3, #0]
 8003d5c:	685b      	ldr	r3, [r3, #4]
 8003d5e:	f403 4380 	and.w	r3, r3, #16384	; 0x4000
 8003d62:	617b      	str	r3, [r7, #20]
          tmp2 = hi2c->Mode;
 8003d64:	68fb      	ldr	r3, [r7, #12]
 8003d66:	f893 3042 	ldrb.w	r3, [r3, #66]	; 0x42
 8003d6a:	74fb      	strb	r3, [r7, #19]

          /* In case of I2C still busy, try to regenerate a STOP manually */
          if ((__HAL_I2C_GET_FLAG(hi2c, I2C_FLAG_BUSY) != RESET) && \
 8003d6c:	68fb      	ldr	r3, [r7, #12]
 8003d6e:	681b      	ldr	r3, [r3, #0]
 8003d70:	699b      	ldr	r3, [r3, #24]
 8003d72:	f403 4300 	and.w	r3, r3, #32768	; 0x8000
 8003d76:	f5b3 4f00 	cmp.w	r3, #32768	; 0x8000
 8003d7a:	d121      	bne.n	8003dc0 <I2C_IsErrorOccurred+0xbc>
 8003d7c:	697b      	ldr	r3, [r7, #20]
 8003d7e:	f5b3 4f80 	cmp.w	r3, #16384	; 0x4000
 8003d82:	d01d      	beq.n	8003dc0 <I2C_IsErrorOccurred+0xbc>
              (tmp1 != I2C_CR2_STOP) && \
 8003d84:	7cfb      	ldrb	r3, [r7, #19]
 8003d86:	2b20      	cmp	r3, #32
 8003d88:	d01a      	beq.n	8003dc0 <I2C_IsErrorOccurred+0xbc>
              (tmp2 != HAL_I2C_MODE_SLAVE))
          {
            /* Generate Stop */
            hi2c->Instance->CR2 |= I2C_CR2_STOP;
 8003d8a:	68fb      	ldr	r3, [r7, #12]
 8003d8c:	681b      	ldr	r3, [r3, #0]
 8003d8e:	685a      	ldr	r2, [r3, #4]
 8003d90:	68fb      	ldr	r3, [r7, #12]
 8003d92:	681b      	ldr	r3, [r3, #0]
 8003d94:	f442 4280 	orr.w	r2, r2, #16384	; 0x4000
 8003d98:	605a      	str	r2, [r3, #4]

            /* Update Tick with new reference */
            tickstart = HAL_GetTick();
 8003d9a:	f7ff f863 	bl	8002e64 <HAL_GetTick>
 8003d9e:	61f8      	str	r0, [r7, #28]
          }

          while (__HAL_I2C_GET_FLAG(hi2c, I2C_FLAG_STOPF) == RESET)
 8003da0:	e00e      	b.n	8003dc0 <I2C_IsErrorOccurred+0xbc>
          {
            /* Check for the Timeout */
            if ((HAL_GetTick() - tickstart) > I2C_TIMEOUT_STOPF)
 8003da2:	f7ff f85f 	bl	8002e64 <HAL_GetTick>
 8003da6:	4602      	mov	r2, r0
 8003da8:	69fb      	ldr	r3, [r7, #28]
 8003daa:	1ad3      	subs	r3, r2, r3
 8003dac:	2b19      	cmp	r3, #25
 8003dae:	d907      	bls.n	8003dc0 <I2C_IsErrorOccurred+0xbc>
            {
              error_code |= HAL_I2C_ERROR_TIMEOUT;
 8003db0:	6a3b      	ldr	r3, [r7, #32]
 8003db2:	f043 0320 	orr.w	r3, r3, #32
 8003db6:	623b      	str	r3, [r7, #32]

              status = HAL_ERROR;
 8003db8:	2301      	movs	r3, #1
 8003dba:	f887 3027 	strb.w	r3, [r7, #39]	; 0x27

              break;
 8003dbe:	e006      	b.n	8003dce <I2C_IsErrorOccurred+0xca>
          while (__HAL_I2C_GET_FLAG(hi2c, I2C_FLAG_STOPF) == RESET)
 8003dc0:	68fb      	ldr	r3, [r7, #12]
 8003dc2:	681b      	ldr	r3, [r3, #0]
 8003dc4:	699b      	ldr	r3, [r3, #24]
 8003dc6:	f003 0320 	and.w	r3, r3, #32
 8003dca:	2b20      	cmp	r3, #32
 8003dcc:	d1e9      	bne.n	8003da2 <I2C_IsErrorOccurred+0x9e>
    while ((__HAL_I2C_GET_FLAG(hi2c, I2C_FLAG_STOPF) == RESET) && (status == HAL_OK))
 8003dce:	68fb      	ldr	r3, [r7, #12]
 8003dd0:	681b      	ldr	r3, [r3, #0]
 8003dd2:	699b      	ldr	r3, [r3, #24]
 8003dd4:	f003 0320 	and.w	r3, r3, #32
 8003dd8:	2b20      	cmp	r3, #32
 8003dda:	d003      	beq.n	8003de4 <I2C_IsErrorOccurred+0xe0>
 8003ddc:	f897 3027 	ldrb.w	r3, [r7, #39]	; 0x27
 8003de0:	2b00      	cmp	r3, #0
 8003de2:	d0aa      	beq.n	8003d3a <I2C_IsErrorOccurred+0x36>
        }
      }
    }

    /* In case STOP Flag is detected, clear it */
    if (status == HAL_OK)
 8003de4:	f897 3027 	ldrb.w	r3, [r7, #39]	; 0x27
 8003de8:	2b00      	cmp	r3, #0
 8003dea:	d103      	bne.n	8003df4 <I2C_IsErrorOccurred+0xf0>
    {
      /* Clear STOP Flag */
      __HAL_I2C_CLEAR_FLAG(hi2c, I2C_FLAG_STOPF);
 8003dec:	68fb      	ldr	r3, [r7, #12]
 8003dee:	681b      	ldr	r3, [r3, #0]
 8003df0:	2220      	movs	r2, #32
 8003df2:	61da      	str	r2, [r3, #28]
    }

    error_code |= HAL_I2C_ERROR_AF;
 8003df4:	6a3b      	ldr	r3, [r7, #32]
 8003df6:	f043 0304 	orr.w	r3, r3, #4
 8003dfa:	623b      	str	r3, [r7, #32]

    status = HAL_ERROR;
 8003dfc:	2301      	movs	r3, #1
 8003dfe:	f887 3027 	strb.w	r3, [r7, #39]	; 0x27
  }

  /* Refresh Content of Status register */
  itflag = hi2c->Instance->ISR;
 8003e02:	68fb      	ldr	r3, [r7, #12]
 8003e04:	681b      	ldr	r3, [r3, #0]
 8003e06:	699b      	ldr	r3, [r3, #24]
 8003e08:	61bb      	str	r3, [r7, #24]

  /* Then verify if an additional errors occurs */
  /* Check if a Bus error occurred */
  if (HAL_IS_BIT_SET(itflag, I2C_FLAG_BERR))
 8003e0a:	69bb      	ldr	r3, [r7, #24]
 8003e0c:	f403 7380 	and.w	r3, r3, #256	; 0x100
 8003e10:	2b00      	cmp	r3, #0
 8003e12:	d00b      	beq.n	8003e2c <I2C_IsErrorOccurred+0x128>
  {
    error_code |= HAL_I2C_ERROR_BERR;
 8003e14:	6a3b      	ldr	r3, [r7, #32]
 8003e16:	f043 0301 	orr.w	r3, r3, #1
 8003e1a:	623b      	str	r3, [r7, #32]

    /* Clear BERR flag */
    __HAL_I2C_CLEAR_FLAG(hi2c, I2C_FLAG_BERR);
 8003e1c:	68fb      	ldr	r3, [r7, #12]
 8003e1e:	681b      	ldr	r3, [r3, #0]
 8003e20:	f44f 7280 	mov.w	r2, #256	; 0x100
 8003e24:	61da      	str	r2, [r3, #28]

    status = HAL_ERROR;
 8003e26:	2301      	movs	r3, #1
 8003e28:	f887 3027 	strb.w	r3, [r7, #39]	; 0x27
  }

  /* Check if an Over-Run/Under-Run error occurred */
  if (HAL_IS_BIT_SET(itflag, I2C_FLAG_OVR))
 8003e2c:	69bb      	ldr	r3, [r7, #24]
 8003e2e:	f403 6380 	and.w	r3, r3, #1024	; 0x400
 8003e32:	2b00      	cmp	r3, #0
 8003e34:	d00b      	beq.n	8003e4e <I2C_IsErrorOccurred+0x14a>
  {
    error_code |= HAL_I2C_ERROR_OVR;
 8003e36:	6a3b      	ldr	r3, [r7, #32]
 8003e38:	f043 0308 	orr.w	r3, r3, #8
 8003e3c:	623b      	str	r3, [r7, #32]

    /* Clear OVR flag */
    __HAL_I2C_CLEAR_FLAG(hi2c, I2C_FLAG_OVR);
 8003e3e:	68fb      	ldr	r3, [r7, #12]
 8003e40:	681b      	ldr	r3, [r3, #0]
 8003e42:	f44f 6280 	mov.w	r2, #1024	; 0x400
 8003e46:	61da      	str	r2, [r3, #28]

    status = HAL_ERROR;
 8003e48:	2301      	movs	r3, #1
 8003e4a:	f887 3027 	strb.w	r3, [r7, #39]	; 0x27
  }

  /* Check if an Arbitration Loss error occurred */
  if (HAL_IS_BIT_SET(itflag, I2C_FLAG_ARLO))
 8003e4e:	69bb      	ldr	r3, [r7, #24]
 8003e50:	f403 7300 	and.w	r3, r3, #512	; 0x200
 8003e54:	2b00      	cmp	r3, #0
 8003e56:	d00b      	beq.n	8003e70 <I2C_IsErrorOccurred+0x16c>
  {
    error_code |= HAL_I2C_ERROR_ARLO;
 8003e58:	6a3b      	ldr	r3, [r7, #32]
 8003e5a:	f043 0302 	orr.w	r3, r3, #2
 8003e5e:	623b      	str	r3, [r7, #32]

    /* Clear ARLO flag */
    __HAL_I2C_CLEAR_FLAG(hi2c, I2C_FLAG_ARLO);
 8003e60:	68fb      	ldr	r3, [r7, #12]
 8003e62:	681b      	ldr	r3, [r3, #0]
 8003e64:	f44f 7200 	mov.w	r2, #512	; 0x200
 8003e68:	61da      	str	r2, [r3, #28]

    status = HAL_ERROR;
 8003e6a:	2301      	movs	r3, #1
 8003e6c:	f887 3027 	strb.w	r3, [r7, #39]	; 0x27
  }

  if (status != HAL_OK)
 8003e70:	f897 3027 	ldrb.w	r3, [r7, #39]	; 0x27
 8003e74:	2b00      	cmp	r3, #0
 8003e76:	d01c      	beq.n	8003eb2 <I2C_IsErrorOccurred+0x1ae>
  {
    /* Flush TX register */
    I2C_Flush_TXDR(hi2c);
 8003e78:	68f8      	ldr	r0, [r7, #12]
 8003e7a:	f7ff fe45 	bl	8003b08 <I2C_Flush_TXDR>

    /* Clear Configuration Register 2 */
    I2C_RESET_CR2(hi2c);
 8003e7e:	68fb      	ldr	r3, [r7, #12]
 8003e80:	681b      	ldr	r3, [r3, #0]
 8003e82:	6859      	ldr	r1, [r3, #4]
 8003e84:	68fb      	ldr	r3, [r7, #12]
 8003e86:	681a      	ldr	r2, [r3, #0]
 8003e88:	4b0d      	ldr	r3, [pc, #52]	; (8003ec0 <I2C_IsErrorOccurred+0x1bc>)
 8003e8a:	400b      	ands	r3, r1
 8003e8c:	6053      	str	r3, [r2, #4]

    hi2c->ErrorCode |= error_code;
 8003e8e:	68fb      	ldr	r3, [r7, #12]
 8003e90:	6c5a      	ldr	r2, [r3, #68]	; 0x44
 8003e92:	6a3b      	ldr	r3, [r7, #32]
 8003e94:	431a      	orrs	r2, r3
 8003e96:	68fb      	ldr	r3, [r7, #12]
 8003e98:	645a      	str	r2, [r3, #68]	; 0x44
    hi2c->State = HAL_I2C_STATE_READY;
 8003e9a:	68fb      	ldr	r3, [r7, #12]
 8003e9c:	2220      	movs	r2, #32
 8003e9e:	f883 2041 	strb.w	r2, [r3, #65]	; 0x41
    hi2c->Mode = HAL_I2C_MODE_NONE;
 8003ea2:	68fb      	ldr	r3, [r7, #12]
 8003ea4:	2200      	movs	r2, #0
 8003ea6:	f883 2042 	strb.w	r2, [r3, #66]	; 0x42

    /* Process Unlocked */
    __HAL_UNLOCK(hi2c);
 8003eaa:	68fb      	ldr	r3, [r7, #12]
 8003eac:	2200      	movs	r2, #0
 8003eae:	f883 2040 	strb.w	r2, [r3, #64]	; 0x40
  }

  return status;
 8003eb2:	f897 3027 	ldrb.w	r3, [r7, #39]	; 0x27
}
 8003eb6:	4618      	mov	r0, r3
 8003eb8:	3728      	adds	r7, #40	; 0x28
 8003eba:	46bd      	mov	sp, r7
 8003ebc:	bd80      	pop	{r7, pc}
 8003ebe:	bf00      	nop
 8003ec0:	fe00e800 	.word	0xfe00e800

08003ec4 <I2C_TransferConfig>:
  *     @arg @ref I2C_GENERATE_START_WRITE Generate Restart for write request.
  * @retval None
  */
static void I2C_TransferConfig(I2C_HandleTypeDef *hi2c, uint16_t DevAddress, uint8_t Size, uint32_t Mode,
                               uint32_t Request)
{
 8003ec4:	b480      	push	{r7}
 8003ec6:	b087      	sub	sp, #28
 8003ec8:	af00      	add	r7, sp, #0
 8003eca:	60f8      	str	r0, [r7, #12]
 8003ecc:	607b      	str	r3, [r7, #4]
 8003ece:	460b      	mov	r3, r1
 8003ed0:	817b      	strh	r3, [r7, #10]
 8003ed2:	4613      	mov	r3, r2
 8003ed4:	727b      	strb	r3, [r7, #9]
  assert_param(IS_I2C_ALL_INSTANCE(hi2c->Instance));
  assert_param(IS_TRANSFER_MODE(Mode));
  assert_param(IS_TRANSFER_REQUEST(Request));

  /* Declaration of tmp to prevent undefined behavior of volatile usage */
  uint32_t tmp = ((uint32_t)(((uint32_t)DevAddress & I2C_CR2_SADD) | \
 8003ed6:	897b      	ldrh	r3, [r7, #10]
 8003ed8:	f3c3 0209 	ubfx	r2, r3, #0, #10
                             (((uint32_t)Size << I2C_CR2_NBYTES_Pos) & I2C_CR2_NBYTES) | \
 8003edc:	7a7b      	ldrb	r3, [r7, #9]
 8003ede:	041b      	lsls	r3, r3, #16
 8003ee0:	f403 037f 	and.w	r3, r3, #16711680	; 0xff0000
  uint32_t tmp = ((uint32_t)(((uint32_t)DevAddress & I2C_CR2_SADD) | \
 8003ee4:	431a      	orrs	r2, r3
                             (((uint32_t)Size << I2C_CR2_NBYTES_Pos) & I2C_CR2_NBYTES) | \
 8003ee6:	687b      	ldr	r3, [r7, #4]
 8003ee8:	431a      	orrs	r2, r3
  uint32_t tmp = ((uint32_t)(((uint32_t)DevAddress & I2C_CR2_SADD) | \
 8003eea:	6a3b      	ldr	r3, [r7, #32]
 8003eec:	4313      	orrs	r3, r2
 8003eee:	f023 4300 	bic.w	r3, r3, #2147483648	; 0x80000000
 8003ef2:	617b      	str	r3, [r7, #20]
                             (uint32_t)Mode | (uint32_t)Request) & (~0x80000000U));

  /* update CR2 register */
  MODIFY_REG(hi2c->Instance->CR2, \
 8003ef4:	68fb      	ldr	r3, [r7, #12]
 8003ef6:	681b      	ldr	r3, [r3, #0]
 8003ef8:	685a      	ldr	r2, [r3, #4]
 8003efa:	6a3b      	ldr	r3, [r7, #32]
 8003efc:	0d5b      	lsrs	r3, r3, #21
 8003efe:	f403 6180 	and.w	r1, r3, #1024	; 0x400
 8003f02:	4b08      	ldr	r3, [pc, #32]	; (8003f24 <I2C_TransferConfig+0x60>)
 8003f04:	430b      	orrs	r3, r1
 8003f06:	43db      	mvns	r3, r3
 8003f08:	ea02 0103 	and.w	r1, r2, r3
 8003f0c:	68fb      	ldr	r3, [r7, #12]
 8003f0e:	681b      	ldr	r3, [r3, #0]
 8003f10:	697a      	ldr	r2, [r7, #20]
 8003f12:	430a      	orrs	r2, r1
 8003f14:	605a      	str	r2, [r3, #4]
             ((I2C_CR2_SADD | I2C_CR2_NBYTES | I2C_CR2_RELOAD | I2C_CR2_AUTOEND | \
               (I2C_CR2_RD_WRN & (uint32_t)(Request >> (31U - I2C_CR2_RD_WRN_Pos))) | \
               I2C_CR2_START | I2C_CR2_STOP)), tmp);
}
 8003f16:	bf00      	nop
 8003f18:	371c      	adds	r7, #28
 8003f1a:	46bd      	mov	sp, r7
 8003f1c:	f85d 7b04 	ldr.w	r7, [sp], #4
 8003f20:	4770      	bx	lr
 8003f22:	bf00      	nop
 8003f24:	03ff63ff 	.word	0x03ff63ff

08003f28 <HAL_I2CEx_ConfigAnalogFilter>:
  *                the configuration information for the specified I2Cx peripheral.
  * @param  AnalogFilter New state of the Analog filter.
  * @retval HAL status
  */
HAL_StatusTypeDef HAL_I2CEx_ConfigAnalogFilter(I2C_HandleTypeDef *hi2c, uint32_t AnalogFilter)
{
 8003f28:	b480      	push	{r7}
 8003f2a:	b083      	sub	sp, #12
 8003f2c:	af00      	add	r7, sp, #0
 8003f2e:	6078      	str	r0, [r7, #4]
 8003f30:	6039      	str	r1, [r7, #0]
  /* Check the parameters */
  assert_param(IS_I2C_ALL_INSTANCE(hi2c->Instance));
  assert_param(IS_I2C_ANALOG_FILTER(AnalogFilter));

  if (hi2c->State == HAL_I2C_STATE_READY)
 8003f32:	687b      	ldr	r3, [r7, #4]
 8003f34:	f893 3041 	ldrb.w	r3, [r3, #65]	; 0x41
 8003f38:	b2db      	uxtb	r3, r3
 8003f3a:	2b20      	cmp	r3, #32
 8003f3c:	d138      	bne.n	8003fb0 <HAL_I2CEx_ConfigAnalogFilter+0x88>
  {
    /* Process Locked */
    __HAL_LOCK(hi2c);
 8003f3e:	687b      	ldr	r3, [r7, #4]
 8003f40:	f893 3040 	ldrb.w	r3, [r3, #64]	; 0x40
 8003f44:	2b01      	cmp	r3, #1
 8003f46:	d101      	bne.n	8003f4c <HAL_I2CEx_ConfigAnalogFilter+0x24>
 8003f48:	2302      	movs	r3, #2
 8003f4a:	e032      	b.n	8003fb2 <HAL_I2CEx_ConfigAnalogFilter+0x8a>
 8003f4c:	687b      	ldr	r3, [r7, #4]
 8003f4e:	2201      	movs	r2, #1
 8003f50:	f883 2040 	strb.w	r2, [r3, #64]	; 0x40

    hi2c->State = HAL_I2C_STATE_BUSY;
 8003f54:	687b      	ldr	r3, [r7, #4]
 8003f56:	2224      	movs	r2, #36	; 0x24
 8003f58:	f883 2041 	strb.w	r2, [r3, #65]	; 0x41

    /* Disable the selected I2C peripheral */
    __HAL_I2C_DISABLE(hi2c);
 8003f5c:	687b      	ldr	r3, [r7, #4]
 8003f5e:	681b      	ldr	r3, [r3, #0]
 8003f60:	681a      	ldr	r2, [r3, #0]
 8003f62:	687b      	ldr	r3, [r7, #4]
 8003f64:	681b      	ldr	r3, [r3, #0]
 8003f66:	f022 0201 	bic.w	r2, r2, #1
 8003f6a:	601a      	str	r2, [r3, #0]

    /* Reset I2Cx ANOFF bit */
    hi2c->Instance->CR1 &= ~(I2C_CR1_ANFOFF);
 8003f6c:	687b      	ldr	r3, [r7, #4]
 8003f6e:	681b      	ldr	r3, [r3, #0]
 8003f70:	681a      	ldr	r2, [r3, #0]
 8003f72:	687b      	ldr	r3, [r7, #4]
 8003f74:	681b      	ldr	r3, [r3, #0]
 8003f76:	f422 5280 	bic.w	r2, r2, #4096	; 0x1000
 8003f7a:	601a      	str	r2, [r3, #0]

    /* Set analog filter bit*/
    hi2c->Instance->CR1 |= AnalogFilter;
 8003f7c:	687b      	ldr	r3, [r7, #4]
 8003f7e:	681b      	ldr	r3, [r3, #0]
 8003f80:	6819      	ldr	r1, [r3, #0]
 8003f82:	687b      	ldr	r3, [r7, #4]
 8003f84:	681b      	ldr	r3, [r3, #0]
 8003f86:	683a      	ldr	r2, [r7, #0]
 8003f88:	430a      	orrs	r2, r1
 8003f8a:	601a      	str	r2, [r3, #0]

    __HAL_I2C_ENABLE(hi2c);
 8003f8c:	687b      	ldr	r3, [r7, #4]
 8003f8e:	681b      	ldr	r3, [r3, #0]
 8003f90:	681a      	ldr	r2, [r3, #0]
 8003f92:	687b      	ldr	r3, [r7, #4]
 8003f94:	681b      	ldr	r3, [r3, #0]
 8003f96:	f042 0201 	orr.w	r2, r2, #1
 8003f9a:	601a      	str	r2, [r3, #0]

    hi2c->State = HAL_I2C_STATE_READY;
 8003f9c:	687b      	ldr	r3, [r7, #4]
 8003f9e:	2220      	movs	r2, #32
 8003fa0:	f883 2041 	strb.w	r2, [r3, #65]	; 0x41

    /* Process Unlocked */
    __HAL_UNLOCK(hi2c);
 8003fa4:	687b      	ldr	r3, [r7, #4]
 8003fa6:	2200      	movs	r2, #0
 8003fa8:	f883 2040 	strb.w	r2, [r3, #64]	; 0x40

    return HAL_OK;
 8003fac:	2300      	movs	r3, #0
 8003fae:	e000      	b.n	8003fb2 <HAL_I2CEx_ConfigAnalogFilter+0x8a>
  }
  else
  {
    return HAL_BUSY;
 8003fb0:	2302      	movs	r3, #2
  }
}
 8003fb2:	4618      	mov	r0, r3
 8003fb4:	370c      	adds	r7, #12
 8003fb6:	46bd      	mov	sp, r7
 8003fb8:	f85d 7b04 	ldr.w	r7, [sp], #4
 8003fbc:	4770      	bx	lr

08003fbe <HAL_I2CEx_ConfigDigitalFilter>:
  *                the configuration information for the specified I2Cx peripheral.
  * @param  DigitalFilter Coefficient of digital noise filter between Min_Data=0x00 and Max_Data=0x0F.
  * @retval HAL status
  */
HAL_StatusTypeDef HAL_I2CEx_ConfigDigitalFilter(I2C_HandleTypeDef *hi2c, uint32_t DigitalFilter)
{
 8003fbe:	b480      	push	{r7}
 8003fc0:	b085      	sub	sp, #20
 8003fc2:	af00      	add	r7, sp, #0
 8003fc4:	6078      	str	r0, [r7, #4]
 8003fc6:	6039      	str	r1, [r7, #0]

  /* Check the parameters */
  assert_param(IS_I2C_ALL_INSTANCE(hi2c->Instance));
  assert_param(IS_I2C_DIGITAL_FILTER(DigitalFilter));

  if (hi2c->State == HAL_I2C_STATE_READY)
 8003fc8:	687b      	ldr	r3, [r7, #4]
 8003fca:	f893 3041 	ldrb.w	r3, [r3, #65]	; 0x41
 8003fce:	b2db      	uxtb	r3, r3
 8003fd0:	2b20      	cmp	r3, #32
 8003fd2:	d139      	bne.n	8004048 <HAL_I2CEx_ConfigDigitalFilter+0x8a>
  {
    /* Process Locked */
    __HAL_LOCK(hi2c);
 8003fd4:	687b      	ldr	r3, [r7, #4]
 8003fd6:	f893 3040 	ldrb.w	r3, [r3, #64]	; 0x40
 8003fda:	2b01      	cmp	r3, #1
 8003fdc:	d101      	bne.n	8003fe2 <HAL_I2CEx_ConfigDigitalFilter+0x24>
 8003fde:	2302      	movs	r3, #2
 8003fe0:	e033      	b.n	800404a <HAL_I2CEx_ConfigDigitalFilter+0x8c>
 8003fe2:	687b      	ldr	r3, [r7, #4]
 8003fe4:	2201      	movs	r2, #1
 8003fe6:	f883 2040 	strb.w	r2, [r3, #64]	; 0x40

    hi2c->State = HAL_I2C_STATE_BUSY;
 8003fea:	687b      	ldr	r3, [r7, #4]
 8003fec:	2224      	movs	r2, #36	; 0x24
 8003fee:	f883 2041 	strb.w	r2, [r3, #65]	; 0x41

    /* Disable the selected I2C peripheral */
    __HAL_I2C_DISABLE(hi2c);
 8003ff2:	687b      	ldr	r3, [r7, #4]
 8003ff4:	681b      	ldr	r3, [r3, #0]
 8003ff6:	681a      	ldr	r2, [r3, #0]
 8003ff8:	687b      	ldr	r3, [r7, #4]
 8003ffa:	681b      	ldr	r3, [r3, #0]
 8003ffc:	f022 0201 	bic.w	r2, r2, #1
 8004000:	601a      	str	r2, [r3, #0]

    /* Get the old register value */
    tmpreg = hi2c->Instance->CR1;
 8004002:	687b      	ldr	r3, [r7, #4]
 8004004:	681b      	ldr	r3, [r3, #0]
 8004006:	681b      	ldr	r3, [r3, #0]
 8004008:	60fb      	str	r3, [r7, #12]

    /* Reset I2Cx DNF bits [11:8] */
    tmpreg &= ~(I2C_CR1_DNF);
 800400a:	68fb      	ldr	r3, [r7, #12]
 800400c:	f423 6370 	bic.w	r3, r3, #3840	; 0xf00
 8004010:	60fb      	str	r3, [r7, #12]

    /* Set I2Cx DNF coefficient */
    tmpreg |= DigitalFilter << 8U;
 8004012:	683b      	ldr	r3, [r7, #0]
 8004014:	021b      	lsls	r3, r3, #8
 8004016:	68fa      	ldr	r2, [r7, #12]
 8004018:	4313      	orrs	r3, r2
 800401a:	60fb      	str	r3, [r7, #12]

    /* Store the new register value */
    hi2c->Instance->CR1 = tmpreg;
 800401c:	687b      	ldr	r3, [r7, #4]
 800401e:	681b      	ldr	r3, [r3, #0]
 8004020:	68fa      	ldr	r2, [r7, #12]
 8004022:	601a      	str	r2, [r3, #0]

    __HAL_I2C_ENABLE(hi2c);
 8004024:	687b      	ldr	r3, [r7, #4]
 8004026:	681b      	ldr	r3, [r3, #0]
 8004028:	681a      	ldr	r2, [r3, #0]
 800402a:	687b      	ldr	r3, [r7, #4]
 800402c:	681b      	ldr	r3, [r3, #0]
 800402e:	f042 0201 	orr.w	r2, r2, #1
 8004032:	601a      	str	r2, [r3, #0]

    hi2c->State = HAL_I2C_STATE_READY;
 8004034:	687b      	ldr	r3, [r7, #4]
 8004036:	2220      	movs	r2, #32
 8004038:	f883 2041 	strb.w	r2, [r3, #65]	; 0x41

    /* Process Unlocked */
    __HAL_UNLOCK(hi2c);
 800403c:	687b      	ldr	r3, [r7, #4]
 800403e:	2200      	movs	r2, #0
 8004040:	f883 2040 	strb.w	r2, [r3, #64]	; 0x40

    return HAL_OK;
 8004044:	2300      	movs	r3, #0
 8004046:	e000      	b.n	800404a <HAL_I2CEx_ConfigDigitalFilter+0x8c>
  }
  else
  {
    return HAL_BUSY;
 8004048:	2302      	movs	r3, #2
  }
}
 800404a:	4618      	mov	r0, r3
 800404c:	3714      	adds	r7, #20
 800404e:	46bd      	mov	sp, r7
 8004050:	f85d 7b04 	ldr.w	r7, [sp], #4
 8004054:	4770      	bx	lr

08004056 <HAL_PCD_Init>:
  *         parameters in the PCD_InitTypeDef and initialize the associated handle.
  * @param  hpcd PCD handle
  * @retval HAL status
  */
HAL_StatusTypeDef HAL_PCD_Init(PCD_HandleTypeDef *hpcd)
{
 8004056:	b5f0      	push	{r4, r5, r6, r7, lr}
 8004058:	b08b      	sub	sp, #44	; 0x2c
 800405a:	af06      	add	r7, sp, #24
 800405c:	6078      	str	r0, [r7, #4]
  uint8_t i;

  /* Check the PCD handle allocation */
  if (hpcd == NULL)
 800405e:	687b      	ldr	r3, [r7, #4]
 8004060:	2b00      	cmp	r3, #0
 8004062:	d101      	bne.n	8004068 <HAL_PCD_Init+0x12>
  {
    return HAL_ERROR;
 8004064:	2301      	movs	r3, #1
 8004066:	e0c4      	b.n	80041f2 <HAL_PCD_Init+0x19c>
  }

  /* Check the parameters */
  assert_param(IS_PCD_ALL_INSTANCE(hpcd->Instance));

  if (hpcd->State == HAL_PCD_STATE_RESET)
 8004068:	687b      	ldr	r3, [r7, #4]
 800406a:	f893 32a9 	ldrb.w	r3, [r3, #681]	; 0x2a9
 800406e:	b2db      	uxtb	r3, r3
 8004070:	2b00      	cmp	r3, #0
 8004072:	d106      	bne.n	8004082 <HAL_PCD_Init+0x2c>
  {
    /* Allocate lock resource and initialize it */
    hpcd->Lock = HAL_UNLOCKED;
 8004074:	687b      	ldr	r3, [r7, #4]
 8004076:	2200      	movs	r2, #0
 8004078:	f883 22a8 	strb.w	r2, [r3, #680]	; 0x2a8

    /* Init the low level hardware */
    hpcd->MspInitCallback(hpcd);
#else
    /* Init the low level hardware : GPIO, CLOCK, NVIC... */
    HAL_PCD_MspInit(hpcd);
 800407c:	6878      	ldr	r0, [r7, #4]
 800407e:	f7fe fc9d 	bl	80029bc <HAL_PCD_MspInit>
#endif /* (USE_HAL_PCD_REGISTER_CALLBACKS) */
  }

  hpcd->State = HAL_PCD_STATE_BUSY;
 8004082:	687b      	ldr	r3, [r7, #4]
 8004084:	2203      	movs	r2, #3
 8004086:	f883 22a9 	strb.w	r2, [r3, #681]	; 0x2a9

  /* Disable the Interrupts */
  __HAL_PCD_DISABLE(hpcd);
 800408a:	687b      	ldr	r3, [r7, #4]
 800408c:	681b      	ldr	r3, [r3, #0]
 800408e:	4618      	mov	r0, r3
 8004090:	f002 fe2a 	bl	8006ce8 <USB_DisableGlobalInt>

  /* Init endpoints structures */
  for (i = 0U; i < hpcd->Init.dev_endpoints; i++)
 8004094:	2300      	movs	r3, #0
 8004096:	73fb      	strb	r3, [r7, #15]
 8004098:	e040      	b.n	800411c <HAL_PCD_Init+0xc6>
  {
    /* Init ep structure */
    hpcd->IN_ep[i].is_in = 1U;
 800409a:	7bfb      	ldrb	r3, [r7, #15]
 800409c:	6879      	ldr	r1, [r7, #4]
 800409e:	1c5a      	adds	r2, r3, #1
 80040a0:	4613      	mov	r3, r2
 80040a2:	009b      	lsls	r3, r3, #2
 80040a4:	4413      	add	r3, r2
 80040a6:	00db      	lsls	r3, r3, #3
 80040a8:	440b      	add	r3, r1
 80040aa:	3301      	adds	r3, #1
 80040ac:	2201      	movs	r2, #1
 80040ae:	701a      	strb	r2, [r3, #0]
    hpcd->IN_ep[i].num = i;
 80040b0:	7bfb      	ldrb	r3, [r7, #15]
 80040b2:	6879      	ldr	r1, [r7, #4]
 80040b4:	1c5a      	adds	r2, r3, #1
 80040b6:	4613      	mov	r3, r2
 80040b8:	009b      	lsls	r3, r3, #2
 80040ba:	4413      	add	r3, r2
 80040bc:	00db      	lsls	r3, r3, #3
 80040be:	440b      	add	r3, r1
 80040c0:	7bfa      	ldrb	r2, [r7, #15]
 80040c2:	701a      	strb	r2, [r3, #0]
    /* Control until ep is activated */
    hpcd->IN_ep[i].type = EP_TYPE_CTRL;
 80040c4:	7bfb      	ldrb	r3, [r7, #15]
 80040c6:	6879      	ldr	r1, [r7, #4]
 80040c8:	1c5a      	adds	r2, r3, #1
 80040ca:	4613      	mov	r3, r2
 80040cc:	009b      	lsls	r3, r3, #2
 80040ce:	4413      	add	r3, r2
 80040d0:	00db      	lsls	r3, r3, #3
 80040d2:	440b      	add	r3, r1
 80040d4:	3303      	adds	r3, #3
 80040d6:	2200      	movs	r2, #0
 80040d8:	701a      	strb	r2, [r3, #0]
    hpcd->IN_ep[i].maxpacket = 0U;
 80040da:	7bfa      	ldrb	r2, [r7, #15]
 80040dc:	6879      	ldr	r1, [r7, #4]
 80040de:	4613      	mov	r3, r2
 80040e0:	009b      	lsls	r3, r3, #2
 80040e2:	4413      	add	r3, r2
 80040e4:	00db      	lsls	r3, r3, #3
 80040e6:	440b      	add	r3, r1
 80040e8:	3338      	adds	r3, #56	; 0x38
 80040ea:	2200      	movs	r2, #0
 80040ec:	601a      	str	r2, [r3, #0]
    hpcd->IN_ep[i].xfer_buff = 0U;
 80040ee:	7bfa      	ldrb	r2, [r7, #15]
 80040f0:	6879      	ldr	r1, [r7, #4]
 80040f2:	4613      	mov	r3, r2
 80040f4:	009b      	lsls	r3, r3, #2
 80040f6:	4413      	add	r3, r2
 80040f8:	00db      	lsls	r3, r3, #3
 80040fa:	440b      	add	r3, r1
 80040fc:	333c      	adds	r3, #60	; 0x3c
 80040fe:	2200      	movs	r2, #0
 8004100:	601a      	str	r2, [r3, #0]
    hpcd->IN_ep[i].xfer_len = 0U;
 8004102:	7bfa      	ldrb	r2, [r7, #15]
 8004104:	6879      	ldr	r1, [r7, #4]
 8004106:	4613      	mov	r3, r2
 8004108:	009b      	lsls	r3, r3, #2
 800410a:	4413      	add	r3, r2
 800410c:	00db      	lsls	r3, r3, #3
 800410e:	440b      	add	r3, r1
 8004110:	3340      	adds	r3, #64	; 0x40
 8004112:	2200      	movs	r2, #0
 8004114:	601a      	str	r2, [r3, #0]
  for (i = 0U; i < hpcd->Init.dev_endpoints; i++)
 8004116:	7bfb      	ldrb	r3, [r7, #15]
 8004118:	3301      	adds	r3, #1
 800411a:	73fb      	strb	r3, [r7, #15]
 800411c:	7bfa      	ldrb	r2, [r7, #15]
 800411e:	687b      	ldr	r3, [r7, #4]
 8004120:	685b      	ldr	r3, [r3, #4]
 8004122:	429a      	cmp	r2, r3
 8004124:	d3b9      	bcc.n	800409a <HAL_PCD_Init+0x44>
  }

  for (i = 0U; i < hpcd->Init.dev_endpoints; i++)
 8004126:	2300      	movs	r3, #0
 8004128:	73fb      	strb	r3, [r7, #15]
 800412a:	e044      	b.n	80041b6 <HAL_PCD_Init+0x160>
  {
    hpcd->OUT_ep[i].is_in = 0U;
 800412c:	7bfa      	ldrb	r2, [r7, #15]
 800412e:	6879      	ldr	r1, [r7, #4]
 8004130:	4613      	mov	r3, r2
 8004132:	009b      	lsls	r3, r3, #2
 8004134:	4413      	add	r3, r2
 8004136:	00db      	lsls	r3, r3, #3
 8004138:	440b      	add	r3, r1
 800413a:	f203 1369 	addw	r3, r3, #361	; 0x169
 800413e:	2200      	movs	r2, #0
 8004140:	701a      	strb	r2, [r3, #0]
    hpcd->OUT_ep[i].num = i;
 8004142:	7bfa      	ldrb	r2, [r7, #15]
 8004144:	6879      	ldr	r1, [r7, #4]
 8004146:	4613      	mov	r3, r2
 8004148:	009b      	lsls	r3, r3, #2
 800414a:	4413      	add	r3, r2
 800414c:	00db      	lsls	r3, r3, #3
 800414e:	440b      	add	r3, r1
 8004150:	f503 73b4 	add.w	r3, r3, #360	; 0x168
 8004154:	7bfa      	ldrb	r2, [r7, #15]
 8004156:	701a      	strb	r2, [r3, #0]
    /* Control until ep is activated */
    hpcd->OUT_ep[i].type = EP_TYPE_CTRL;
 8004158:	7bfa      	ldrb	r2, [r7, #15]
 800415a:	6879      	ldr	r1, [r7, #4]
 800415c:	4613      	mov	r3, r2
 800415e:	009b      	lsls	r3, r3, #2
 8004160:	4413      	add	r3, r2
 8004162:	00db      	lsls	r3, r3, #3
 8004164:	440b      	add	r3, r1
 8004166:	f203 136b 	addw	r3, r3, #363	; 0x16b
 800416a:	2200      	movs	r2, #0
 800416c:	701a      	strb	r2, [r3, #0]
    hpcd->OUT_ep[i].maxpacket = 0U;
 800416e:	7bfa      	ldrb	r2, [r7, #15]
 8004170:	6879      	ldr	r1, [r7, #4]
 8004172:	4613      	mov	r3, r2
 8004174:	009b      	lsls	r3, r3, #2
 8004176:	4413      	add	r3, r2
 8004178:	00db      	lsls	r3, r3, #3
 800417a:	440b      	add	r3, r1
 800417c:	f503 73bc 	add.w	r3, r3, #376	; 0x178
 8004180:	2200      	movs	r2, #0
 8004182:	601a      	str	r2, [r3, #0]
    hpcd->OUT_ep[i].xfer_buff = 0U;
 8004184:	7bfa      	ldrb	r2, [r7, #15]
 8004186:	6879      	ldr	r1, [r7, #4]
 8004188:	4613      	mov	r3, r2
 800418a:	009b      	lsls	r3, r3, #2
 800418c:	4413      	add	r3, r2
 800418e:	00db      	lsls	r3, r3, #3
 8004190:	440b      	add	r3, r1
 8004192:	f503 73be 	add.w	r3, r3, #380	; 0x17c
 8004196:	2200      	movs	r2, #0
 8004198:	601a      	str	r2, [r3, #0]
    hpcd->OUT_ep[i].xfer_len = 0U;
 800419a:	7bfa      	ldrb	r2, [r7, #15]
 800419c:	6879      	ldr	r1, [r7, #4]
 800419e:	4613      	mov	r3, r2
 80041a0:	009b      	lsls	r3, r3, #2
 80041a2:	4413      	add	r3, r2
 80041a4:	00db      	lsls	r3, r3, #3
 80041a6:	440b      	add	r3, r1
 80041a8:	f503 73c0 	add.w	r3, r3, #384	; 0x180
 80041ac:	2200      	movs	r2, #0
 80041ae:	601a      	str	r2, [r3, #0]
  for (i = 0U; i < hpcd->Init.dev_endpoints; i++)
 80041b0:	7bfb      	ldrb	r3, [r7, #15]
 80041b2:	3301      	adds	r3, #1
 80041b4:	73fb      	strb	r3, [r7, #15]
 80041b6:	7bfa      	ldrb	r2, [r7, #15]
 80041b8:	687b      	ldr	r3, [r7, #4]
 80041ba:	685b      	ldr	r3, [r3, #4]
 80041bc:	429a      	cmp	r2, r3
 80041be:	d3b5      	bcc.n	800412c <HAL_PCD_Init+0xd6>
  }

  /* Init Device */
  (void)USB_DevInit(hpcd->Instance, hpcd->Init);
 80041c0:	687b      	ldr	r3, [r7, #4]
 80041c2:	681b      	ldr	r3, [r3, #0]
 80041c4:	603b      	str	r3, [r7, #0]
 80041c6:	687e      	ldr	r6, [r7, #4]
 80041c8:	466d      	mov	r5, sp
 80041ca:	f106 0410 	add.w	r4, r6, #16
 80041ce:	cc0f      	ldmia	r4!, {r0, r1, r2, r3}
 80041d0:	c50f      	stmia	r5!, {r0, r1, r2, r3}
 80041d2:	6823      	ldr	r3, [r4, #0]
 80041d4:	602b      	str	r3, [r5, #0]
 80041d6:	1d33      	adds	r3, r6, #4
 80041d8:	cb0e      	ldmia	r3, {r1, r2, r3}
 80041da:	6838      	ldr	r0, [r7, #0]
 80041dc:	f002 fd9f 	bl	8006d1e <USB_DevInit>

  hpcd->USB_Address = 0U;
 80041e0:	687b      	ldr	r3, [r7, #4]
 80041e2:	2200      	movs	r2, #0
 80041e4:	f883 2024 	strb.w	r2, [r3, #36]	; 0x24
  hpcd->State = HAL_PCD_STATE_READY;
 80041e8:	687b      	ldr	r3, [r7, #4]
 80041ea:	2201      	movs	r2, #1
 80041ec:	f883 22a9 	strb.w	r2, [r3, #681]	; 0x2a9
  return HAL_OK;
 80041f0:	2300      	movs	r3, #0
}
 80041f2:	4618      	mov	r0, r3
 80041f4:	3714      	adds	r7, #20
 80041f6:	46bd      	mov	sp, r7
 80041f8:	bdf0      	pop	{r4, r5, r6, r7, pc}
	...

080041fc <HAL_RCC_OscConfig>:
  *         supported by this macro. User should request a transition to HSE Off
  *         first and then HSE On or HSE Bypass.
  * @retval HAL status
  */
HAL_StatusTypeDef HAL_RCC_OscConfig(RCC_OscInitTypeDef  *RCC_OscInitStruct)
{
 80041fc:	b580      	push	{r7, lr}
 80041fe:	f5ad 7d00 	sub.w	sp, sp, #512	; 0x200
 8004202:	af00      	add	r7, sp, #0
 8004204:	f507 7300 	add.w	r3, r7, #512	; 0x200
 8004208:	f5a3 73fe 	sub.w	r3, r3, #508	; 0x1fc
 800420c:	6018      	str	r0, [r3, #0]
#if defined(RCC_CFGR_PLLSRC_HSI_PREDIV)
  uint32_t pll_config2;
#endif /* RCC_CFGR_PLLSRC_HSI_PREDIV */

  /* Check Null pointer */
  if(RCC_OscInitStruct == NULL)
 800420e:	f507 7300 	add.w	r3, r7, #512	; 0x200
 8004212:	f5a3 73fe 	sub.w	r3, r3, #508	; 0x1fc
 8004216:	681b      	ldr	r3, [r3, #0]
 8004218:	2b00      	cmp	r3, #0
 800421a:	d102      	bne.n	8004222 <HAL_RCC_OscConfig+0x26>
  {
    return HAL_ERROR;
 800421c:	2301      	movs	r3, #1
 800421e:	f001 b823 	b.w	8005268 <HAL_RCC_OscConfig+0x106c>

  /* Check the parameters */
  assert_param(IS_RCC_OSCILLATORTYPE(RCC_OscInitStruct->OscillatorType));

  /*------------------------------- HSE Configuration ------------------------*/ 
  if(((RCC_OscInitStruct->OscillatorType) & RCC_OSCILLATORTYPE_HSE) == RCC_OSCILLATORTYPE_HSE)
 8004222:	f507 7300 	add.w	r3, r7, #512	; 0x200
 8004226:	f5a3 73fe 	sub.w	r3, r3, #508	; 0x1fc
 800422a:	681b      	ldr	r3, [r3, #0]
 800422c:	681b      	ldr	r3, [r3, #0]
 800422e:	f003 0301 	and.w	r3, r3, #1
 8004232:	2b00      	cmp	r3, #0
 8004234:	f000 817d 	beq.w	8004532 <HAL_RCC_OscConfig+0x336>
  {
    /* Check the parameters */
    assert_param(IS_RCC_HSE(RCC_OscInitStruct->HSEState));

    /* When the HSE is used as system clock or clock source for PLL in these cases it is not allowed to be disabled */
    if((__HAL_RCC_GET_SYSCLK_SOURCE() == RCC_SYSCLKSOURCE_STATUS_HSE) 
 8004238:	4bbc      	ldr	r3, [pc, #752]	; (800452c <HAL_RCC_OscConfig+0x330>)
 800423a:	685b      	ldr	r3, [r3, #4]
 800423c:	f003 030c 	and.w	r3, r3, #12
 8004240:	2b04      	cmp	r3, #4
 8004242:	d00c      	beq.n	800425e <HAL_RCC_OscConfig+0x62>
       || ((__HAL_RCC_GET_SYSCLK_SOURCE() == RCC_SYSCLKSOURCE_STATUS_PLLCLK) && (__HAL_RCC_GET_PLL_OSCSOURCE() == RCC_PLLSOURCE_HSE)))
 8004244:	4bb9      	ldr	r3, [pc, #740]	; (800452c <HAL_RCC_OscConfig+0x330>)
 8004246:	685b      	ldr	r3, [r3, #4]
 8004248:	f003 030c 	and.w	r3, r3, #12
 800424c:	2b08      	cmp	r3, #8
 800424e:	d15c      	bne.n	800430a <HAL_RCC_OscConfig+0x10e>
 8004250:	4bb6      	ldr	r3, [pc, #728]	; (800452c <HAL_RCC_OscConfig+0x330>)
 8004252:	685b      	ldr	r3, [r3, #4]
 8004254:	f403 3380 	and.w	r3, r3, #65536	; 0x10000
 8004258:	f5b3 3f80 	cmp.w	r3, #65536	; 0x10000
 800425c:	d155      	bne.n	800430a <HAL_RCC_OscConfig+0x10e>
 800425e:	f44f 3300 	mov.w	r3, #131072	; 0x20000
 8004262:	f8c7 31f0 	str.w	r3, [r7, #496]	; 0x1f0
  uint32_t result;

#if ((defined (__ARM_ARCH_7M__      ) && (__ARM_ARCH_7M__      == 1)) || \
     (defined (__ARM_ARCH_7EM__     ) && (__ARM_ARCH_7EM__     == 1)) || \
     (defined (__ARM_ARCH_8M_MAIN__ ) && (__ARM_ARCH_8M_MAIN__ == 1))    )
   __ASM volatile ("rbit %0, %1" : "=r" (result) : "r" (value) );
 8004266:	f8d7 31f0 	ldr.w	r3, [r7, #496]	; 0x1f0
 800426a:	fa93 f3a3 	rbit	r3, r3
 800426e:	f8c7 31ec 	str.w	r3, [r7, #492]	; 0x1ec
    result |= value & 1U;
    s--;
  }
  result <<= s;                        /* shift when v's highest bits are zero */
#endif
  return result;
 8004272:	f8d7 31ec 	ldr.w	r3, [r7, #492]	; 0x1ec
    {
      if((__HAL_RCC_GET_FLAG(RCC_FLAG_HSERDY) != RESET) && (RCC_OscInitStruct->HSEState == RCC_HSE_OFF))
 8004276:	fab3 f383 	clz	r3, r3
 800427a:	b2db      	uxtb	r3, r3
 800427c:	095b      	lsrs	r3, r3, #5
 800427e:	b2db      	uxtb	r3, r3
 8004280:	f043 0301 	orr.w	r3, r3, #1
 8004284:	b2db      	uxtb	r3, r3
 8004286:	2b01      	cmp	r3, #1
 8004288:	d102      	bne.n	8004290 <HAL_RCC_OscConfig+0x94>
 800428a:	4ba8      	ldr	r3, [pc, #672]	; (800452c <HAL_RCC_OscConfig+0x330>)
 800428c:	681b      	ldr	r3, [r3, #0]
 800428e:	e015      	b.n	80042bc <HAL_RCC_OscConfig+0xc0>
 8004290:	f44f 3300 	mov.w	r3, #131072	; 0x20000
 8004294:	f8c7 31e8 	str.w	r3, [r7, #488]	; 0x1e8
   __ASM volatile ("rbit %0, %1" : "=r" (result) : "r" (value) );
 8004298:	f8d7 31e8 	ldr.w	r3, [r7, #488]	; 0x1e8
 800429c:	fa93 f3a3 	rbit	r3, r3
 80042a0:	f8c7 31e4 	str.w	r3, [r7, #484]	; 0x1e4
 80042a4:	f44f 3300 	mov.w	r3, #131072	; 0x20000
 80042a8:	f8c7 31e0 	str.w	r3, [r7, #480]	; 0x1e0
 80042ac:	f8d7 31e0 	ldr.w	r3, [r7, #480]	; 0x1e0
 80042b0:	fa93 f3a3 	rbit	r3, r3
 80042b4:	f8c7 31dc 	str.w	r3, [r7, #476]	; 0x1dc
 80042b8:	4b9c      	ldr	r3, [pc, #624]	; (800452c <HAL_RCC_OscConfig+0x330>)
 80042ba:	6a5b      	ldr	r3, [r3, #36]	; 0x24
 80042bc:	f44f 3200 	mov.w	r2, #131072	; 0x20000
 80042c0:	f8c7 21d8 	str.w	r2, [r7, #472]	; 0x1d8
 80042c4:	f8d7 21d8 	ldr.w	r2, [r7, #472]	; 0x1d8
 80042c8:	fa92 f2a2 	rbit	r2, r2
 80042cc:	f8c7 21d4 	str.w	r2, [r7, #468]	; 0x1d4
  return result;
 80042d0:	f8d7 21d4 	ldr.w	r2, [r7, #468]	; 0x1d4
 80042d4:	fab2 f282 	clz	r2, r2
 80042d8:	b2d2      	uxtb	r2, r2
 80042da:	f042 0220 	orr.w	r2, r2, #32
 80042de:	b2d2      	uxtb	r2, r2
 80042e0:	f002 021f 	and.w	r2, r2, #31
 80042e4:	2101      	movs	r1, #1
 80042e6:	fa01 f202 	lsl.w	r2, r1, r2
 80042ea:	4013      	ands	r3, r2
 80042ec:	2b00      	cmp	r3, #0
 80042ee:	f000 811f 	beq.w	8004530 <HAL_RCC_OscConfig+0x334>
 80042f2:	f507 7300 	add.w	r3, r7, #512	; 0x200
 80042f6:	f5a3 73fe 	sub.w	r3, r3, #508	; 0x1fc
 80042fa:	681b      	ldr	r3, [r3, #0]
 80042fc:	685b      	ldr	r3, [r3, #4]
 80042fe:	2b00      	cmp	r3, #0
 8004300:	f040 8116 	bne.w	8004530 <HAL_RCC_OscConfig+0x334>
      {
        return HAL_ERROR;
 8004304:	2301      	movs	r3, #1
 8004306:	f000 bfaf 	b.w	8005268 <HAL_RCC_OscConfig+0x106c>
      }
    }
    else
    {
      /* Set the new HSE configuration ---------------------------------------*/
      __HAL_RCC_HSE_CONFIG(RCC_OscInitStruct->HSEState);
 800430a:	f507 7300 	add.w	r3, r7, #512	; 0x200
 800430e:	f5a3 73fe 	sub.w	r3, r3, #508	; 0x1fc
 8004312:	681b      	ldr	r3, [r3, #0]
 8004314:	685b      	ldr	r3, [r3, #4]
 8004316:	f5b3 3f80 	cmp.w	r3, #65536	; 0x10000
 800431a:	d106      	bne.n	800432a <HAL_RCC_OscConfig+0x12e>
 800431c:	4b83      	ldr	r3, [pc, #524]	; (800452c <HAL_RCC_OscConfig+0x330>)
 800431e:	681b      	ldr	r3, [r3, #0]
 8004320:	4a82      	ldr	r2, [pc, #520]	; (800452c <HAL_RCC_OscConfig+0x330>)
 8004322:	f443 3380 	orr.w	r3, r3, #65536	; 0x10000
 8004326:	6013      	str	r3, [r2, #0]
 8004328:	e036      	b.n	8004398 <HAL_RCC_OscConfig+0x19c>
 800432a:	f507 7300 	add.w	r3, r7, #512	; 0x200
 800432e:	f5a3 73fe 	sub.w	r3, r3, #508	; 0x1fc
 8004332:	681b      	ldr	r3, [r3, #0]
 8004334:	685b      	ldr	r3, [r3, #4]
 8004336:	2b00      	cmp	r3, #0
 8004338:	d10c      	bne.n	8004354 <HAL_RCC_OscConfig+0x158>
 800433a:	4b7c      	ldr	r3, [pc, #496]	; (800452c <HAL_RCC_OscConfig+0x330>)
 800433c:	681b      	ldr	r3, [r3, #0]
 800433e:	4a7b      	ldr	r2, [pc, #492]	; (800452c <HAL_RCC_OscConfig+0x330>)
 8004340:	f423 3380 	bic.w	r3, r3, #65536	; 0x10000
 8004344:	6013      	str	r3, [r2, #0]
 8004346:	4b79      	ldr	r3, [pc, #484]	; (800452c <HAL_RCC_OscConfig+0x330>)
 8004348:	681b      	ldr	r3, [r3, #0]
 800434a:	4a78      	ldr	r2, [pc, #480]	; (800452c <HAL_RCC_OscConfig+0x330>)
 800434c:	f423 2380 	bic.w	r3, r3, #262144	; 0x40000
 8004350:	6013      	str	r3, [r2, #0]
 8004352:	e021      	b.n	8004398 <HAL_RCC_OscConfig+0x19c>
 8004354:	f507 7300 	add.w	r3, r7, #512	; 0x200
 8004358:	f5a3 73fe 	sub.w	r3, r3, #508	; 0x1fc
 800435c:	681b      	ldr	r3, [r3, #0]
 800435e:	685b      	ldr	r3, [r3, #4]
 8004360:	f5b3 2fa0 	cmp.w	r3, #327680	; 0x50000
 8004364:	d10c      	bne.n	8004380 <HAL_RCC_OscConfig+0x184>
 8004366:	4b71      	ldr	r3, [pc, #452]	; (800452c <HAL_RCC_OscConfig+0x330>)
 8004368:	681b      	ldr	r3, [r3, #0]
 800436a:	4a70      	ldr	r2, [pc, #448]	; (800452c <HAL_RCC_OscConfig+0x330>)
 800436c:	f443 2380 	orr.w	r3, r3, #262144	; 0x40000
 8004370:	6013      	str	r3, [r2, #0]
 8004372:	4b6e      	ldr	r3, [pc, #440]	; (800452c <HAL_RCC_OscConfig+0x330>)
 8004374:	681b      	ldr	r3, [r3, #0]
 8004376:	4a6d      	ldr	r2, [pc, #436]	; (800452c <HAL_RCC_OscConfig+0x330>)
 8004378:	f443 3380 	orr.w	r3, r3, #65536	; 0x10000
 800437c:	6013      	str	r3, [r2, #0]
 800437e:	e00b      	b.n	8004398 <HAL_RCC_OscConfig+0x19c>
 8004380:	4b6a      	ldr	r3, [pc, #424]	; (800452c <HAL_RCC_OscConfig+0x330>)
 8004382:	681b      	ldr	r3, [r3, #0]
 8004384:	4a69      	ldr	r2, [pc, #420]	; (800452c <HAL_RCC_OscConfig+0x330>)
 8004386:	f423 3380 	bic.w	r3, r3, #65536	; 0x10000
 800438a:	6013      	str	r3, [r2, #0]
 800438c:	4b67      	ldr	r3, [pc, #412]	; (800452c <HAL_RCC_OscConfig+0x330>)
 800438e:	681b      	ldr	r3, [r3, #0]
 8004390:	4a66      	ldr	r2, [pc, #408]	; (800452c <HAL_RCC_OscConfig+0x330>)
 8004392:	f423 2380 	bic.w	r3, r3, #262144	; 0x40000
 8004396:	6013      	str	r3, [r2, #0]
      
#if defined(RCC_CFGR_PLLSRC_HSI_DIV2)
      /* Configure the HSE predivision factor --------------------------------*/
      __HAL_RCC_HSE_PREDIV_CONFIG(RCC_OscInitStruct->HSEPredivValue);
 8004398:	4b64      	ldr	r3, [pc, #400]	; (800452c <HAL_RCC_OscConfig+0x330>)
 800439a:	6adb      	ldr	r3, [r3, #44]	; 0x2c
 800439c:	f023 020f 	bic.w	r2, r3, #15
 80043a0:	f507 7300 	add.w	r3, r7, #512	; 0x200
 80043a4:	f5a3 73fe 	sub.w	r3, r3, #508	; 0x1fc
 80043a8:	681b      	ldr	r3, [r3, #0]
 80043aa:	689b      	ldr	r3, [r3, #8]
 80043ac:	495f      	ldr	r1, [pc, #380]	; (800452c <HAL_RCC_OscConfig+0x330>)
 80043ae:	4313      	orrs	r3, r2
 80043b0:	62cb      	str	r3, [r1, #44]	; 0x2c
#endif /* RCC_CFGR_PLLSRC_HSI_DIV2 */

       /* Check the HSE State */
      if(RCC_OscInitStruct->HSEState != RCC_HSE_OFF)
 80043b2:	f507 7300 	add.w	r3, r7, #512	; 0x200
 80043b6:	f5a3 73fe 	sub.w	r3, r3, #508	; 0x1fc
 80043ba:	681b      	ldr	r3, [r3, #0]
 80043bc:	685b      	ldr	r3, [r3, #4]
 80043be:	2b00      	cmp	r3, #0
 80043c0:	d059      	beq.n	8004476 <HAL_RCC_OscConfig+0x27a>
      {
        /* Get Start Tick */
        tickstart = HAL_GetTick();
 80043c2:	f7fe fd4f 	bl	8002e64 <HAL_GetTick>
 80043c6:	f8c7 01f8 	str.w	r0, [r7, #504]	; 0x1f8
        
        /* Wait till HSE is ready */
        while(__HAL_RCC_GET_FLAG(RCC_FLAG_HSERDY) == RESET)
 80043ca:	e00a      	b.n	80043e2 <HAL_RCC_OscConfig+0x1e6>
        {
          if((HAL_GetTick() - tickstart ) > HSE_TIMEOUT_VALUE)
 80043cc:	f7fe fd4a 	bl	8002e64 <HAL_GetTick>
 80043d0:	4602      	mov	r2, r0
 80043d2:	f8d7 31f8 	ldr.w	r3, [r7, #504]	; 0x1f8
 80043d6:	1ad3      	subs	r3, r2, r3
 80043d8:	2b64      	cmp	r3, #100	; 0x64
 80043da:	d902      	bls.n	80043e2 <HAL_RCC_OscConfig+0x1e6>
          {
            return HAL_TIMEOUT;
 80043dc:	2303      	movs	r3, #3
 80043de:	f000 bf43 	b.w	8005268 <HAL_RCC_OscConfig+0x106c>
 80043e2:	f44f 3300 	mov.w	r3, #131072	; 0x20000
 80043e6:	f8c7 31d0 	str.w	r3, [r7, #464]	; 0x1d0
   __ASM volatile ("rbit %0, %1" : "=r" (result) : "r" (value) );
 80043ea:	f8d7 31d0 	ldr.w	r3, [r7, #464]	; 0x1d0
 80043ee:	fa93 f3a3 	rbit	r3, r3
 80043f2:	f8c7 31cc 	str.w	r3, [r7, #460]	; 0x1cc
  return result;
 80043f6:	f8d7 31cc 	ldr.w	r3, [r7, #460]	; 0x1cc
        while(__HAL_RCC_GET_FLAG(RCC_FLAG_HSERDY) == RESET)
 80043fa:	fab3 f383 	clz	r3, r3
 80043fe:	b2db      	uxtb	r3, r3
 8004400:	095b      	lsrs	r3, r3, #5
 8004402:	b2db      	uxtb	r3, r3
 8004404:	f043 0301 	orr.w	r3, r3, #1
 8004408:	b2db      	uxtb	r3, r3
 800440a:	2b01      	cmp	r3, #1
 800440c:	d102      	bne.n	8004414 <HAL_RCC_OscConfig+0x218>
 800440e:	4b47      	ldr	r3, [pc, #284]	; (800452c <HAL_RCC_OscConfig+0x330>)
 8004410:	681b      	ldr	r3, [r3, #0]
 8004412:	e015      	b.n	8004440 <HAL_RCC_OscConfig+0x244>
 8004414:	f44f 3300 	mov.w	r3, #131072	; 0x20000
 8004418:	f8c7 31c8 	str.w	r3, [r7, #456]	; 0x1c8
   __ASM volatile ("rbit %0, %1" : "=r" (result) : "r" (value) );
 800441c:	f8d7 31c8 	ldr.w	r3, [r7, #456]	; 0x1c8
 8004420:	fa93 f3a3 	rbit	r3, r3
 8004424:	f8c7 31c4 	str.w	r3, [r7, #452]	; 0x1c4
 8004428:	f44f 3300 	mov.w	r3, #131072	; 0x20000
 800442c:	f8c7 31c0 	str.w	r3, [r7, #448]	; 0x1c0
 8004430:	f8d7 31c0 	ldr.w	r3, [r7, #448]	; 0x1c0
 8004434:	fa93 f3a3 	rbit	r3, r3
 8004438:	f8c7 31bc 	str.w	r3, [r7, #444]	; 0x1bc
 800443c:	4b3b      	ldr	r3, [pc, #236]	; (800452c <HAL_RCC_OscConfig+0x330>)
 800443e:	6a5b      	ldr	r3, [r3, #36]	; 0x24
 8004440:	f44f 3200 	mov.w	r2, #131072	; 0x20000
 8004444:	f8c7 21b8 	str.w	r2, [r7, #440]	; 0x1b8
 8004448:	f8d7 21b8 	ldr.w	r2, [r7, #440]	; 0x1b8
 800444c:	fa92 f2a2 	rbit	r2, r2
 8004450:	f8c7 21b4 	str.w	r2, [r7, #436]	; 0x1b4
  return result;
 8004454:	f8d7 21b4 	ldr.w	r2, [r7, #436]	; 0x1b4
 8004458:	fab2 f282 	clz	r2, r2
 800445c:	b2d2      	uxtb	r2, r2
 800445e:	f042 0220 	orr.w	r2, r2, #32
 8004462:	b2d2      	uxtb	r2, r2
 8004464:	f002 021f 	and.w	r2, r2, #31
 8004468:	2101      	movs	r1, #1
 800446a:	fa01 f202 	lsl.w	r2, r1, r2
 800446e:	4013      	ands	r3, r2
 8004470:	2b00      	cmp	r3, #0
 8004472:	d0ab      	beq.n	80043cc <HAL_RCC_OscConfig+0x1d0>
 8004474:	e05d      	b.n	8004532 <HAL_RCC_OscConfig+0x336>
        }
      }
      else
      {
        /* Get Start Tick */
        tickstart = HAL_GetTick();
 8004476:	f7fe fcf5 	bl	8002e64 <HAL_GetTick>
 800447a:	f8c7 01f8 	str.w	r0, [r7, #504]	; 0x1f8
        
        /* Wait till HSE is disabled */
        while(__HAL_RCC_GET_FLAG(RCC_FLAG_HSERDY) != RESET)
 800447e:	e00a      	b.n	8004496 <HAL_RCC_OscConfig+0x29a>
        {
           if((HAL_GetTick() - tickstart ) > HSE_TIMEOUT_VALUE)
 8004480:	f7fe fcf0 	bl	8002e64 <HAL_GetTick>
 8004484:	4602      	mov	r2, r0
 8004486:	f8d7 31f8 	ldr.w	r3, [r7, #504]	; 0x1f8
 800448a:	1ad3      	subs	r3, r2, r3
 800448c:	2b64      	cmp	r3, #100	; 0x64
 800448e:	d902      	bls.n	8004496 <HAL_RCC_OscConfig+0x29a>
          {
            return HAL_TIMEOUT;
 8004490:	2303      	movs	r3, #3
 8004492:	f000 bee9 	b.w	8005268 <HAL_RCC_OscConfig+0x106c>
 8004496:	f44f 3300 	mov.w	r3, #131072	; 0x20000
 800449a:	f8c7 31b0 	str.w	r3, [r7, #432]	; 0x1b0
   __ASM volatile ("rbit %0, %1" : "=r" (result) : "r" (value) );
 800449e:	f8d7 31b0 	ldr.w	r3, [r7, #432]	; 0x1b0
 80044a2:	fa93 f3a3 	rbit	r3, r3
 80044a6:	f8c7 31ac 	str.w	r3, [r7, #428]	; 0x1ac
  return result;
 80044aa:	f8d7 31ac 	ldr.w	r3, [r7, #428]	; 0x1ac
        while(__HAL_RCC_GET_FLAG(RCC_FLAG_HSERDY) != RESET)
 80044ae:	fab3 f383 	clz	r3, r3
 80044b2:	b2db      	uxtb	r3, r3
 80044b4:	095b      	lsrs	r3, r3, #5
 80044b6:	b2db      	uxtb	r3, r3
 80044b8:	f043 0301 	orr.w	r3, r3, #1
 80044bc:	b2db      	uxtb	r3, r3
 80044be:	2b01      	cmp	r3, #1
 80044c0:	d102      	bne.n	80044c8 <HAL_RCC_OscConfig+0x2cc>
 80044c2:	4b1a      	ldr	r3, [pc, #104]	; (800452c <HAL_RCC_OscConfig+0x330>)
 80044c4:	681b      	ldr	r3, [r3, #0]
 80044c6:	e015      	b.n	80044f4 <HAL_RCC_OscConfig+0x2f8>
 80044c8:	f44f 3300 	mov.w	r3, #131072	; 0x20000
 80044cc:	f8c7 31a8 	str.w	r3, [r7, #424]	; 0x1a8
   __ASM volatile ("rbit %0, %1" : "=r" (result) : "r" (value) );
 80044d0:	f8d7 31a8 	ldr.w	r3, [r7, #424]	; 0x1a8
 80044d4:	fa93 f3a3 	rbit	r3, r3
 80044d8:	f8c7 31a4 	str.w	r3, [r7, #420]	; 0x1a4
 80044dc:	f44f 3300 	mov.w	r3, #131072	; 0x20000
 80044e0:	f8c7 31a0 	str.w	r3, [r7, #416]	; 0x1a0
 80044e4:	f8d7 31a0 	ldr.w	r3, [r7, #416]	; 0x1a0
 80044e8:	fa93 f3a3 	rbit	r3, r3
 80044ec:	f8c7 319c 	str.w	r3, [r7, #412]	; 0x19c
 80044f0:	4b0e      	ldr	r3, [pc, #56]	; (800452c <HAL_RCC_OscConfig+0x330>)
 80044f2:	6a5b      	ldr	r3, [r3, #36]	; 0x24
 80044f4:	f44f 3200 	mov.w	r2, #131072	; 0x20000
 80044f8:	f8c7 2198 	str.w	r2, [r7, #408]	; 0x198
 80044fc:	f8d7 2198 	ldr.w	r2, [r7, #408]	; 0x198
 8004500:	fa92 f2a2 	rbit	r2, r2
 8004504:	f8c7 2194 	str.w	r2, [r7, #404]	; 0x194
  return result;
 8004508:	f8d7 2194 	ldr.w	r2, [r7, #404]	; 0x194
 800450c:	fab2 f282 	clz	r2, r2
 8004510:	b2d2      	uxtb	r2, r2
 8004512:	f042 0220 	orr.w	r2, r2, #32
 8004516:	b2d2      	uxtb	r2, r2
 8004518:	f002 021f 	and.w	r2, r2, #31
 800451c:	2101      	movs	r1, #1
 800451e:	fa01 f202 	lsl.w	r2, r1, r2
 8004522:	4013      	ands	r3, r2
 8004524:	2b00      	cmp	r3, #0
 8004526:	d1ab      	bne.n	8004480 <HAL_RCC_OscConfig+0x284>
 8004528:	e003      	b.n	8004532 <HAL_RCC_OscConfig+0x336>
 800452a:	bf00      	nop
 800452c:	40021000 	.word	0x40021000
      if((__HAL_RCC_GET_FLAG(RCC_FLAG_HSERDY) != RESET) && (RCC_OscInitStruct->HSEState == RCC_HSE_OFF))
 8004530:	bf00      	nop
        }
      }
    }
  }
  /*----------------------------- HSI Configuration --------------------------*/ 
  if(((RCC_OscInitStruct->OscillatorType) & RCC_OSCILLATORTYPE_HSI) == RCC_OSCILLATORTYPE_HSI)
 8004532:	f507 7300 	add.w	r3, r7, #512	; 0x200
 8004536:	f5a3 73fe 	sub.w	r3, r3, #508	; 0x1fc
 800453a:	681b      	ldr	r3, [r3, #0]
 800453c:	681b      	ldr	r3, [r3, #0]
 800453e:	f003 0302 	and.w	r3, r3, #2
 8004542:	2b00      	cmp	r3, #0
 8004544:	f000 817d 	beq.w	8004842 <HAL_RCC_OscConfig+0x646>
    /* Check the parameters */
    assert_param(IS_RCC_HSI(RCC_OscInitStruct->HSIState));
    assert_param(IS_RCC_CALIBRATION_VALUE(RCC_OscInitStruct->HSICalibrationValue));
    
    /* Check if HSI is used as system clock or as PLL source when PLL is selected as system clock */ 
    if((__HAL_RCC_GET_SYSCLK_SOURCE() == RCC_SYSCLKSOURCE_STATUS_HSI) 
 8004548:	4ba6      	ldr	r3, [pc, #664]	; (80047e4 <HAL_RCC_OscConfig+0x5e8>)
 800454a:	685b      	ldr	r3, [r3, #4]
 800454c:	f003 030c 	and.w	r3, r3, #12
 8004550:	2b00      	cmp	r3, #0
 8004552:	d00b      	beq.n	800456c <HAL_RCC_OscConfig+0x370>
       || ((__HAL_RCC_GET_SYSCLK_SOURCE() == RCC_SYSCLKSOURCE_STATUS_PLLCLK) && (__HAL_RCC_GET_PLL_OSCSOURCE() == RCC_PLLSOURCE_HSI)))
 8004554:	4ba3      	ldr	r3, [pc, #652]	; (80047e4 <HAL_RCC_OscConfig+0x5e8>)
 8004556:	685b      	ldr	r3, [r3, #4]
 8004558:	f003 030c 	and.w	r3, r3, #12
 800455c:	2b08      	cmp	r3, #8
 800455e:	d172      	bne.n	8004646 <HAL_RCC_OscConfig+0x44a>
 8004560:	4ba0      	ldr	r3, [pc, #640]	; (80047e4 <HAL_RCC_OscConfig+0x5e8>)
 8004562:	685b      	ldr	r3, [r3, #4]
 8004564:	f403 3380 	and.w	r3, r3, #65536	; 0x10000
 8004568:	2b00      	cmp	r3, #0
 800456a:	d16c      	bne.n	8004646 <HAL_RCC_OscConfig+0x44a>
 800456c:	2302      	movs	r3, #2
 800456e:	f8c7 3190 	str.w	r3, [r7, #400]	; 0x190
   __ASM volatile ("rbit %0, %1" : "=r" (result) : "r" (value) );
 8004572:	f8d7 3190 	ldr.w	r3, [r7, #400]	; 0x190
 8004576:	fa93 f3a3 	rbit	r3, r3
 800457a:	f8c7 318c 	str.w	r3, [r7, #396]	; 0x18c
  return result;
 800457e:	f8d7 318c 	ldr.w	r3, [r7, #396]	; 0x18c
    {
      /* When HSI is used as system clock it will not disabled */
      if((__HAL_RCC_GET_FLAG(RCC_FLAG_HSIRDY) != RESET) && (RCC_OscInitStruct->HSIState != RCC_HSI_ON))
 8004582:	fab3 f383 	clz	r3, r3
 8004586:	b2db      	uxtb	r3, r3
 8004588:	095b      	lsrs	r3, r3, #5
 800458a:	b2db      	uxtb	r3, r3
 800458c:	f043 0301 	orr.w	r3, r3, #1
 8004590:	b2db      	uxtb	r3, r3
 8004592:	2b01      	cmp	r3, #1
 8004594:	d102      	bne.n	800459c <HAL_RCC_OscConfig+0x3a0>
 8004596:	4b93      	ldr	r3, [pc, #588]	; (80047e4 <HAL_RCC_OscConfig+0x5e8>)
 8004598:	681b      	ldr	r3, [r3, #0]
 800459a:	e013      	b.n	80045c4 <HAL_RCC_OscConfig+0x3c8>
 800459c:	2302      	movs	r3, #2
 800459e:	f8c7 3188 	str.w	r3, [r7, #392]	; 0x188
   __ASM volatile ("rbit %0, %1" : "=r" (result) : "r" (value) );
 80045a2:	f8d7 3188 	ldr.w	r3, [r7, #392]	; 0x188
 80045a6:	fa93 f3a3 	rbit	r3, r3
 80045aa:	f8c7 3184 	str.w	r3, [r7, #388]	; 0x184
 80045ae:	2302      	movs	r3, #2
 80045b0:	f8c7 3180 	str.w	r3, [r7, #384]	; 0x180
 80045b4:	f8d7 3180 	ldr.w	r3, [r7, #384]	; 0x180
 80045b8:	fa93 f3a3 	rbit	r3, r3
 80045bc:	f8c7 317c 	str.w	r3, [r7, #380]	; 0x17c
 80045c0:	4b88      	ldr	r3, [pc, #544]	; (80047e4 <HAL_RCC_OscConfig+0x5e8>)
 80045c2:	6a5b      	ldr	r3, [r3, #36]	; 0x24
 80045c4:	2202      	movs	r2, #2
 80045c6:	f8c7 2178 	str.w	r2, [r7, #376]	; 0x178
 80045ca:	f8d7 2178 	ldr.w	r2, [r7, #376]	; 0x178
 80045ce:	fa92 f2a2 	rbit	r2, r2
 80045d2:	f8c7 2174 	str.w	r2, [r7, #372]	; 0x174
  return result;
 80045d6:	f8d7 2174 	ldr.w	r2, [r7, #372]	; 0x174
 80045da:	fab2 f282 	clz	r2, r2
 80045de:	b2d2      	uxtb	r2, r2
 80045e0:	f042 0220 	orr.w	r2, r2, #32
 80045e4:	b2d2      	uxtb	r2, r2
 80045e6:	f002 021f 	and.w	r2, r2, #31
 80045ea:	2101      	movs	r1, #1
 80045ec:	fa01 f202 	lsl.w	r2, r1, r2
 80045f0:	4013      	ands	r3, r2
 80045f2:	2b00      	cmp	r3, #0
 80045f4:	d00a      	beq.n	800460c <HAL_RCC_OscConfig+0x410>
 80045f6:	f507 7300 	add.w	r3, r7, #512	; 0x200
 80045fa:	f5a3 73fe 	sub.w	r3, r3, #508	; 0x1fc
 80045fe:	681b      	ldr	r3, [r3, #0]
 8004600:	691b      	ldr	r3, [r3, #16]
 8004602:	2b01      	cmp	r3, #1
 8004604:	d002      	beq.n	800460c <HAL_RCC_OscConfig+0x410>
      {
        return HAL_ERROR;
 8004606:	2301      	movs	r3, #1
 8004608:	f000 be2e 	b.w	8005268 <HAL_RCC_OscConfig+0x106c>
      }
      /* Otherwise, just the calibration is allowed */
      else
      {
        /* Adjusts the Internal High Speed oscillator (HSI) calibration value.*/
        __HAL_RCC_HSI_CALIBRATIONVALUE_ADJUST(RCC_OscInitStruct->HSICalibrationValue);
 800460c:	4b75      	ldr	r3, [pc, #468]	; (80047e4 <HAL_RCC_OscConfig+0x5e8>)
 800460e:	681b      	ldr	r3, [r3, #0]
 8004610:	f023 02f8 	bic.w	r2, r3, #248	; 0xf8
 8004614:	f507 7300 	add.w	r3, r7, #512	; 0x200
 8004618:	f5a3 73fe 	sub.w	r3, r3, #508	; 0x1fc
 800461c:	681b      	ldr	r3, [r3, #0]
 800461e:	695b      	ldr	r3, [r3, #20]
 8004620:	21f8      	movs	r1, #248	; 0xf8
 8004622:	f8c7 1170 	str.w	r1, [r7, #368]	; 0x170
   __ASM volatile ("rbit %0, %1" : "=r" (result) : "r" (value) );
 8004626:	f8d7 1170 	ldr.w	r1, [r7, #368]	; 0x170
 800462a:	fa91 f1a1 	rbit	r1, r1
 800462e:	f8c7 116c 	str.w	r1, [r7, #364]	; 0x16c
  return result;
 8004632:	f8d7 116c 	ldr.w	r1, [r7, #364]	; 0x16c
 8004636:	fab1 f181 	clz	r1, r1
 800463a:	b2c9      	uxtb	r1, r1
 800463c:	408b      	lsls	r3, r1
 800463e:	4969      	ldr	r1, [pc, #420]	; (80047e4 <HAL_RCC_OscConfig+0x5e8>)
 8004640:	4313      	orrs	r3, r2
 8004642:	600b      	str	r3, [r1, #0]
      if((__HAL_RCC_GET_FLAG(RCC_FLAG_HSIRDY) != RESET) && (RCC_OscInitStruct->HSIState != RCC_HSI_ON))
 8004644:	e0fd      	b.n	8004842 <HAL_RCC_OscConfig+0x646>
      }
    }
    else
    {
      /* Check the HSI State */
      if(RCC_OscInitStruct->HSIState != RCC_HSI_OFF)
 8004646:	f507 7300 	add.w	r3, r7, #512	; 0x200
 800464a:	f5a3 73fe 	sub.w	r3, r3, #508	; 0x1fc
 800464e:	681b      	ldr	r3, [r3, #0]
 8004650:	691b      	ldr	r3, [r3, #16]
 8004652:	2b00      	cmp	r3, #0
 8004654:	f000 8088 	beq.w	8004768 <HAL_RCC_OscConfig+0x56c>
 8004658:	2301      	movs	r3, #1
 800465a:	f8c7 3168 	str.w	r3, [r7, #360]	; 0x168
   __ASM volatile ("rbit %0, %1" : "=r" (result) : "r" (value) );
 800465e:	f8d7 3168 	ldr.w	r3, [r7, #360]	; 0x168
 8004662:	fa93 f3a3 	rbit	r3, r3
 8004666:	f8c7 3164 	str.w	r3, [r7, #356]	; 0x164
  return result;
 800466a:	f8d7 3164 	ldr.w	r3, [r7, #356]	; 0x164
      {
       /* Enable the Internal High Speed oscillator (HSI). */
        __HAL_RCC_HSI_ENABLE();
 800466e:	fab3 f383 	clz	r3, r3
 8004672:	b2db      	uxtb	r3, r3
 8004674:	f103 5384 	add.w	r3, r3, #276824064	; 0x10800000
 8004678:	f503 1384 	add.w	r3, r3, #1081344	; 0x108000
 800467c:	009b      	lsls	r3, r3, #2
 800467e:	461a      	mov	r2, r3
 8004680:	2301      	movs	r3, #1
 8004682:	6013      	str	r3, [r2, #0]
        
        /* Get Start Tick */
        tickstart = HAL_GetTick();
 8004684:	f7fe fbee 	bl	8002e64 <HAL_GetTick>
 8004688:	f8c7 01f8 	str.w	r0, [r7, #504]	; 0x1f8
        
        /* Wait till HSI is ready */
        while(__HAL_RCC_GET_FLAG(RCC_FLAG_HSIRDY) == RESET)
 800468c:	e00a      	b.n	80046a4 <HAL_RCC_OscConfig+0x4a8>
        {
          if((HAL_GetTick() - tickstart ) > HSI_TIMEOUT_VALUE)
 800468e:	f7fe fbe9 	bl	8002e64 <HAL_GetTick>
 8004692:	4602      	mov	r2, r0
 8004694:	f8d7 31f8 	ldr.w	r3, [r7, #504]	; 0x1f8
 8004698:	1ad3      	subs	r3, r2, r3
 800469a:	2b02      	cmp	r3, #2
 800469c:	d902      	bls.n	80046a4 <HAL_RCC_OscConfig+0x4a8>
          {
            return HAL_TIMEOUT;
 800469e:	2303      	movs	r3, #3
 80046a0:	f000 bde2 	b.w	8005268 <HAL_RCC_OscConfig+0x106c>
 80046a4:	2302      	movs	r3, #2
 80046a6:	f8c7 3160 	str.w	r3, [r7, #352]	; 0x160
   __ASM volatile ("rbit %0, %1" : "=r" (result) : "r" (value) );
 80046aa:	f8d7 3160 	ldr.w	r3, [r7, #352]	; 0x160
 80046ae:	fa93 f3a3 	rbit	r3, r3
 80046b2:	f8c7 315c 	str.w	r3, [r7, #348]	; 0x15c
  return result;
 80046b6:	f8d7 315c 	ldr.w	r3, [r7, #348]	; 0x15c
        while(__HAL_RCC_GET_FLAG(RCC_FLAG_HSIRDY) == RESET)
 80046ba:	fab3 f383 	clz	r3, r3
 80046be:	b2db      	uxtb	r3, r3
 80046c0:	095b      	lsrs	r3, r3, #5
 80046c2:	b2db      	uxtb	r3, r3
 80046c4:	f043 0301 	orr.w	r3, r3, #1
 80046c8:	b2db      	uxtb	r3, r3
 80046ca:	2b01      	cmp	r3, #1
 80046cc:	d102      	bne.n	80046d4 <HAL_RCC_OscConfig+0x4d8>
 80046ce:	4b45      	ldr	r3, [pc, #276]	; (80047e4 <HAL_RCC_OscConfig+0x5e8>)
 80046d0:	681b      	ldr	r3, [r3, #0]
 80046d2:	e013      	b.n	80046fc <HAL_RCC_OscConfig+0x500>
 80046d4:	2302      	movs	r3, #2
 80046d6:	f8c7 3158 	str.w	r3, [r7, #344]	; 0x158
   __ASM volatile ("rbit %0, %1" : "=r" (result) : "r" (value) );
 80046da:	f8d7 3158 	ldr.w	r3, [r7, #344]	; 0x158
 80046de:	fa93 f3a3 	rbit	r3, r3
 80046e2:	f8c7 3154 	str.w	r3, [r7, #340]	; 0x154
 80046e6:	2302      	movs	r3, #2
 80046e8:	f8c7 3150 	str.w	r3, [r7, #336]	; 0x150
 80046ec:	f8d7 3150 	ldr.w	r3, [r7, #336]	; 0x150
 80046f0:	fa93 f3a3 	rbit	r3, r3
 80046f4:	f8c7 314c 	str.w	r3, [r7, #332]	; 0x14c
 80046f8:	4b3a      	ldr	r3, [pc, #232]	; (80047e4 <HAL_RCC_OscConfig+0x5e8>)
 80046fa:	6a5b      	ldr	r3, [r3, #36]	; 0x24
 80046fc:	2202      	movs	r2, #2
 80046fe:	f8c7 2148 	str.w	r2, [r7, #328]	; 0x148
 8004702:	f8d7 2148 	ldr.w	r2, [r7, #328]	; 0x148
 8004706:	fa92 f2a2 	rbit	r2, r2
 800470a:	f8c7 2144 	str.w	r2, [r7, #324]	; 0x144
  return result;
 800470e:	f8d7 2144 	ldr.w	r2, [r7, #324]	; 0x144
 8004712:	fab2 f282 	clz	r2, r2
 8004716:	b2d2      	uxtb	r2, r2
 8004718:	f042 0220 	orr.w	r2, r2, #32
 800471c:	b2d2      	uxtb	r2, r2
 800471e:	f002 021f 	and.w	r2, r2, #31
 8004722:	2101      	movs	r1, #1
 8004724:	fa01 f202 	lsl.w	r2, r1, r2
 8004728:	4013      	ands	r3, r2
 800472a:	2b00      	cmp	r3, #0
 800472c:	d0af      	beq.n	800468e <HAL_RCC_OscConfig+0x492>
          }
        }
                
        /* Adjusts the Internal High Speed oscillator (HSI) calibration value.*/
        __HAL_RCC_HSI_CALIBRATIONVALUE_ADJUST(RCC_OscInitStruct->HSICalibrationValue);
 800472e:	4b2d      	ldr	r3, [pc, #180]	; (80047e4 <HAL_RCC_OscConfig+0x5e8>)
 8004730:	681b      	ldr	r3, [r3, #0]
 8004732:	f023 02f8 	bic.w	r2, r3, #248	; 0xf8
 8004736:	f507 7300 	add.w	r3, r7, #512	; 0x200
 800473a:	f5a3 73fe 	sub.w	r3, r3, #508	; 0x1fc
 800473e:	681b      	ldr	r3, [r3, #0]
 8004740:	695b      	ldr	r3, [r3, #20]
 8004742:	21f8      	movs	r1, #248	; 0xf8
 8004744:	f8c7 1140 	str.w	r1, [r7, #320]	; 0x140
   __ASM volatile ("rbit %0, %1" : "=r" (result) : "r" (value) );
 8004748:	f8d7 1140 	ldr.w	r1, [r7, #320]	; 0x140
 800474c:	fa91 f1a1 	rbit	r1, r1
 8004750:	f8c7 113c 	str.w	r1, [r7, #316]	; 0x13c
  return result;
 8004754:	f8d7 113c 	ldr.w	r1, [r7, #316]	; 0x13c
 8004758:	fab1 f181 	clz	r1, r1
 800475c:	b2c9      	uxtb	r1, r1
 800475e:	408b      	lsls	r3, r1
 8004760:	4920      	ldr	r1, [pc, #128]	; (80047e4 <HAL_RCC_OscConfig+0x5e8>)
 8004762:	4313      	orrs	r3, r2
 8004764:	600b      	str	r3, [r1, #0]
 8004766:	e06c      	b.n	8004842 <HAL_RCC_OscConfig+0x646>
 8004768:	2301      	movs	r3, #1
 800476a:	f8c7 3138 	str.w	r3, [r7, #312]	; 0x138
   __ASM volatile ("rbit %0, %1" : "=r" (result) : "r" (value) );
 800476e:	f8d7 3138 	ldr.w	r3, [r7, #312]	; 0x138
 8004772:	fa93 f3a3 	rbit	r3, r3
 8004776:	f8c7 3134 	str.w	r3, [r7, #308]	; 0x134
  return result;
 800477a:	f8d7 3134 	ldr.w	r3, [r7, #308]	; 0x134
      }
      else
      {
        /* Disable the Internal High Speed oscillator (HSI). */
        __HAL_RCC_HSI_DISABLE();
 800477e:	fab3 f383 	clz	r3, r3
 8004782:	b2db      	uxtb	r3, r3
 8004784:	f103 5384 	add.w	r3, r3, #276824064	; 0x10800000
 8004788:	f503 1384 	add.w	r3, r3, #1081344	; 0x108000
 800478c:	009b      	lsls	r3, r3, #2
 800478e:	461a      	mov	r2, r3
 8004790:	2300      	movs	r3, #0
 8004792:	6013      	str	r3, [r2, #0]
        
        /* Get Start Tick */
        tickstart = HAL_GetTick();
 8004794:	f7fe fb66 	bl	8002e64 <HAL_GetTick>
 8004798:	f8c7 01f8 	str.w	r0, [r7, #504]	; 0x1f8
        
        /* Wait till HSI is disabled */
        while(__HAL_RCC_GET_FLAG(RCC_FLAG_HSIRDY) != RESET)
 800479c:	e00a      	b.n	80047b4 <HAL_RCC_OscConfig+0x5b8>
        {
          if((HAL_GetTick() - tickstart ) > HSI_TIMEOUT_VALUE)
 800479e:	f7fe fb61 	bl	8002e64 <HAL_GetTick>
 80047a2:	4602      	mov	r2, r0
 80047a4:	f8d7 31f8 	ldr.w	r3, [r7, #504]	; 0x1f8
 80047a8:	1ad3      	subs	r3, r2, r3
 80047aa:	2b02      	cmp	r3, #2
 80047ac:	d902      	bls.n	80047b4 <HAL_RCC_OscConfig+0x5b8>
          {
            return HAL_TIMEOUT;
 80047ae:	2303      	movs	r3, #3
 80047b0:	f000 bd5a 	b.w	8005268 <HAL_RCC_OscConfig+0x106c>
 80047b4:	2302      	movs	r3, #2
 80047b6:	f8c7 3130 	str.w	r3, [r7, #304]	; 0x130
   __ASM volatile ("rbit %0, %1" : "=r" (result) : "r" (value) );
 80047ba:	f8d7 3130 	ldr.w	r3, [r7, #304]	; 0x130
 80047be:	fa93 f3a3 	rbit	r3, r3
 80047c2:	f8c7 312c 	str.w	r3, [r7, #300]	; 0x12c
  return result;
 80047c6:	f8d7 312c 	ldr.w	r3, [r7, #300]	; 0x12c
        while(__HAL_RCC_GET_FLAG(RCC_FLAG_HSIRDY) != RESET)
 80047ca:	fab3 f383 	clz	r3, r3
 80047ce:	b2db      	uxtb	r3, r3
 80047d0:	095b      	lsrs	r3, r3, #5
 80047d2:	b2db      	uxtb	r3, r3
 80047d4:	f043 0301 	orr.w	r3, r3, #1
 80047d8:	b2db      	uxtb	r3, r3
 80047da:	2b01      	cmp	r3, #1
 80047dc:	d104      	bne.n	80047e8 <HAL_RCC_OscConfig+0x5ec>
 80047de:	4b01      	ldr	r3, [pc, #4]	; (80047e4 <HAL_RCC_OscConfig+0x5e8>)
 80047e0:	681b      	ldr	r3, [r3, #0]
 80047e2:	e015      	b.n	8004810 <HAL_RCC_OscConfig+0x614>
 80047e4:	40021000 	.word	0x40021000
 80047e8:	2302      	movs	r3, #2
 80047ea:	f8c7 3128 	str.w	r3, [r7, #296]	; 0x128
   __ASM volatile ("rbit %0, %1" : "=r" (result) : "r" (value) );
 80047ee:	f8d7 3128 	ldr.w	r3, [r7, #296]	; 0x128
 80047f2:	fa93 f3a3 	rbit	r3, r3
 80047f6:	f8c7 3124 	str.w	r3, [r7, #292]	; 0x124
 80047fa:	2302      	movs	r3, #2
 80047fc:	f8c7 3120 	str.w	r3, [r7, #288]	; 0x120
 8004800:	f8d7 3120 	ldr.w	r3, [r7, #288]	; 0x120
 8004804:	fa93 f3a3 	rbit	r3, r3
 8004808:	f8c7 311c 	str.w	r3, [r7, #284]	; 0x11c
 800480c:	4bc8      	ldr	r3, [pc, #800]	; (8004b30 <HAL_RCC_OscConfig+0x934>)
 800480e:	6a5b      	ldr	r3, [r3, #36]	; 0x24
 8004810:	2202      	movs	r2, #2
 8004812:	f8c7 2118 	str.w	r2, [r7, #280]	; 0x118
 8004816:	f8d7 2118 	ldr.w	r2, [r7, #280]	; 0x118
 800481a:	fa92 f2a2 	rbit	r2, r2
 800481e:	f8c7 2114 	str.w	r2, [r7, #276]	; 0x114
  return result;
 8004822:	f8d7 2114 	ldr.w	r2, [r7, #276]	; 0x114
 8004826:	fab2 f282 	clz	r2, r2
 800482a:	b2d2      	uxtb	r2, r2
 800482c:	f042 0220 	orr.w	r2, r2, #32
 8004830:	b2d2      	uxtb	r2, r2
 8004832:	f002 021f 	and.w	r2, r2, #31
 8004836:	2101      	movs	r1, #1
 8004838:	fa01 f202 	lsl.w	r2, r1, r2
 800483c:	4013      	ands	r3, r2
 800483e:	2b00      	cmp	r3, #0
 8004840:	d1ad      	bne.n	800479e <HAL_RCC_OscConfig+0x5a2>
        }
      }
    }
  }
  /*------------------------------ LSI Configuration -------------------------*/ 
  if(((RCC_OscInitStruct->OscillatorType) & RCC_OSCILLATORTYPE_LSI) == RCC_OSCILLATORTYPE_LSI)
 8004842:	f507 7300 	add.w	r3, r7, #512	; 0x200
 8004846:	f5a3 73fe 	sub.w	r3, r3, #508	; 0x1fc
 800484a:	681b      	ldr	r3, [r3, #0]
 800484c:	681b      	ldr	r3, [r3, #0]
 800484e:	f003 0308 	and.w	r3, r3, #8
 8004852:	2b00      	cmp	r3, #0
 8004854:	f000 8110 	beq.w	8004a78 <HAL_RCC_OscConfig+0x87c>
  {
    /* Check the parameters */
    assert_param(IS_RCC_LSI(RCC_OscInitStruct->LSIState));
    
    /* Check the LSI State */
    if(RCC_OscInitStruct->LSIState != RCC_LSI_OFF)
 8004858:	f507 7300 	add.w	r3, r7, #512	; 0x200
 800485c:	f5a3 73fe 	sub.w	r3, r3, #508	; 0x1fc
 8004860:	681b      	ldr	r3, [r3, #0]
 8004862:	699b      	ldr	r3, [r3, #24]
 8004864:	2b00      	cmp	r3, #0
 8004866:	d079      	beq.n	800495c <HAL_RCC_OscConfig+0x760>
 8004868:	2301      	movs	r3, #1
 800486a:	f8c7 3110 	str.w	r3, [r7, #272]	; 0x110
   __ASM volatile ("rbit %0, %1" : "=r" (result) : "r" (value) );
 800486e:	f8d7 3110 	ldr.w	r3, [r7, #272]	; 0x110
 8004872:	fa93 f3a3 	rbit	r3, r3
 8004876:	f8c7 310c 	str.w	r3, [r7, #268]	; 0x10c
  return result;
 800487a:	f8d7 310c 	ldr.w	r3, [r7, #268]	; 0x10c
    {
      /* Enable the Internal Low Speed oscillator (LSI). */
      __HAL_RCC_LSI_ENABLE();
 800487e:	fab3 f383 	clz	r3, r3
 8004882:	b2db      	uxtb	r3, r3
 8004884:	461a      	mov	r2, r3
 8004886:	4bab      	ldr	r3, [pc, #684]	; (8004b34 <HAL_RCC_OscConfig+0x938>)
 8004888:	4413      	add	r3, r2
 800488a:	009b      	lsls	r3, r3, #2
 800488c:	461a      	mov	r2, r3
 800488e:	2301      	movs	r3, #1
 8004890:	6013      	str	r3, [r2, #0]
      
      /* Get Start Tick */
      tickstart = HAL_GetTick();
 8004892:	f7fe fae7 	bl	8002e64 <HAL_GetTick>
 8004896:	f8c7 01f8 	str.w	r0, [r7, #504]	; 0x1f8
      
      /* Wait till LSI is ready */  
      while(__HAL_RCC_GET_FLAG(RCC_FLAG_LSIRDY) == RESET)
 800489a:	e00a      	b.n	80048b2 <HAL_RCC_OscConfig+0x6b6>
      {
        if((HAL_GetTick() - tickstart ) > LSI_TIMEOUT_VALUE)
 800489c:	f7fe fae2 	bl	8002e64 <HAL_GetTick>
 80048a0:	4602      	mov	r2, r0
 80048a2:	f8d7 31f8 	ldr.w	r3, [r7, #504]	; 0x1f8
 80048a6:	1ad3      	subs	r3, r2, r3
 80048a8:	2b02      	cmp	r3, #2
 80048aa:	d902      	bls.n	80048b2 <HAL_RCC_OscConfig+0x6b6>
        {
          return HAL_TIMEOUT;
 80048ac:	2303      	movs	r3, #3
 80048ae:	f000 bcdb 	b.w	8005268 <HAL_RCC_OscConfig+0x106c>
 80048b2:	2302      	movs	r3, #2
 80048b4:	f8c7 3108 	str.w	r3, [r7, #264]	; 0x108
   __ASM volatile ("rbit %0, %1" : "=r" (result) : "r" (value) );
 80048b8:	f8d7 3108 	ldr.w	r3, [r7, #264]	; 0x108
 80048bc:	fa93 f3a3 	rbit	r3, r3
 80048c0:	f8c7 3104 	str.w	r3, [r7, #260]	; 0x104
 80048c4:	f507 7300 	add.w	r3, r7, #512	; 0x200
 80048c8:	f5a3 7380 	sub.w	r3, r3, #256	; 0x100
 80048cc:	2202      	movs	r2, #2
 80048ce:	601a      	str	r2, [r3, #0]
 80048d0:	f507 7300 	add.w	r3, r7, #512	; 0x200
 80048d4:	f5a3 7380 	sub.w	r3, r3, #256	; 0x100
 80048d8:	681b      	ldr	r3, [r3, #0]
 80048da:	fa93 f2a3 	rbit	r2, r3
 80048de:	f507 7300 	add.w	r3, r7, #512	; 0x200
 80048e2:	f5a3 7382 	sub.w	r3, r3, #260	; 0x104
 80048e6:	601a      	str	r2, [r3, #0]
 80048e8:	f507 7300 	add.w	r3, r7, #512	; 0x200
 80048ec:	f5a3 7384 	sub.w	r3, r3, #264	; 0x108
 80048f0:	2202      	movs	r2, #2
 80048f2:	601a      	str	r2, [r3, #0]
 80048f4:	f507 7300 	add.w	r3, r7, #512	; 0x200
 80048f8:	f5a3 7384 	sub.w	r3, r3, #264	; 0x108
 80048fc:	681b      	ldr	r3, [r3, #0]
 80048fe:	fa93 f2a3 	rbit	r2, r3
 8004902:	f507 7300 	add.w	r3, r7, #512	; 0x200
 8004906:	f5a3 7386 	sub.w	r3, r3, #268	; 0x10c
 800490a:	601a      	str	r2, [r3, #0]
      while(__HAL_RCC_GET_FLAG(RCC_FLAG_LSIRDY) == RESET)
 800490c:	4b88      	ldr	r3, [pc, #544]	; (8004b30 <HAL_RCC_OscConfig+0x934>)
 800490e:	6a5a      	ldr	r2, [r3, #36]	; 0x24
 8004910:	f507 7300 	add.w	r3, r7, #512	; 0x200
 8004914:	f5a3 7388 	sub.w	r3, r3, #272	; 0x110
 8004918:	2102      	movs	r1, #2
 800491a:	6019      	str	r1, [r3, #0]
 800491c:	f507 7300 	add.w	r3, r7, #512	; 0x200
 8004920:	f5a3 7388 	sub.w	r3, r3, #272	; 0x110
 8004924:	681b      	ldr	r3, [r3, #0]
 8004926:	fa93 f1a3 	rbit	r1, r3
 800492a:	f507 7300 	add.w	r3, r7, #512	; 0x200
 800492e:	f5a3 738a 	sub.w	r3, r3, #276	; 0x114
 8004932:	6019      	str	r1, [r3, #0]
  return result;
 8004934:	f507 7300 	add.w	r3, r7, #512	; 0x200
 8004938:	f5a3 738a 	sub.w	r3, r3, #276	; 0x114
 800493c:	681b      	ldr	r3, [r3, #0]
 800493e:	fab3 f383 	clz	r3, r3
 8004942:	b2db      	uxtb	r3, r3
 8004944:	f043 0360 	orr.w	r3, r3, #96	; 0x60
 8004948:	b2db      	uxtb	r3, r3
 800494a:	f003 031f 	and.w	r3, r3, #31
 800494e:	2101      	movs	r1, #1
 8004950:	fa01 f303 	lsl.w	r3, r1, r3
 8004954:	4013      	ands	r3, r2
 8004956:	2b00      	cmp	r3, #0
 8004958:	d0a0      	beq.n	800489c <HAL_RCC_OscConfig+0x6a0>
 800495a:	e08d      	b.n	8004a78 <HAL_RCC_OscConfig+0x87c>
 800495c:	f507 7300 	add.w	r3, r7, #512	; 0x200
 8004960:	f5a3 738c 	sub.w	r3, r3, #280	; 0x118
 8004964:	2201      	movs	r2, #1
 8004966:	601a      	str	r2, [r3, #0]
   __ASM volatile ("rbit %0, %1" : "=r" (result) : "r" (value) );
 8004968:	f507 7300 	add.w	r3, r7, #512	; 0x200
 800496c:	f5a3 738c 	sub.w	r3, r3, #280	; 0x118
 8004970:	681b      	ldr	r3, [r3, #0]
 8004972:	fa93 f2a3 	rbit	r2, r3
 8004976:	f507 7300 	add.w	r3, r7, #512	; 0x200
 800497a:	f5a3 738e 	sub.w	r3, r3, #284	; 0x11c
 800497e:	601a      	str	r2, [r3, #0]
  return result;
 8004980:	f507 7300 	add.w	r3, r7, #512	; 0x200
 8004984:	f5a3 738e 	sub.w	r3, r3, #284	; 0x11c
 8004988:	681b      	ldr	r3, [r3, #0]
      }
    }
    else
    {
      /* Disable the Internal Low Speed oscillator (LSI). */
      __HAL_RCC_LSI_DISABLE();
 800498a:	fab3 f383 	clz	r3, r3
 800498e:	b2db      	uxtb	r3, r3
 8004990:	461a      	mov	r2, r3
 8004992:	4b68      	ldr	r3, [pc, #416]	; (8004b34 <HAL_RCC_OscConfig+0x938>)
 8004994:	4413      	add	r3, r2
 8004996:	009b      	lsls	r3, r3, #2
 8004998:	461a      	mov	r2, r3
 800499a:	2300      	movs	r3, #0
 800499c:	6013      	str	r3, [r2, #0]
      
      /* Get Start Tick */
      tickstart = HAL_GetTick();
 800499e:	f7fe fa61 	bl	8002e64 <HAL_GetTick>
 80049a2:	f8c7 01f8 	str.w	r0, [r7, #504]	; 0x1f8
      
      /* Wait till LSI is disabled */  
      while(__HAL_RCC_GET_FLAG(RCC_FLAG_LSIRDY) != RESET)
 80049a6:	e00a      	b.n	80049be <HAL_RCC_OscConfig+0x7c2>
      {
        if((HAL_GetTick() - tickstart ) > LSI_TIMEOUT_VALUE)
 80049a8:	f7fe fa5c 	bl	8002e64 <HAL_GetTick>
 80049ac:	4602      	mov	r2, r0
 80049ae:	f8d7 31f8 	ldr.w	r3, [r7, #504]	; 0x1f8
 80049b2:	1ad3      	subs	r3, r2, r3
 80049b4:	2b02      	cmp	r3, #2
 80049b6:	d902      	bls.n	80049be <HAL_RCC_OscConfig+0x7c2>
        {
          return HAL_TIMEOUT;
 80049b8:	2303      	movs	r3, #3
 80049ba:	f000 bc55 	b.w	8005268 <HAL_RCC_OscConfig+0x106c>
 80049be:	f507 7300 	add.w	r3, r7, #512	; 0x200
 80049c2:	f5a3 7390 	sub.w	r3, r3, #288	; 0x120
 80049c6:	2202      	movs	r2, #2
 80049c8:	601a      	str	r2, [r3, #0]
   __ASM volatile ("rbit %0, %1" : "=r" (result) : "r" (value) );
 80049ca:	f507 7300 	add.w	r3, r7, #512	; 0x200
 80049ce:	f5a3 7390 	sub.w	r3, r3, #288	; 0x120
 80049d2:	681b      	ldr	r3, [r3, #0]
 80049d4:	fa93 f2a3 	rbit	r2, r3
 80049d8:	f507 7300 	add.w	r3, r7, #512	; 0x200
 80049dc:	f5a3 7392 	sub.w	r3, r3, #292	; 0x124
 80049e0:	601a      	str	r2, [r3, #0]
 80049e2:	f507 7300 	add.w	r3, r7, #512	; 0x200
 80049e6:	f5a3 7394 	sub.w	r3, r3, #296	; 0x128
 80049ea:	2202      	movs	r2, #2
 80049ec:	601a      	str	r2, [r3, #0]
 80049ee:	f507 7300 	add.w	r3, r7, #512	; 0x200
 80049f2:	f5a3 7394 	sub.w	r3, r3, #296	; 0x128
 80049f6:	681b      	ldr	r3, [r3, #0]
 80049f8:	fa93 f2a3 	rbit	r2, r3
 80049fc:	f507 7300 	add.w	r3, r7, #512	; 0x200
 8004a00:	f5a3 7396 	sub.w	r3, r3, #300	; 0x12c
 8004a04:	601a      	str	r2, [r3, #0]
 8004a06:	f507 7300 	add.w	r3, r7, #512	; 0x200
 8004a0a:	f5a3 7398 	sub.w	r3, r3, #304	; 0x130
 8004a0e:	2202      	movs	r2, #2
 8004a10:	601a      	str	r2, [r3, #0]
 8004a12:	f507 7300 	add.w	r3, r7, #512	; 0x200
 8004a16:	f5a3 7398 	sub.w	r3, r3, #304	; 0x130
 8004a1a:	681b      	ldr	r3, [r3, #0]
 8004a1c:	fa93 f2a3 	rbit	r2, r3
 8004a20:	f507 7300 	add.w	r3, r7, #512	; 0x200
 8004a24:	f5a3 739a 	sub.w	r3, r3, #308	; 0x134
 8004a28:	601a      	str	r2, [r3, #0]
      while(__HAL_RCC_GET_FLAG(RCC_FLAG_LSIRDY) != RESET)
 8004a2a:	4b41      	ldr	r3, [pc, #260]	; (8004b30 <HAL_RCC_OscConfig+0x934>)
 8004a2c:	6a5a      	ldr	r2, [r3, #36]	; 0x24
 8004a2e:	f507 7300 	add.w	r3, r7, #512	; 0x200
 8004a32:	f5a3 739c 	sub.w	r3, r3, #312	; 0x138
 8004a36:	2102      	movs	r1, #2
 8004a38:	6019      	str	r1, [r3, #0]
 8004a3a:	f507 7300 	add.w	r3, r7, #512	; 0x200
 8004a3e:	f5a3 739c 	sub.w	r3, r3, #312	; 0x138
 8004a42:	681b      	ldr	r3, [r3, #0]
 8004a44:	fa93 f1a3 	rbit	r1, r3
 8004a48:	f507 7300 	add.w	r3, r7, #512	; 0x200
 8004a4c:	f5a3 739e 	sub.w	r3, r3, #316	; 0x13c
 8004a50:	6019      	str	r1, [r3, #0]
  return result;
 8004a52:	f507 7300 	add.w	r3, r7, #512	; 0x200
 8004a56:	f5a3 739e 	sub.w	r3, r3, #316	; 0x13c
 8004a5a:	681b      	ldr	r3, [r3, #0]
 8004a5c:	fab3 f383 	clz	r3, r3
 8004a60:	b2db      	uxtb	r3, r3
 8004a62:	f043 0360 	orr.w	r3, r3, #96	; 0x60
 8004a66:	b2db      	uxtb	r3, r3
 8004a68:	f003 031f 	and.w	r3, r3, #31
 8004a6c:	2101      	movs	r1, #1
 8004a6e:	fa01 f303 	lsl.w	r3, r1, r3
 8004a72:	4013      	ands	r3, r2
 8004a74:	2b00      	cmp	r3, #0
 8004a76:	d197      	bne.n	80049a8 <HAL_RCC_OscConfig+0x7ac>
        }
      }
    }
  }
  /*------------------------------ LSE Configuration -------------------------*/ 
  if(((RCC_OscInitStruct->OscillatorType) & RCC_OSCILLATORTYPE_LSE) == RCC_OSCILLATORTYPE_LSE)
 8004a78:	f507 7300 	add.w	r3, r7, #512	; 0x200
 8004a7c:	f5a3 73fe 	sub.w	r3, r3, #508	; 0x1fc
 8004a80:	681b      	ldr	r3, [r3, #0]
 8004a82:	681b      	ldr	r3, [r3, #0]
 8004a84:	f003 0304 	and.w	r3, r3, #4
 8004a88:	2b00      	cmp	r3, #0
 8004a8a:	f000 81a1 	beq.w	8004dd0 <HAL_RCC_OscConfig+0xbd4>
  {
    FlagStatus       pwrclkchanged = RESET;
 8004a8e:	2300      	movs	r3, #0
 8004a90:	f887 31ff 	strb.w	r3, [r7, #511]	; 0x1ff
    /* Check the parameters */
    assert_param(IS_RCC_LSE(RCC_OscInitStruct->LSEState));

    /* Update LSE configuration in Backup Domain control register    */
    /* Requires to enable write access to Backup Domain of necessary */
    if(__HAL_RCC_PWR_IS_CLK_DISABLED())
 8004a94:	4b26      	ldr	r3, [pc, #152]	; (8004b30 <HAL_RCC_OscConfig+0x934>)
 8004a96:	69db      	ldr	r3, [r3, #28]
 8004a98:	f003 5380 	and.w	r3, r3, #268435456	; 0x10000000
 8004a9c:	2b00      	cmp	r3, #0
 8004a9e:	d116      	bne.n	8004ace <HAL_RCC_OscConfig+0x8d2>
    {
      __HAL_RCC_PWR_CLK_ENABLE();
 8004aa0:	4b23      	ldr	r3, [pc, #140]	; (8004b30 <HAL_RCC_OscConfig+0x934>)
 8004aa2:	69db      	ldr	r3, [r3, #28]
 8004aa4:	4a22      	ldr	r2, [pc, #136]	; (8004b30 <HAL_RCC_OscConfig+0x934>)
 8004aa6:	f043 5380 	orr.w	r3, r3, #268435456	; 0x10000000
 8004aaa:	61d3      	str	r3, [r2, #28]
 8004aac:	4b20      	ldr	r3, [pc, #128]	; (8004b30 <HAL_RCC_OscConfig+0x934>)
 8004aae:	69db      	ldr	r3, [r3, #28]
 8004ab0:	f003 5280 	and.w	r2, r3, #268435456	; 0x10000000
 8004ab4:	f507 7300 	add.w	r3, r7, #512	; 0x200
 8004ab8:	f5a3 73fc 	sub.w	r3, r3, #504	; 0x1f8
 8004abc:	601a      	str	r2, [r3, #0]
 8004abe:	f507 7300 	add.w	r3, r7, #512	; 0x200
 8004ac2:	f5a3 73fc 	sub.w	r3, r3, #504	; 0x1f8
 8004ac6:	681b      	ldr	r3, [r3, #0]
      pwrclkchanged = SET;
 8004ac8:	2301      	movs	r3, #1
 8004aca:	f887 31ff 	strb.w	r3, [r7, #511]	; 0x1ff
    }
    
    if(HAL_IS_BIT_CLR(PWR->CR, PWR_CR_DBP))
 8004ace:	4b1a      	ldr	r3, [pc, #104]	; (8004b38 <HAL_RCC_OscConfig+0x93c>)
 8004ad0:	681b      	ldr	r3, [r3, #0]
 8004ad2:	f403 7380 	and.w	r3, r3, #256	; 0x100
 8004ad6:	2b00      	cmp	r3, #0
 8004ad8:	d11a      	bne.n	8004b10 <HAL_RCC_OscConfig+0x914>
    {
      /* Enable write access to Backup domain */
      SET_BIT(PWR->CR, PWR_CR_DBP);
 8004ada:	4b17      	ldr	r3, [pc, #92]	; (8004b38 <HAL_RCC_OscConfig+0x93c>)
 8004adc:	681b      	ldr	r3, [r3, #0]
 8004ade:	4a16      	ldr	r2, [pc, #88]	; (8004b38 <HAL_RCC_OscConfig+0x93c>)
 8004ae0:	f443 7380 	orr.w	r3, r3, #256	; 0x100
 8004ae4:	6013      	str	r3, [r2, #0]
      
      /* Wait for Backup domain Write protection disable */
      tickstart = HAL_GetTick();
 8004ae6:	f7fe f9bd 	bl	8002e64 <HAL_GetTick>
 8004aea:	f8c7 01f8 	str.w	r0, [r7, #504]	; 0x1f8

      while(HAL_IS_BIT_CLR(PWR->CR, PWR_CR_DBP))
 8004aee:	e009      	b.n	8004b04 <HAL_RCC_OscConfig+0x908>
      {
        if((HAL_GetTick() - tickstart) > RCC_DBP_TIMEOUT_VALUE)
 8004af0:	f7fe f9b8 	bl	8002e64 <HAL_GetTick>
 8004af4:	4602      	mov	r2, r0
 8004af6:	f8d7 31f8 	ldr.w	r3, [r7, #504]	; 0x1f8
 8004afa:	1ad3      	subs	r3, r2, r3
 8004afc:	2b64      	cmp	r3, #100	; 0x64
 8004afe:	d901      	bls.n	8004b04 <HAL_RCC_OscConfig+0x908>
        {
          return HAL_TIMEOUT;
 8004b00:	2303      	movs	r3, #3
 8004b02:	e3b1      	b.n	8005268 <HAL_RCC_OscConfig+0x106c>
      while(HAL_IS_BIT_CLR(PWR->CR, PWR_CR_DBP))
 8004b04:	4b0c      	ldr	r3, [pc, #48]	; (8004b38 <HAL_RCC_OscConfig+0x93c>)
 8004b06:	681b      	ldr	r3, [r3, #0]
 8004b08:	f403 7380 	and.w	r3, r3, #256	; 0x100
 8004b0c:	2b00      	cmp	r3, #0
 8004b0e:	d0ef      	beq.n	8004af0 <HAL_RCC_OscConfig+0x8f4>
        }
      }
    }

    /* Set the new LSE configuration -----------------------------------------*/
    __HAL_RCC_LSE_CONFIG(RCC_OscInitStruct->LSEState);
 8004b10:	f507 7300 	add.w	r3, r7, #512	; 0x200
 8004b14:	f5a3 73fe 	sub.w	r3, r3, #508	; 0x1fc
 8004b18:	681b      	ldr	r3, [r3, #0]
 8004b1a:	68db      	ldr	r3, [r3, #12]
 8004b1c:	2b01      	cmp	r3, #1
 8004b1e:	d10d      	bne.n	8004b3c <HAL_RCC_OscConfig+0x940>
 8004b20:	4b03      	ldr	r3, [pc, #12]	; (8004b30 <HAL_RCC_OscConfig+0x934>)
 8004b22:	6a1b      	ldr	r3, [r3, #32]
 8004b24:	4a02      	ldr	r2, [pc, #8]	; (8004b30 <HAL_RCC_OscConfig+0x934>)
 8004b26:	f043 0301 	orr.w	r3, r3, #1
 8004b2a:	6213      	str	r3, [r2, #32]
 8004b2c:	e03c      	b.n	8004ba8 <HAL_RCC_OscConfig+0x9ac>
 8004b2e:	bf00      	nop
 8004b30:	40021000 	.word	0x40021000
 8004b34:	10908120 	.word	0x10908120
 8004b38:	40007000 	.word	0x40007000
 8004b3c:	f507 7300 	add.w	r3, r7, #512	; 0x200
 8004b40:	f5a3 73fe 	sub.w	r3, r3, #508	; 0x1fc
 8004b44:	681b      	ldr	r3, [r3, #0]
 8004b46:	68db      	ldr	r3, [r3, #12]
 8004b48:	2b00      	cmp	r3, #0
 8004b4a:	d10c      	bne.n	8004b66 <HAL_RCC_OscConfig+0x96a>
 8004b4c:	4bc1      	ldr	r3, [pc, #772]	; (8004e54 <HAL_RCC_OscConfig+0xc58>)
 8004b4e:	6a1b      	ldr	r3, [r3, #32]
 8004b50:	4ac0      	ldr	r2, [pc, #768]	; (8004e54 <HAL_RCC_OscConfig+0xc58>)
 8004b52:	f023 0301 	bic.w	r3, r3, #1
 8004b56:	6213      	str	r3, [r2, #32]
 8004b58:	4bbe      	ldr	r3, [pc, #760]	; (8004e54 <HAL_RCC_OscConfig+0xc58>)
 8004b5a:	6a1b      	ldr	r3, [r3, #32]
 8004b5c:	4abd      	ldr	r2, [pc, #756]	; (8004e54 <HAL_RCC_OscConfig+0xc58>)
 8004b5e:	f023 0304 	bic.w	r3, r3, #4
 8004b62:	6213      	str	r3, [r2, #32]
 8004b64:	e020      	b.n	8004ba8 <HAL_RCC_OscConfig+0x9ac>
 8004b66:	f507 7300 	add.w	r3, r7, #512	; 0x200
 8004b6a:	f5a3 73fe 	sub.w	r3, r3, #508	; 0x1fc
 8004b6e:	681b      	ldr	r3, [r3, #0]
 8004b70:	68db      	ldr	r3, [r3, #12]
 8004b72:	2b05      	cmp	r3, #5
 8004b74:	d10c      	bne.n	8004b90 <HAL_RCC_OscConfig+0x994>
 8004b76:	4bb7      	ldr	r3, [pc, #732]	; (8004e54 <HAL_RCC_OscConfig+0xc58>)
 8004b78:	6a1b      	ldr	r3, [r3, #32]
 8004b7a:	4ab6      	ldr	r2, [pc, #728]	; (8004e54 <HAL_RCC_OscConfig+0xc58>)
 8004b7c:	f043 0304 	orr.w	r3, r3, #4
 8004b80:	6213      	str	r3, [r2, #32]
 8004b82:	4bb4      	ldr	r3, [pc, #720]	; (8004e54 <HAL_RCC_OscConfig+0xc58>)
 8004b84:	6a1b      	ldr	r3, [r3, #32]
 8004b86:	4ab3      	ldr	r2, [pc, #716]	; (8004e54 <HAL_RCC_OscConfig+0xc58>)
 8004b88:	f043 0301 	orr.w	r3, r3, #1
 8004b8c:	6213      	str	r3, [r2, #32]
 8004b8e:	e00b      	b.n	8004ba8 <HAL_RCC_OscConfig+0x9ac>
 8004b90:	4bb0      	ldr	r3, [pc, #704]	; (8004e54 <HAL_RCC_OscConfig+0xc58>)
 8004b92:	6a1b      	ldr	r3, [r3, #32]
 8004b94:	4aaf      	ldr	r2, [pc, #700]	; (8004e54 <HAL_RCC_OscConfig+0xc58>)
 8004b96:	f023 0301 	bic.w	r3, r3, #1
 8004b9a:	6213      	str	r3, [r2, #32]
 8004b9c:	4bad      	ldr	r3, [pc, #692]	; (8004e54 <HAL_RCC_OscConfig+0xc58>)
 8004b9e:	6a1b      	ldr	r3, [r3, #32]
 8004ba0:	4aac      	ldr	r2, [pc, #688]	; (8004e54 <HAL_RCC_OscConfig+0xc58>)
 8004ba2:	f023 0304 	bic.w	r3, r3, #4
 8004ba6:	6213      	str	r3, [r2, #32]
    /* Check the LSE State */
    if(RCC_OscInitStruct->LSEState != RCC_LSE_OFF)
 8004ba8:	f507 7300 	add.w	r3, r7, #512	; 0x200
 8004bac:	f5a3 73fe 	sub.w	r3, r3, #508	; 0x1fc
 8004bb0:	681b      	ldr	r3, [r3, #0]
 8004bb2:	68db      	ldr	r3, [r3, #12]
 8004bb4:	2b00      	cmp	r3, #0
 8004bb6:	f000 8081 	beq.w	8004cbc <HAL_RCC_OscConfig+0xac0>
    {
      /* Get Start Tick */
      tickstart = HAL_GetTick();
 8004bba:	f7fe f953 	bl	8002e64 <HAL_GetTick>
 8004bbe:	f8c7 01f8 	str.w	r0, [r7, #504]	; 0x1f8
      
      /* Wait till LSE is ready */  
      while(__HAL_RCC_GET_FLAG(RCC_FLAG_LSERDY) == RESET)
 8004bc2:	e00b      	b.n	8004bdc <HAL_RCC_OscConfig+0x9e0>
      {
        if((HAL_GetTick() - tickstart ) > RCC_LSE_TIMEOUT_VALUE)
 8004bc4:	f7fe f94e 	bl	8002e64 <HAL_GetTick>
 8004bc8:	4602      	mov	r2, r0
 8004bca:	f8d7 31f8 	ldr.w	r3, [r7, #504]	; 0x1f8
 8004bce:	1ad3      	subs	r3, r2, r3
 8004bd0:	f241 3288 	movw	r2, #5000	; 0x1388
 8004bd4:	4293      	cmp	r3, r2
 8004bd6:	d901      	bls.n	8004bdc <HAL_RCC_OscConfig+0x9e0>
        {
          return HAL_TIMEOUT;
 8004bd8:	2303      	movs	r3, #3
 8004bda:	e345      	b.n	8005268 <HAL_RCC_OscConfig+0x106c>
 8004bdc:	f507 7300 	add.w	r3, r7, #512	; 0x200
 8004be0:	f5a3 73a0 	sub.w	r3, r3, #320	; 0x140
 8004be4:	2202      	movs	r2, #2
 8004be6:	601a      	str	r2, [r3, #0]
   __ASM volatile ("rbit %0, %1" : "=r" (result) : "r" (value) );
 8004be8:	f507 7300 	add.w	r3, r7, #512	; 0x200
 8004bec:	f5a3 73a0 	sub.w	r3, r3, #320	; 0x140
 8004bf0:	681b      	ldr	r3, [r3, #0]
 8004bf2:	fa93 f2a3 	rbit	r2, r3
 8004bf6:	f507 7300 	add.w	r3, r7, #512	; 0x200
 8004bfa:	f5a3 73a2 	sub.w	r3, r3, #324	; 0x144
 8004bfe:	601a      	str	r2, [r3, #0]
 8004c00:	f507 7300 	add.w	r3, r7, #512	; 0x200
 8004c04:	f5a3 73a4 	sub.w	r3, r3, #328	; 0x148
 8004c08:	2202      	movs	r2, #2
 8004c0a:	601a      	str	r2, [r3, #0]
 8004c0c:	f507 7300 	add.w	r3, r7, #512	; 0x200
 8004c10:	f5a3 73a4 	sub.w	r3, r3, #328	; 0x148
 8004c14:	681b      	ldr	r3, [r3, #0]
 8004c16:	fa93 f2a3 	rbit	r2, r3
 8004c1a:	f507 7300 	add.w	r3, r7, #512	; 0x200
 8004c1e:	f5a3 73a6 	sub.w	r3, r3, #332	; 0x14c
 8004c22:	601a      	str	r2, [r3, #0]
  return result;
 8004c24:	f507 7300 	add.w	r3, r7, #512	; 0x200
 8004c28:	f5a3 73a6 	sub.w	r3, r3, #332	; 0x14c
 8004c2c:	681b      	ldr	r3, [r3, #0]
      while(__HAL_RCC_GET_FLAG(RCC_FLAG_LSERDY) == RESET)
 8004c2e:	fab3 f383 	clz	r3, r3
 8004c32:	b2db      	uxtb	r3, r3
 8004c34:	095b      	lsrs	r3, r3, #5
 8004c36:	b2db      	uxtb	r3, r3
 8004c38:	f043 0302 	orr.w	r3, r3, #2
 8004c3c:	b2db      	uxtb	r3, r3
 8004c3e:	2b02      	cmp	r3, #2
 8004c40:	d102      	bne.n	8004c48 <HAL_RCC_OscConfig+0xa4c>
 8004c42:	4b84      	ldr	r3, [pc, #528]	; (8004e54 <HAL_RCC_OscConfig+0xc58>)
 8004c44:	6a1b      	ldr	r3, [r3, #32]
 8004c46:	e013      	b.n	8004c70 <HAL_RCC_OscConfig+0xa74>
 8004c48:	f507 7300 	add.w	r3, r7, #512	; 0x200
 8004c4c:	f5a3 73a8 	sub.w	r3, r3, #336	; 0x150
 8004c50:	2202      	movs	r2, #2
 8004c52:	601a      	str	r2, [r3, #0]
   __ASM volatile ("rbit %0, %1" : "=r" (result) : "r" (value) );
 8004c54:	f507 7300 	add.w	r3, r7, #512	; 0x200
 8004c58:	f5a3 73a8 	sub.w	r3, r3, #336	; 0x150
 8004c5c:	681b      	ldr	r3, [r3, #0]
 8004c5e:	fa93 f2a3 	rbit	r2, r3
 8004c62:	f507 7300 	add.w	r3, r7, #512	; 0x200
 8004c66:	f5a3 73aa 	sub.w	r3, r3, #340	; 0x154
 8004c6a:	601a      	str	r2, [r3, #0]
 8004c6c:	4b79      	ldr	r3, [pc, #484]	; (8004e54 <HAL_RCC_OscConfig+0xc58>)
 8004c6e:	6a5b      	ldr	r3, [r3, #36]	; 0x24
 8004c70:	f507 7200 	add.w	r2, r7, #512	; 0x200
 8004c74:	f5a2 72ac 	sub.w	r2, r2, #344	; 0x158
 8004c78:	2102      	movs	r1, #2
 8004c7a:	6011      	str	r1, [r2, #0]
 8004c7c:	f507 7200 	add.w	r2, r7, #512	; 0x200
 8004c80:	f5a2 72ac 	sub.w	r2, r2, #344	; 0x158
 8004c84:	6812      	ldr	r2, [r2, #0]
 8004c86:	fa92 f1a2 	rbit	r1, r2
 8004c8a:	f507 7200 	add.w	r2, r7, #512	; 0x200
 8004c8e:	f5a2 72ae 	sub.w	r2, r2, #348	; 0x15c
 8004c92:	6011      	str	r1, [r2, #0]
  return result;
 8004c94:	f507 7200 	add.w	r2, r7, #512	; 0x200
 8004c98:	f5a2 72ae 	sub.w	r2, r2, #348	; 0x15c
 8004c9c:	6812      	ldr	r2, [r2, #0]
 8004c9e:	fab2 f282 	clz	r2, r2
 8004ca2:	b2d2      	uxtb	r2, r2
 8004ca4:	f042 0240 	orr.w	r2, r2, #64	; 0x40
 8004ca8:	b2d2      	uxtb	r2, r2
 8004caa:	f002 021f 	and.w	r2, r2, #31
 8004cae:	2101      	movs	r1, #1
 8004cb0:	fa01 f202 	lsl.w	r2, r1, r2
 8004cb4:	4013      	ands	r3, r2
 8004cb6:	2b00      	cmp	r3, #0
 8004cb8:	d084      	beq.n	8004bc4 <HAL_RCC_OscConfig+0x9c8>
 8004cba:	e07f      	b.n	8004dbc <HAL_RCC_OscConfig+0xbc0>
      }
    }
    else
    {
      /* Get Start Tick */
      tickstart = HAL_GetTick();
 8004cbc:	f7fe f8d2 	bl	8002e64 <HAL_GetTick>
 8004cc0:	f8c7 01f8 	str.w	r0, [r7, #504]	; 0x1f8
      
      /* Wait till LSE is disabled */  
      while(__HAL_RCC_GET_FLAG(RCC_FLAG_LSERDY) != RESET)
 8004cc4:	e00b      	b.n	8004cde <HAL_RCC_OscConfig+0xae2>
      {
        if((HAL_GetTick() - tickstart ) > RCC_LSE_TIMEOUT_VALUE)
 8004cc6:	f7fe f8cd 	bl	8002e64 <HAL_GetTick>
 8004cca:	4602      	mov	r2, r0
 8004ccc:	f8d7 31f8 	ldr.w	r3, [r7, #504]	; 0x1f8
 8004cd0:	1ad3      	subs	r3, r2, r3
 8004cd2:	f241 3288 	movw	r2, #5000	; 0x1388
 8004cd6:	4293      	cmp	r3, r2
 8004cd8:	d901      	bls.n	8004cde <HAL_RCC_OscConfig+0xae2>
        {
          return HAL_TIMEOUT;
 8004cda:	2303      	movs	r3, #3
 8004cdc:	e2c4      	b.n	8005268 <HAL_RCC_OscConfig+0x106c>
 8004cde:	f507 7300 	add.w	r3, r7, #512	; 0x200
 8004ce2:	f5a3 73b0 	sub.w	r3, r3, #352	; 0x160
 8004ce6:	2202      	movs	r2, #2
 8004ce8:	601a      	str	r2, [r3, #0]
   __ASM volatile ("rbit %0, %1" : "=r" (result) : "r" (value) );
 8004cea:	f507 7300 	add.w	r3, r7, #512	; 0x200
 8004cee:	f5a3 73b0 	sub.w	r3, r3, #352	; 0x160
 8004cf2:	681b      	ldr	r3, [r3, #0]
 8004cf4:	fa93 f2a3 	rbit	r2, r3
 8004cf8:	f507 7300 	add.w	r3, r7, #512	; 0x200
 8004cfc:	f5a3 73b2 	sub.w	r3, r3, #356	; 0x164
 8004d00:	601a      	str	r2, [r3, #0]
 8004d02:	f507 7300 	add.w	r3, r7, #512	; 0x200
 8004d06:	f5a3 73b4 	sub.w	r3, r3, #360	; 0x168
 8004d0a:	2202      	movs	r2, #2
 8004d0c:	601a      	str	r2, [r3, #0]
 8004d0e:	f507 7300 	add.w	r3, r7, #512	; 0x200
 8004d12:	f5a3 73b4 	sub.w	r3, r3, #360	; 0x168
 8004d16:	681b      	ldr	r3, [r3, #0]
 8004d18:	fa93 f2a3 	rbit	r2, r3
 8004d1c:	f507 7300 	add.w	r3, r7, #512	; 0x200
 8004d20:	f5a3 73b6 	sub.w	r3, r3, #364	; 0x16c
 8004d24:	601a      	str	r2, [r3, #0]
  return result;
 8004d26:	f507 7300 	add.w	r3, r7, #512	; 0x200
 8004d2a:	f5a3 73b6 	sub.w	r3, r3, #364	; 0x16c
 8004d2e:	681b      	ldr	r3, [r3, #0]
      while(__HAL_RCC_GET_FLAG(RCC_FLAG_LSERDY) != RESET)
 8004d30:	fab3 f383 	clz	r3, r3
 8004d34:	b2db      	uxtb	r3, r3
 8004d36:	095b      	lsrs	r3, r3, #5
 8004d38:	b2db      	uxtb	r3, r3
 8004d3a:	f043 0302 	orr.w	r3, r3, #2
 8004d3e:	b2db      	uxtb	r3, r3
 8004d40:	2b02      	cmp	r3, #2
 8004d42:	d102      	bne.n	8004d4a <HAL_RCC_OscConfig+0xb4e>
 8004d44:	4b43      	ldr	r3, [pc, #268]	; (8004e54 <HAL_RCC_OscConfig+0xc58>)
 8004d46:	6a1b      	ldr	r3, [r3, #32]
 8004d48:	e013      	b.n	8004d72 <HAL_RCC_OscConfig+0xb76>
 8004d4a:	f507 7300 	add.w	r3, r7, #512	; 0x200
 8004d4e:	f5a3 73b8 	sub.w	r3, r3, #368	; 0x170
 8004d52:	2202      	movs	r2, #2
 8004d54:	601a      	str	r2, [r3, #0]
   __ASM volatile ("rbit %0, %1" : "=r" (result) : "r" (value) );
 8004d56:	f507 7300 	add.w	r3, r7, #512	; 0x200
 8004d5a:	f5a3 73b8 	sub.w	r3, r3, #368	; 0x170
 8004d5e:	681b      	ldr	r3, [r3, #0]
 8004d60:	fa93 f2a3 	rbit	r2, r3
 8004d64:	f507 7300 	add.w	r3, r7, #512	; 0x200
 8004d68:	f5a3 73ba 	sub.w	r3, r3, #372	; 0x174
 8004d6c:	601a      	str	r2, [r3, #0]
 8004d6e:	4b39      	ldr	r3, [pc, #228]	; (8004e54 <HAL_RCC_OscConfig+0xc58>)
 8004d70:	6a5b      	ldr	r3, [r3, #36]	; 0x24
 8004d72:	f507 7200 	add.w	r2, r7, #512	; 0x200
 8004d76:	f5a2 72bc 	sub.w	r2, r2, #376	; 0x178
 8004d7a:	2102      	movs	r1, #2
 8004d7c:	6011      	str	r1, [r2, #0]
 8004d7e:	f507 7200 	add.w	r2, r7, #512	; 0x200
 8004d82:	f5a2 72bc 	sub.w	r2, r2, #376	; 0x178
 8004d86:	6812      	ldr	r2, [r2, #0]
 8004d88:	fa92 f1a2 	rbit	r1, r2
 8004d8c:	f507 7200 	add.w	r2, r7, #512	; 0x200
 8004d90:	f5a2 72be 	sub.w	r2, r2, #380	; 0x17c
 8004d94:	6011      	str	r1, [r2, #0]
  return result;
 8004d96:	f507 7200 	add.w	r2, r7, #512	; 0x200
 8004d9a:	f5a2 72be 	sub.w	r2, r2, #380	; 0x17c
 8004d9e:	6812      	ldr	r2, [r2, #0]
 8004da0:	fab2 f282 	clz	r2, r2
 8004da4:	b2d2      	uxtb	r2, r2
 8004da6:	f042 0240 	orr.w	r2, r2, #64	; 0x40
 8004daa:	b2d2      	uxtb	r2, r2
 8004dac:	f002 021f 	and.w	r2, r2, #31
 8004db0:	2101      	movs	r1, #1
 8004db2:	fa01 f202 	lsl.w	r2, r1, r2
 8004db6:	4013      	ands	r3, r2
 8004db8:	2b00      	cmp	r3, #0
 8004dba:	d184      	bne.n	8004cc6 <HAL_RCC_OscConfig+0xaca>
        }
      }
    }

    /* Require to disable power clock if necessary */
    if(pwrclkchanged == SET)
 8004dbc:	f897 31ff 	ldrb.w	r3, [r7, #511]	; 0x1ff
 8004dc0:	2b01      	cmp	r3, #1
 8004dc2:	d105      	bne.n	8004dd0 <HAL_RCC_OscConfig+0xbd4>
    {
      __HAL_RCC_PWR_CLK_DISABLE();
 8004dc4:	4b23      	ldr	r3, [pc, #140]	; (8004e54 <HAL_RCC_OscConfig+0xc58>)
 8004dc6:	69db      	ldr	r3, [r3, #28]
 8004dc8:	4a22      	ldr	r2, [pc, #136]	; (8004e54 <HAL_RCC_OscConfig+0xc58>)
 8004dca:	f023 5380 	bic.w	r3, r3, #268435456	; 0x10000000
 8004dce:	61d3      	str	r3, [r2, #28]
  }

  /*-------------------------------- PLL Configuration -----------------------*/
  /* Check the parameters */
  assert_param(IS_RCC_PLL(RCC_OscInitStruct->PLL.PLLState));
  if ((RCC_OscInitStruct->PLL.PLLState) != RCC_PLL_NONE)
 8004dd0:	f507 7300 	add.w	r3, r7, #512	; 0x200
 8004dd4:	f5a3 73fe 	sub.w	r3, r3, #508	; 0x1fc
 8004dd8:	681b      	ldr	r3, [r3, #0]
 8004dda:	69db      	ldr	r3, [r3, #28]
 8004ddc:	2b00      	cmp	r3, #0
 8004dde:	f000 8242 	beq.w	8005266 <HAL_RCC_OscConfig+0x106a>
  {
    /* Check if the PLL is used as system clock or not */
    if(__HAL_RCC_GET_SYSCLK_SOURCE() != RCC_SYSCLKSOURCE_STATUS_PLLCLK)
 8004de2:	4b1c      	ldr	r3, [pc, #112]	; (8004e54 <HAL_RCC_OscConfig+0xc58>)
 8004de4:	685b      	ldr	r3, [r3, #4]
 8004de6:	f003 030c 	and.w	r3, r3, #12
 8004dea:	2b08      	cmp	r3, #8
 8004dec:	f000 8213 	beq.w	8005216 <HAL_RCC_OscConfig+0x101a>
    { 
      if((RCC_OscInitStruct->PLL.PLLState) == RCC_PLL_ON)
 8004df0:	f507 7300 	add.w	r3, r7, #512	; 0x200
 8004df4:	f5a3 73fe 	sub.w	r3, r3, #508	; 0x1fc
 8004df8:	681b      	ldr	r3, [r3, #0]
 8004dfa:	69db      	ldr	r3, [r3, #28]
 8004dfc:	2b02      	cmp	r3, #2
 8004dfe:	f040 8162 	bne.w	80050c6 <HAL_RCC_OscConfig+0xeca>
 8004e02:	f507 7300 	add.w	r3, r7, #512	; 0x200
 8004e06:	f5a3 73c0 	sub.w	r3, r3, #384	; 0x180
 8004e0a:	f04f 7280 	mov.w	r2, #16777216	; 0x1000000
 8004e0e:	601a      	str	r2, [r3, #0]
   __ASM volatile ("rbit %0, %1" : "=r" (result) : "r" (value) );
 8004e10:	f507 7300 	add.w	r3, r7, #512	; 0x200
 8004e14:	f5a3 73c0 	sub.w	r3, r3, #384	; 0x180
 8004e18:	681b      	ldr	r3, [r3, #0]
 8004e1a:	fa93 f2a3 	rbit	r2, r3
 8004e1e:	f507 7300 	add.w	r3, r7, #512	; 0x200
 8004e22:	f5a3 73c2 	sub.w	r3, r3, #388	; 0x184
 8004e26:	601a      	str	r2, [r3, #0]
  return result;
 8004e28:	f507 7300 	add.w	r3, r7, #512	; 0x200
 8004e2c:	f5a3 73c2 	sub.w	r3, r3, #388	; 0x184
 8004e30:	681b      	ldr	r3, [r3, #0]
#if   defined(RCC_CFGR_PLLSRC_HSI_PREDIV)
        assert_param(IS_RCC_PREDIV(RCC_OscInitStruct->PLL.PREDIV));
#endif
  
        /* Disable the main PLL. */
        __HAL_RCC_PLL_DISABLE();
 8004e32:	fab3 f383 	clz	r3, r3
 8004e36:	b2db      	uxtb	r3, r3
 8004e38:	f103 5384 	add.w	r3, r3, #276824064	; 0x10800000
 8004e3c:	f503 1384 	add.w	r3, r3, #1081344	; 0x108000
 8004e40:	009b      	lsls	r3, r3, #2
 8004e42:	461a      	mov	r2, r3
 8004e44:	2300      	movs	r3, #0
 8004e46:	6013      	str	r3, [r2, #0]
        
        /* Get Start Tick */
        tickstart = HAL_GetTick();
 8004e48:	f7fe f80c 	bl	8002e64 <HAL_GetTick>
 8004e4c:	f8c7 01f8 	str.w	r0, [r7, #504]	; 0x1f8
        
        /* Wait till PLL is disabled */
        while(__HAL_RCC_GET_FLAG(RCC_FLAG_PLLRDY)  != RESET)
 8004e50:	e00c      	b.n	8004e6c <HAL_RCC_OscConfig+0xc70>
 8004e52:	bf00      	nop
 8004e54:	40021000 	.word	0x40021000
        {
          if((HAL_GetTick() - tickstart ) > PLL_TIMEOUT_VALUE)
 8004e58:	f7fe f804 	bl	8002e64 <HAL_GetTick>
 8004e5c:	4602      	mov	r2, r0
 8004e5e:	f8d7 31f8 	ldr.w	r3, [r7, #504]	; 0x1f8
 8004e62:	1ad3      	subs	r3, r2, r3
 8004e64:	2b02      	cmp	r3, #2
 8004e66:	d901      	bls.n	8004e6c <HAL_RCC_OscConfig+0xc70>
          {
            return HAL_TIMEOUT;
 8004e68:	2303      	movs	r3, #3
 8004e6a:	e1fd      	b.n	8005268 <HAL_RCC_OscConfig+0x106c>
 8004e6c:	f507 7300 	add.w	r3, r7, #512	; 0x200
 8004e70:	f5a3 73c4 	sub.w	r3, r3, #392	; 0x188
 8004e74:	f04f 7200 	mov.w	r2, #33554432	; 0x2000000
 8004e78:	601a      	str	r2, [r3, #0]
   __ASM volatile ("rbit %0, %1" : "=r" (result) : "r" (value) );
 8004e7a:	f507 7300 	add.w	r3, r7, #512	; 0x200
 8004e7e:	f5a3 73c4 	sub.w	r3, r3, #392	; 0x188
 8004e82:	681b      	ldr	r3, [r3, #0]
 8004e84:	fa93 f2a3 	rbit	r2, r3
 8004e88:	f507 7300 	add.w	r3, r7, #512	; 0x200
 8004e8c:	f5a3 73c6 	sub.w	r3, r3, #396	; 0x18c
 8004e90:	601a      	str	r2, [r3, #0]
  return result;
 8004e92:	f507 7300 	add.w	r3, r7, #512	; 0x200
 8004e96:	f5a3 73c6 	sub.w	r3, r3, #396	; 0x18c
 8004e9a:	681b      	ldr	r3, [r3, #0]
        while(__HAL_RCC_GET_FLAG(RCC_FLAG_PLLRDY)  != RESET)
 8004e9c:	fab3 f383 	clz	r3, r3
 8004ea0:	b2db      	uxtb	r3, r3
 8004ea2:	095b      	lsrs	r3, r3, #5
 8004ea4:	b2db      	uxtb	r3, r3
 8004ea6:	f043 0301 	orr.w	r3, r3, #1
 8004eaa:	b2db      	uxtb	r3, r3
 8004eac:	2b01      	cmp	r3, #1
 8004eae:	d102      	bne.n	8004eb6 <HAL_RCC_OscConfig+0xcba>
 8004eb0:	4bb0      	ldr	r3, [pc, #704]	; (8005174 <HAL_RCC_OscConfig+0xf78>)
 8004eb2:	681b      	ldr	r3, [r3, #0]
 8004eb4:	e027      	b.n	8004f06 <HAL_RCC_OscConfig+0xd0a>
 8004eb6:	f507 7300 	add.w	r3, r7, #512	; 0x200
 8004eba:	f5a3 73c8 	sub.w	r3, r3, #400	; 0x190
 8004ebe:	f04f 7200 	mov.w	r2, #33554432	; 0x2000000
 8004ec2:	601a      	str	r2, [r3, #0]
   __ASM volatile ("rbit %0, %1" : "=r" (result) : "r" (value) );
 8004ec4:	f507 7300 	add.w	r3, r7, #512	; 0x200
 8004ec8:	f5a3 73c8 	sub.w	r3, r3, #400	; 0x190
 8004ecc:	681b      	ldr	r3, [r3, #0]
 8004ece:	fa93 f2a3 	rbit	r2, r3
 8004ed2:	f507 7300 	add.w	r3, r7, #512	; 0x200
 8004ed6:	f5a3 73ca 	sub.w	r3, r3, #404	; 0x194
 8004eda:	601a      	str	r2, [r3, #0]
 8004edc:	f507 7300 	add.w	r3, r7, #512	; 0x200
 8004ee0:	f5a3 73cc 	sub.w	r3, r3, #408	; 0x198
 8004ee4:	f04f 7200 	mov.w	r2, #33554432	; 0x2000000
 8004ee8:	601a      	str	r2, [r3, #0]
 8004eea:	f507 7300 	add.w	r3, r7, #512	; 0x200
 8004eee:	f5a3 73cc 	sub.w	r3, r3, #408	; 0x198
 8004ef2:	681b      	ldr	r3, [r3, #0]
 8004ef4:	fa93 f2a3 	rbit	r2, r3
 8004ef8:	f507 7300 	add.w	r3, r7, #512	; 0x200
 8004efc:	f5a3 73ce 	sub.w	r3, r3, #412	; 0x19c
 8004f00:	601a      	str	r2, [r3, #0]
 8004f02:	4b9c      	ldr	r3, [pc, #624]	; (8005174 <HAL_RCC_OscConfig+0xf78>)
 8004f04:	6a5b      	ldr	r3, [r3, #36]	; 0x24
 8004f06:	f507 7200 	add.w	r2, r7, #512	; 0x200
 8004f0a:	f5a2 72d0 	sub.w	r2, r2, #416	; 0x1a0
 8004f0e:	f04f 7100 	mov.w	r1, #33554432	; 0x2000000
 8004f12:	6011      	str	r1, [r2, #0]
 8004f14:	f507 7200 	add.w	r2, r7, #512	; 0x200
 8004f18:	f5a2 72d0 	sub.w	r2, r2, #416	; 0x1a0
 8004f1c:	6812      	ldr	r2, [r2, #0]
 8004f1e:	fa92 f1a2 	rbit	r1, r2
 8004f22:	f507 7200 	add.w	r2, r7, #512	; 0x200
 8004f26:	f5a2 72d2 	sub.w	r2, r2, #420	; 0x1a4
 8004f2a:	6011      	str	r1, [r2, #0]
  return result;
 8004f2c:	f507 7200 	add.w	r2, r7, #512	; 0x200
 8004f30:	f5a2 72d2 	sub.w	r2, r2, #420	; 0x1a4
 8004f34:	6812      	ldr	r2, [r2, #0]
 8004f36:	fab2 f282 	clz	r2, r2
 8004f3a:	b2d2      	uxtb	r2, r2
 8004f3c:	f042 0220 	orr.w	r2, r2, #32
 8004f40:	b2d2      	uxtb	r2, r2
 8004f42:	f002 021f 	and.w	r2, r2, #31
 8004f46:	2101      	movs	r1, #1
 8004f48:	fa01 f202 	lsl.w	r2, r1, r2
 8004f4c:	4013      	ands	r3, r2
 8004f4e:	2b00      	cmp	r3, #0
 8004f50:	d182      	bne.n	8004e58 <HAL_RCC_OscConfig+0xc5c>
        __HAL_RCC_PLL_CONFIG(RCC_OscInitStruct->PLL.PLLSource,
                             RCC_OscInitStruct->PLL.PREDIV,
                             RCC_OscInitStruct->PLL.PLLMUL);
#else
      /* Configure the main PLL clock source and multiplication factor. */
      __HAL_RCC_PLL_CONFIG(RCC_OscInitStruct->PLL.PLLSource,
 8004f52:	4b88      	ldr	r3, [pc, #544]	; (8005174 <HAL_RCC_OscConfig+0xf78>)
 8004f54:	685b      	ldr	r3, [r3, #4]
 8004f56:	f423 1274 	bic.w	r2, r3, #3997696	; 0x3d0000
 8004f5a:	f507 7300 	add.w	r3, r7, #512	; 0x200
 8004f5e:	f5a3 73fe 	sub.w	r3, r3, #508	; 0x1fc
 8004f62:	681b      	ldr	r3, [r3, #0]
 8004f64:	6a59      	ldr	r1, [r3, #36]	; 0x24
 8004f66:	f507 7300 	add.w	r3, r7, #512	; 0x200
 8004f6a:	f5a3 73fe 	sub.w	r3, r3, #508	; 0x1fc
 8004f6e:	681b      	ldr	r3, [r3, #0]
 8004f70:	6a1b      	ldr	r3, [r3, #32]
 8004f72:	430b      	orrs	r3, r1
 8004f74:	497f      	ldr	r1, [pc, #508]	; (8005174 <HAL_RCC_OscConfig+0xf78>)
 8004f76:	4313      	orrs	r3, r2
 8004f78:	604b      	str	r3, [r1, #4]
 8004f7a:	f507 7300 	add.w	r3, r7, #512	; 0x200
 8004f7e:	f5a3 73d4 	sub.w	r3, r3, #424	; 0x1a8
 8004f82:	f04f 7280 	mov.w	r2, #16777216	; 0x1000000
 8004f86:	601a      	str	r2, [r3, #0]
   __ASM volatile ("rbit %0, %1" : "=r" (result) : "r" (value) );
 8004f88:	f507 7300 	add.w	r3, r7, #512	; 0x200
 8004f8c:	f5a3 73d4 	sub.w	r3, r3, #424	; 0x1a8
 8004f90:	681b      	ldr	r3, [r3, #0]
 8004f92:	fa93 f2a3 	rbit	r2, r3
 8004f96:	f507 7300 	add.w	r3, r7, #512	; 0x200
 8004f9a:	f5a3 73d6 	sub.w	r3, r3, #428	; 0x1ac
 8004f9e:	601a      	str	r2, [r3, #0]
  return result;
 8004fa0:	f507 7300 	add.w	r3, r7, #512	; 0x200
 8004fa4:	f5a3 73d6 	sub.w	r3, r3, #428	; 0x1ac
 8004fa8:	681b      	ldr	r3, [r3, #0]
                           RCC_OscInitStruct->PLL.PLLMUL);
#endif /* RCC_CFGR_PLLSRC_HSI_PREDIV */
        /* Enable the main PLL. */
        __HAL_RCC_PLL_ENABLE();
 8004faa:	fab3 f383 	clz	r3, r3
 8004fae:	b2db      	uxtb	r3, r3
 8004fb0:	f103 5384 	add.w	r3, r3, #276824064	; 0x10800000
 8004fb4:	f503 1384 	add.w	r3, r3, #1081344	; 0x108000
 8004fb8:	009b      	lsls	r3, r3, #2
 8004fba:	461a      	mov	r2, r3
 8004fbc:	2301      	movs	r3, #1
 8004fbe:	6013      	str	r3, [r2, #0]
        
        /* Get Start Tick */
        tickstart = HAL_GetTick();
 8004fc0:	f7fd ff50 	bl	8002e64 <HAL_GetTick>
 8004fc4:	f8c7 01f8 	str.w	r0, [r7, #504]	; 0x1f8
        
        /* Wait till PLL is ready */
        while(__HAL_RCC_GET_FLAG(RCC_FLAG_PLLRDY)  == RESET)
 8004fc8:	e009      	b.n	8004fde <HAL_RCC_OscConfig+0xde2>
        {
          if((HAL_GetTick() - tickstart ) > PLL_TIMEOUT_VALUE)
 8004fca:	f7fd ff4b 	bl	8002e64 <HAL_GetTick>
 8004fce:	4602      	mov	r2, r0
 8004fd0:	f8d7 31f8 	ldr.w	r3, [r7, #504]	; 0x1f8
 8004fd4:	1ad3      	subs	r3, r2, r3
 8004fd6:	2b02      	cmp	r3, #2
 8004fd8:	d901      	bls.n	8004fde <HAL_RCC_OscConfig+0xde2>
          {
            return HAL_TIMEOUT;
 8004fda:	2303      	movs	r3, #3
 8004fdc:	e144      	b.n	8005268 <HAL_RCC_OscConfig+0x106c>
 8004fde:	f507 7300 	add.w	r3, r7, #512	; 0x200
 8004fe2:	f5a3 73d8 	sub.w	r3, r3, #432	; 0x1b0
 8004fe6:	f04f 7200 	mov.w	r2, #33554432	; 0x2000000
 8004fea:	601a      	str	r2, [r3, #0]
   __ASM volatile ("rbit %0, %1" : "=r" (result) : "r" (value) );
 8004fec:	f507 7300 	add.w	r3, r7, #512	; 0x200
 8004ff0:	f5a3 73d8 	sub.w	r3, r3, #432	; 0x1b0
 8004ff4:	681b      	ldr	r3, [r3, #0]
 8004ff6:	fa93 f2a3 	rbit	r2, r3
 8004ffa:	f507 7300 	add.w	r3, r7, #512	; 0x200
 8004ffe:	f5a3 73da 	sub.w	r3, r3, #436	; 0x1b4
 8005002:	601a      	str	r2, [r3, #0]
  return result;
 8005004:	f507 7300 	add.w	r3, r7, #512	; 0x200
 8005008:	f5a3 73da 	sub.w	r3, r3, #436	; 0x1b4
 800500c:	681b      	ldr	r3, [r3, #0]
        while(__HAL_RCC_GET_FLAG(RCC_FLAG_PLLRDY)  == RESET)
 800500e:	fab3 f383 	clz	r3, r3
 8005012:	b2db      	uxtb	r3, r3
 8005014:	095b      	lsrs	r3, r3, #5
 8005016:	b2db      	uxtb	r3, r3
 8005018:	f043 0301 	orr.w	r3, r3, #1
 800501c:	b2db      	uxtb	r3, r3
 800501e:	2b01      	cmp	r3, #1
 8005020:	d102      	bne.n	8005028 <HAL_RCC_OscConfig+0xe2c>
 8005022:	4b54      	ldr	r3, [pc, #336]	; (8005174 <HAL_RCC_OscConfig+0xf78>)
 8005024:	681b      	ldr	r3, [r3, #0]
 8005026:	e027      	b.n	8005078 <HAL_RCC_OscConfig+0xe7c>
 8005028:	f507 7300 	add.w	r3, r7, #512	; 0x200
 800502c:	f5a3 73dc 	sub.w	r3, r3, #440	; 0x1b8
 8005030:	f04f 7200 	mov.w	r2, #33554432	; 0x2000000
 8005034:	601a      	str	r2, [r3, #0]
   __ASM volatile ("rbit %0, %1" : "=r" (result) : "r" (value) );
 8005036:	f507 7300 	add.w	r3, r7, #512	; 0x200
 800503a:	f5a3 73dc 	sub.w	r3, r3, #440	; 0x1b8
 800503e:	681b      	ldr	r3, [r3, #0]
 8005040:	fa93 f2a3 	rbit	r2, r3
 8005044:	f507 7300 	add.w	r3, r7, #512	; 0x200
 8005048:	f5a3 73de 	sub.w	r3, r3, #444	; 0x1bc
 800504c:	601a      	str	r2, [r3, #0]
 800504e:	f507 7300 	add.w	r3, r7, #512	; 0x200
 8005052:	f5a3 73e0 	sub.w	r3, r3, #448	; 0x1c0
 8005056:	f04f 7200 	mov.w	r2, #33554432	; 0x2000000
 800505a:	601a      	str	r2, [r3, #0]
 800505c:	f507 7300 	add.w	r3, r7, #512	; 0x200
 8005060:	f5a3 73e0 	sub.w	r3, r3, #448	; 0x1c0
 8005064:	681b      	ldr	r3, [r3, #0]
 8005066:	fa93 f2a3 	rbit	r2, r3
 800506a:	f507 7300 	add.w	r3, r7, #512	; 0x200
 800506e:	f5a3 73e2 	sub.w	r3, r3, #452	; 0x1c4
 8005072:	601a      	str	r2, [r3, #0]
 8005074:	4b3f      	ldr	r3, [pc, #252]	; (8005174 <HAL_RCC_OscConfig+0xf78>)
 8005076:	6a5b      	ldr	r3, [r3, #36]	; 0x24
 8005078:	f507 7200 	add.w	r2, r7, #512	; 0x200
 800507c:	f5a2 72e4 	sub.w	r2, r2, #456	; 0x1c8
 8005080:	f04f 7100 	mov.w	r1, #33554432	; 0x2000000
 8005084:	6011      	str	r1, [r2, #0]
 8005086:	f507 7200 	add.w	r2, r7, #512	; 0x200
 800508a:	f5a2 72e4 	sub.w	r2, r2, #456	; 0x1c8
 800508e:	6812      	ldr	r2, [r2, #0]
 8005090:	fa92 f1a2 	rbit	r1, r2
 8005094:	f507 7200 	add.w	r2, r7, #512	; 0x200
 8005098:	f5a2 72e6 	sub.w	r2, r2, #460	; 0x1cc
 800509c:	6011      	str	r1, [r2, #0]
  return result;
 800509e:	f507 7200 	add.w	r2, r7, #512	; 0x200
 80050a2:	f5a2 72e6 	sub.w	r2, r2, #460	; 0x1cc
 80050a6:	6812      	ldr	r2, [r2, #0]
 80050a8:	fab2 f282 	clz	r2, r2
 80050ac:	b2d2      	uxtb	r2, r2
 80050ae:	f042 0220 	orr.w	r2, r2, #32
 80050b2:	b2d2      	uxtb	r2, r2
 80050b4:	f002 021f 	and.w	r2, r2, #31
 80050b8:	2101      	movs	r1, #1
 80050ba:	fa01 f202 	lsl.w	r2, r1, r2
 80050be:	4013      	ands	r3, r2
 80050c0:	2b00      	cmp	r3, #0
 80050c2:	d082      	beq.n	8004fca <HAL_RCC_OscConfig+0xdce>
 80050c4:	e0cf      	b.n	8005266 <HAL_RCC_OscConfig+0x106a>
 80050c6:	f507 7300 	add.w	r3, r7, #512	; 0x200
 80050ca:	f5a3 73e8 	sub.w	r3, r3, #464	; 0x1d0
 80050ce:	f04f 7280 	mov.w	r2, #16777216	; 0x1000000
 80050d2:	601a      	str	r2, [r3, #0]
   __ASM volatile ("rbit %0, %1" : "=r" (result) : "r" (value) );
 80050d4:	f507 7300 	add.w	r3, r7, #512	; 0x200
 80050d8:	f5a3 73e8 	sub.w	r3, r3, #464	; 0x1d0
 80050dc:	681b      	ldr	r3, [r3, #0]
 80050de:	fa93 f2a3 	rbit	r2, r3
 80050e2:	f507 7300 	add.w	r3, r7, #512	; 0x200
 80050e6:	f5a3 73ea 	sub.w	r3, r3, #468	; 0x1d4
 80050ea:	601a      	str	r2, [r3, #0]
  return result;
 80050ec:	f507 7300 	add.w	r3, r7, #512	; 0x200
 80050f0:	f5a3 73ea 	sub.w	r3, r3, #468	; 0x1d4
 80050f4:	681b      	ldr	r3, [r3, #0]
        }
      }
      else
      {
        /* Disable the main PLL. */
        __HAL_RCC_PLL_DISABLE();
 80050f6:	fab3 f383 	clz	r3, r3
 80050fa:	b2db      	uxtb	r3, r3
 80050fc:	f103 5384 	add.w	r3, r3, #276824064	; 0x10800000
 8005100:	f503 1384 	add.w	r3, r3, #1081344	; 0x108000
 8005104:	009b      	lsls	r3, r3, #2
 8005106:	461a      	mov	r2, r3
 8005108:	2300      	movs	r3, #0
 800510a:	6013      	str	r3, [r2, #0]
 
        /* Get Start Tick */
        tickstart = HAL_GetTick();
 800510c:	f7fd feaa 	bl	8002e64 <HAL_GetTick>
 8005110:	f8c7 01f8 	str.w	r0, [r7, #504]	; 0x1f8
        
        /* Wait till PLL is disabled */  
        while(__HAL_RCC_GET_FLAG(RCC_FLAG_PLLRDY)  != RESET)
 8005114:	e009      	b.n	800512a <HAL_RCC_OscConfig+0xf2e>
        {
          if((HAL_GetTick() - tickstart ) > PLL_TIMEOUT_VALUE)
 8005116:	f7fd fea5 	bl	8002e64 <HAL_GetTick>
 800511a:	4602      	mov	r2, r0
 800511c:	f8d7 31f8 	ldr.w	r3, [r7, #504]	; 0x1f8
 8005120:	1ad3      	subs	r3, r2, r3
 8005122:	2b02      	cmp	r3, #2
 8005124:	d901      	bls.n	800512a <HAL_RCC_OscConfig+0xf2e>
          {
            return HAL_TIMEOUT;
 8005126:	2303      	movs	r3, #3
 8005128:	e09e      	b.n	8005268 <HAL_RCC_OscConfig+0x106c>
 800512a:	f507 7300 	add.w	r3, r7, #512	; 0x200
 800512e:	f5a3 73ec 	sub.w	r3, r3, #472	; 0x1d8
 8005132:	f04f 7200 	mov.w	r2, #33554432	; 0x2000000
 8005136:	601a      	str	r2, [r3, #0]
   __ASM volatile ("rbit %0, %1" : "=r" (result) : "r" (value) );
 8005138:	f507 7300 	add.w	r3, r7, #512	; 0x200
 800513c:	f5a3 73ec 	sub.w	r3, r3, #472	; 0x1d8
 8005140:	681b      	ldr	r3, [r3, #0]
 8005142:	fa93 f2a3 	rbit	r2, r3
 8005146:	f507 7300 	add.w	r3, r7, #512	; 0x200
 800514a:	f5a3 73ee 	sub.w	r3, r3, #476	; 0x1dc
 800514e:	601a      	str	r2, [r3, #0]
  return result;
 8005150:	f507 7300 	add.w	r3, r7, #512	; 0x200
 8005154:	f5a3 73ee 	sub.w	r3, r3, #476	; 0x1dc
 8005158:	681b      	ldr	r3, [r3, #0]
        while(__HAL_RCC_GET_FLAG(RCC_FLAG_PLLRDY)  != RESET)
 800515a:	fab3 f383 	clz	r3, r3
 800515e:	b2db      	uxtb	r3, r3
 8005160:	095b      	lsrs	r3, r3, #5
 8005162:	b2db      	uxtb	r3, r3
 8005164:	f043 0301 	orr.w	r3, r3, #1
 8005168:	b2db      	uxtb	r3, r3
 800516a:	2b01      	cmp	r3, #1
 800516c:	d104      	bne.n	8005178 <HAL_RCC_OscConfig+0xf7c>
 800516e:	4b01      	ldr	r3, [pc, #4]	; (8005174 <HAL_RCC_OscConfig+0xf78>)
 8005170:	681b      	ldr	r3, [r3, #0]
 8005172:	e029      	b.n	80051c8 <HAL_RCC_OscConfig+0xfcc>
 8005174:	40021000 	.word	0x40021000
 8005178:	f507 7300 	add.w	r3, r7, #512	; 0x200
 800517c:	f5a3 73f0 	sub.w	r3, r3, #480	; 0x1e0
 8005180:	f04f 7200 	mov.w	r2, #33554432	; 0x2000000
 8005184:	601a      	str	r2, [r3, #0]
   __ASM volatile ("rbit %0, %1" : "=r" (result) : "r" (value) );
 8005186:	f507 7300 	add.w	r3, r7, #512	; 0x200
 800518a:	f5a3 73f0 	sub.w	r3, r3, #480	; 0x1e0
 800518e:	681b      	ldr	r3, [r3, #0]
 8005190:	fa93 f2a3 	rbit	r2, r3
 8005194:	f507 7300 	add.w	r3, r7, #512	; 0x200
 8005198:	f5a3 73f2 	sub.w	r3, r3, #484	; 0x1e4
 800519c:	601a      	str	r2, [r3, #0]
 800519e:	f507 7300 	add.w	r3, r7, #512	; 0x200
 80051a2:	f5a3 73f4 	sub.w	r3, r3, #488	; 0x1e8
 80051a6:	f04f 7200 	mov.w	r2, #33554432	; 0x2000000
 80051aa:	601a      	str	r2, [r3, #0]
 80051ac:	f507 7300 	add.w	r3, r7, #512	; 0x200
 80051b0:	f5a3 73f4 	sub.w	r3, r3, #488	; 0x1e8
 80051b4:	681b      	ldr	r3, [r3, #0]
 80051b6:	fa93 f2a3 	rbit	r2, r3
 80051ba:	f507 7300 	add.w	r3, r7, #512	; 0x200
 80051be:	f5a3 73f6 	sub.w	r3, r3, #492	; 0x1ec
 80051c2:	601a      	str	r2, [r3, #0]
 80051c4:	4b2b      	ldr	r3, [pc, #172]	; (8005274 <HAL_RCC_OscConfig+0x1078>)
 80051c6:	6a5b      	ldr	r3, [r3, #36]	; 0x24
 80051c8:	f507 7200 	add.w	r2, r7, #512	; 0x200
 80051cc:	f5a2 72f8 	sub.w	r2, r2, #496	; 0x1f0
 80051d0:	f04f 7100 	mov.w	r1, #33554432	; 0x2000000
 80051d4:	6011      	str	r1, [r2, #0]
 80051d6:	f507 7200 	add.w	r2, r7, #512	; 0x200
 80051da:	f5a2 72f8 	sub.w	r2, r2, #496	; 0x1f0
 80051de:	6812      	ldr	r2, [r2, #0]
 80051e0:	fa92 f1a2 	rbit	r1, r2
 80051e4:	f507 7200 	add.w	r2, r7, #512	; 0x200
 80051e8:	f5a2 72fa 	sub.w	r2, r2, #500	; 0x1f4
 80051ec:	6011      	str	r1, [r2, #0]
  return result;
 80051ee:	f507 7200 	add.w	r2, r7, #512	; 0x200
 80051f2:	f5a2 72fa 	sub.w	r2, r2, #500	; 0x1f4
 80051f6:	6812      	ldr	r2, [r2, #0]
 80051f8:	fab2 f282 	clz	r2, r2
 80051fc:	b2d2      	uxtb	r2, r2
 80051fe:	f042 0220 	orr.w	r2, r2, #32
 8005202:	b2d2      	uxtb	r2, r2
 8005204:	f002 021f 	and.w	r2, r2, #31
 8005208:	2101      	movs	r1, #1
 800520a:	fa01 f202 	lsl.w	r2, r1, r2
 800520e:	4013      	ands	r3, r2
 8005210:	2b00      	cmp	r3, #0
 8005212:	d180      	bne.n	8005116 <HAL_RCC_OscConfig+0xf1a>
 8005214:	e027      	b.n	8005266 <HAL_RCC_OscConfig+0x106a>
      }
    }
    else
    {
      /* Check if there is a request to disable the PLL used as System clock source */
      if((RCC_OscInitStruct->PLL.PLLState) == RCC_PLL_OFF)
 8005216:	f507 7300 	add.w	r3, r7, #512	; 0x200
 800521a:	f5a3 73fe 	sub.w	r3, r3, #508	; 0x1fc
 800521e:	681b      	ldr	r3, [r3, #0]
 8005220:	69db      	ldr	r3, [r3, #28]
 8005222:	2b01      	cmp	r3, #1
 8005224:	d101      	bne.n	800522a <HAL_RCC_OscConfig+0x102e>
      {
        return HAL_ERROR;
 8005226:	2301      	movs	r3, #1
 8005228:	e01e      	b.n	8005268 <HAL_RCC_OscConfig+0x106c>
      }
      else
      {
        /* Do not return HAL_ERROR if request repeats the current configuration */
        pll_config = RCC->CFGR;
 800522a:	4b12      	ldr	r3, [pc, #72]	; (8005274 <HAL_RCC_OscConfig+0x1078>)
 800522c:	685b      	ldr	r3, [r3, #4]
 800522e:	f8c7 31f4 	str.w	r3, [r7, #500]	; 0x1f4
        pll_config2 = RCC->CFGR2;
        if((READ_BIT(pll_config, RCC_CFGR_PLLSRC)   != RCC_OscInitStruct->PLL.PLLSource) ||      
           (READ_BIT(pll_config, RCC_CFGR_PLLMUL)   != RCC_OscInitStruct->PLL.PLLMUL)    ||      
           (READ_BIT(pll_config2, RCC_CFGR2_PREDIV)  != RCC_OscInitStruct->PLL.PREDIV))     
#else
        if((READ_BIT(pll_config, RCC_CFGR_PLLSRC)   != RCC_OscInitStruct->PLL.PLLSource) ||      
 8005232:	f8d7 31f4 	ldr.w	r3, [r7, #500]	; 0x1f4
 8005236:	f403 3280 	and.w	r2, r3, #65536	; 0x10000
 800523a:	f507 7300 	add.w	r3, r7, #512	; 0x200
 800523e:	f5a3 73fe 	sub.w	r3, r3, #508	; 0x1fc
 8005242:	681b      	ldr	r3, [r3, #0]
 8005244:	6a1b      	ldr	r3, [r3, #32]
 8005246:	429a      	cmp	r2, r3
 8005248:	d10b      	bne.n	8005262 <HAL_RCC_OscConfig+0x1066>
           (READ_BIT(pll_config, RCC_CFGR_PLLMUL)   != RCC_OscInitStruct->PLL.PLLMUL))
 800524a:	f8d7 31f4 	ldr.w	r3, [r7, #500]	; 0x1f4
 800524e:	f403 1270 	and.w	r2, r3, #3932160	; 0x3c0000
 8005252:	f507 7300 	add.w	r3, r7, #512	; 0x200
 8005256:	f5a3 73fe 	sub.w	r3, r3, #508	; 0x1fc
 800525a:	681b      	ldr	r3, [r3, #0]
 800525c:	6a5b      	ldr	r3, [r3, #36]	; 0x24
        if((READ_BIT(pll_config, RCC_CFGR_PLLSRC)   != RCC_OscInitStruct->PLL.PLLSource) ||      
 800525e:	429a      	cmp	r2, r3
 8005260:	d001      	beq.n	8005266 <HAL_RCC_OscConfig+0x106a>
#endif
        {
          return HAL_ERROR;
 8005262:	2301      	movs	r3, #1
 8005264:	e000      	b.n	8005268 <HAL_RCC_OscConfig+0x106c>
        }
      }
    }
  }

  return HAL_OK;
 8005266:	2300      	movs	r3, #0
}
 8005268:	4618      	mov	r0, r3
 800526a:	f507 7700 	add.w	r7, r7, #512	; 0x200
 800526e:	46bd      	mov	sp, r7
 8005270:	bd80      	pop	{r7, pc}
 8005272:	bf00      	nop
 8005274:	40021000 	.word	0x40021000

08005278 <HAL_RCC_ClockConfig>:
  *         You can use @ref HAL_RCC_GetClockConfig() function to know which clock is
  *         currently used as system clock source.
  * @retval HAL status
  */
HAL_StatusTypeDef HAL_RCC_ClockConfig(RCC_ClkInitTypeDef  *RCC_ClkInitStruct, uint32_t FLatency)
{
 8005278:	b580      	push	{r7, lr}
 800527a:	b09e      	sub	sp, #120	; 0x78
 800527c:	af00      	add	r7, sp, #0
 800527e:	6078      	str	r0, [r7, #4]
 8005280:	6039      	str	r1, [r7, #0]
  uint32_t tickstart = 0U;
 8005282:	2300      	movs	r3, #0
 8005284:	677b      	str	r3, [r7, #116]	; 0x74

  /* Check Null pointer */
  if(RCC_ClkInitStruct == NULL)
 8005286:	687b      	ldr	r3, [r7, #4]
 8005288:	2b00      	cmp	r3, #0
 800528a:	d101      	bne.n	8005290 <HAL_RCC_ClockConfig+0x18>
  {
    return HAL_ERROR;
 800528c:	2301      	movs	r3, #1
 800528e:	e162      	b.n	8005556 <HAL_RCC_ClockConfig+0x2de>
  /* To correctly read data from FLASH memory, the number of wait states (LATENCY) 
  must be correctly programmed according to the frequency of the CPU clock 
    (HCLK) of the device. */

  /* Increasing the number of wait states because of higher CPU frequency */
  if(FLatency > __HAL_FLASH_GET_LATENCY())
 8005290:	4b90      	ldr	r3, [pc, #576]	; (80054d4 <HAL_RCC_ClockConfig+0x25c>)
 8005292:	681b      	ldr	r3, [r3, #0]
 8005294:	f003 0307 	and.w	r3, r3, #7
 8005298:	683a      	ldr	r2, [r7, #0]
 800529a:	429a      	cmp	r2, r3
 800529c:	d910      	bls.n	80052c0 <HAL_RCC_ClockConfig+0x48>
  {    
    /* Program the new number of wait states to the LATENCY bits in the FLASH_ACR register */
    __HAL_FLASH_SET_LATENCY(FLatency);
 800529e:	4b8d      	ldr	r3, [pc, #564]	; (80054d4 <HAL_RCC_ClockConfig+0x25c>)
 80052a0:	681b      	ldr	r3, [r3, #0]
 80052a2:	f023 0207 	bic.w	r2, r3, #7
 80052a6:	498b      	ldr	r1, [pc, #556]	; (80054d4 <HAL_RCC_ClockConfig+0x25c>)
 80052a8:	683b      	ldr	r3, [r7, #0]
 80052aa:	4313      	orrs	r3, r2
 80052ac:	600b      	str	r3, [r1, #0]
    
    /* Check that the new number of wait states is taken into account to access the Flash
    memory by reading the FLASH_ACR register */
    if(__HAL_FLASH_GET_LATENCY() != FLatency)
 80052ae:	4b89      	ldr	r3, [pc, #548]	; (80054d4 <HAL_RCC_ClockConfig+0x25c>)
 80052b0:	681b      	ldr	r3, [r3, #0]
 80052b2:	f003 0307 	and.w	r3, r3, #7
 80052b6:	683a      	ldr	r2, [r7, #0]
 80052b8:	429a      	cmp	r2, r3
 80052ba:	d001      	beq.n	80052c0 <HAL_RCC_ClockConfig+0x48>
    {
      return HAL_ERROR;
 80052bc:	2301      	movs	r3, #1
 80052be:	e14a      	b.n	8005556 <HAL_RCC_ClockConfig+0x2de>
    }
  }

  /*-------------------------- HCLK Configuration --------------------------*/
  if(((RCC_ClkInitStruct->ClockType) & RCC_CLOCKTYPE_HCLK) == RCC_CLOCKTYPE_HCLK)
 80052c0:	687b      	ldr	r3, [r7, #4]
 80052c2:	681b      	ldr	r3, [r3, #0]
 80052c4:	f003 0302 	and.w	r3, r3, #2
 80052c8:	2b00      	cmp	r3, #0
 80052ca:	d008      	beq.n	80052de <HAL_RCC_ClockConfig+0x66>
  {
    assert_param(IS_RCC_HCLK(RCC_ClkInitStruct->AHBCLKDivider));
    MODIFY_REG(RCC->CFGR, RCC_CFGR_HPRE, RCC_ClkInitStruct->AHBCLKDivider);
 80052cc:	4b82      	ldr	r3, [pc, #520]	; (80054d8 <HAL_RCC_ClockConfig+0x260>)
 80052ce:	685b      	ldr	r3, [r3, #4]
 80052d0:	f023 02f0 	bic.w	r2, r3, #240	; 0xf0
 80052d4:	687b      	ldr	r3, [r7, #4]
 80052d6:	689b      	ldr	r3, [r3, #8]
 80052d8:	497f      	ldr	r1, [pc, #508]	; (80054d8 <HAL_RCC_ClockConfig+0x260>)
 80052da:	4313      	orrs	r3, r2
 80052dc:	604b      	str	r3, [r1, #4]
  }

  /*------------------------- SYSCLK Configuration ---------------------------*/ 
  if(((RCC_ClkInitStruct->ClockType) & RCC_CLOCKTYPE_SYSCLK) == RCC_CLOCKTYPE_SYSCLK)
 80052de:	687b      	ldr	r3, [r7, #4]
 80052e0:	681b      	ldr	r3, [r3, #0]
 80052e2:	f003 0301 	and.w	r3, r3, #1
 80052e6:	2b00      	cmp	r3, #0
 80052e8:	f000 80dc 	beq.w	80054a4 <HAL_RCC_ClockConfig+0x22c>
  {    
    assert_param(IS_RCC_SYSCLKSOURCE(RCC_ClkInitStruct->SYSCLKSource));
    
    /* HSE is selected as System Clock Source */
    if(RCC_ClkInitStruct->SYSCLKSource == RCC_SYSCLKSOURCE_HSE)
 80052ec:	687b      	ldr	r3, [r7, #4]
 80052ee:	685b      	ldr	r3, [r3, #4]
 80052f0:	2b01      	cmp	r3, #1
 80052f2:	d13c      	bne.n	800536e <HAL_RCC_ClockConfig+0xf6>
 80052f4:	f44f 3300 	mov.w	r3, #131072	; 0x20000
 80052f8:	673b      	str	r3, [r7, #112]	; 0x70
   __ASM volatile ("rbit %0, %1" : "=r" (result) : "r" (value) );
 80052fa:	6f3b      	ldr	r3, [r7, #112]	; 0x70
 80052fc:	fa93 f3a3 	rbit	r3, r3
 8005300:	66fb      	str	r3, [r7, #108]	; 0x6c
  return result;
 8005302:	6efb      	ldr	r3, [r7, #108]	; 0x6c
    {
      /* Check the HSE ready flag */  
      if(__HAL_RCC_GET_FLAG(RCC_FLAG_HSERDY) == RESET)
 8005304:	fab3 f383 	clz	r3, r3
 8005308:	b2db      	uxtb	r3, r3
 800530a:	095b      	lsrs	r3, r3, #5
 800530c:	b2db      	uxtb	r3, r3
 800530e:	f043 0301 	orr.w	r3, r3, #1
 8005312:	b2db      	uxtb	r3, r3
 8005314:	2b01      	cmp	r3, #1
 8005316:	d102      	bne.n	800531e <HAL_RCC_ClockConfig+0xa6>
 8005318:	4b6f      	ldr	r3, [pc, #444]	; (80054d8 <HAL_RCC_ClockConfig+0x260>)
 800531a:	681b      	ldr	r3, [r3, #0]
 800531c:	e00f      	b.n	800533e <HAL_RCC_ClockConfig+0xc6>
 800531e:	f44f 3300 	mov.w	r3, #131072	; 0x20000
 8005322:	66bb      	str	r3, [r7, #104]	; 0x68
   __ASM volatile ("rbit %0, %1" : "=r" (result) : "r" (value) );
 8005324:	6ebb      	ldr	r3, [r7, #104]	; 0x68
 8005326:	fa93 f3a3 	rbit	r3, r3
 800532a:	667b      	str	r3, [r7, #100]	; 0x64
 800532c:	f44f 3300 	mov.w	r3, #131072	; 0x20000
 8005330:	663b      	str	r3, [r7, #96]	; 0x60
 8005332:	6e3b      	ldr	r3, [r7, #96]	; 0x60
 8005334:	fa93 f3a3 	rbit	r3, r3
 8005338:	65fb      	str	r3, [r7, #92]	; 0x5c
 800533a:	4b67      	ldr	r3, [pc, #412]	; (80054d8 <HAL_RCC_ClockConfig+0x260>)
 800533c:	6a5b      	ldr	r3, [r3, #36]	; 0x24
 800533e:	f44f 3200 	mov.w	r2, #131072	; 0x20000
 8005342:	65ba      	str	r2, [r7, #88]	; 0x58
 8005344:	6dba      	ldr	r2, [r7, #88]	; 0x58
 8005346:	fa92 f2a2 	rbit	r2, r2
 800534a:	657a      	str	r2, [r7, #84]	; 0x54
  return result;
 800534c:	6d7a      	ldr	r2, [r7, #84]	; 0x54
 800534e:	fab2 f282 	clz	r2, r2
 8005352:	b2d2      	uxtb	r2, r2
 8005354:	f042 0220 	orr.w	r2, r2, #32
 8005358:	b2d2      	uxtb	r2, r2
 800535a:	f002 021f 	and.w	r2, r2, #31
 800535e:	2101      	movs	r1, #1
 8005360:	fa01 f202 	lsl.w	r2, r1, r2
 8005364:	4013      	ands	r3, r2
 8005366:	2b00      	cmp	r3, #0
 8005368:	d17b      	bne.n	8005462 <HAL_RCC_ClockConfig+0x1ea>
      {
        return HAL_ERROR;
 800536a:	2301      	movs	r3, #1
 800536c:	e0f3      	b.n	8005556 <HAL_RCC_ClockConfig+0x2de>
      }
    }
    /* PLL is selected as System Clock Source */
    else if(RCC_ClkInitStruct->SYSCLKSource == RCC_SYSCLKSOURCE_PLLCLK)
 800536e:	687b      	ldr	r3, [r7, #4]
 8005370:	685b      	ldr	r3, [r3, #4]
 8005372:	2b02      	cmp	r3, #2
 8005374:	d13c      	bne.n	80053f0 <HAL_RCC_ClockConfig+0x178>
 8005376:	f04f 7300 	mov.w	r3, #33554432	; 0x2000000
 800537a:	653b      	str	r3, [r7, #80]	; 0x50
   __ASM volatile ("rbit %0, %1" : "=r" (result) : "r" (value) );
 800537c:	6d3b      	ldr	r3, [r7, #80]	; 0x50
 800537e:	fa93 f3a3 	rbit	r3, r3
 8005382:	64fb      	str	r3, [r7, #76]	; 0x4c
  return result;
 8005384:	6cfb      	ldr	r3, [r7, #76]	; 0x4c
    {
      /* Check the PLL ready flag */  
      if(__HAL_RCC_GET_FLAG(RCC_FLAG_PLLRDY) == RESET)
 8005386:	fab3 f383 	clz	r3, r3
 800538a:	b2db      	uxtb	r3, r3
 800538c:	095b      	lsrs	r3, r3, #5
 800538e:	b2db      	uxtb	r3, r3
 8005390:	f043 0301 	orr.w	r3, r3, #1
 8005394:	b2db      	uxtb	r3, r3
 8005396:	2b01      	cmp	r3, #1
 8005398:	d102      	bne.n	80053a0 <HAL_RCC_ClockConfig+0x128>
 800539a:	4b4f      	ldr	r3, [pc, #316]	; (80054d8 <HAL_RCC_ClockConfig+0x260>)
 800539c:	681b      	ldr	r3, [r3, #0]
 800539e:	e00f      	b.n	80053c0 <HAL_RCC_ClockConfig+0x148>
 80053a0:	f04f 7300 	mov.w	r3, #33554432	; 0x2000000
 80053a4:	64bb      	str	r3, [r7, #72]	; 0x48
   __ASM volatile ("rbit %0, %1" : "=r" (result) : "r" (value) );
 80053a6:	6cbb      	ldr	r3, [r7, #72]	; 0x48
 80053a8:	fa93 f3a3 	rbit	r3, r3
 80053ac:	647b      	str	r3, [r7, #68]	; 0x44
 80053ae:	f04f 7300 	mov.w	r3, #33554432	; 0x2000000
 80053b2:	643b      	str	r3, [r7, #64]	; 0x40
 80053b4:	6c3b      	ldr	r3, [r7, #64]	; 0x40
 80053b6:	fa93 f3a3 	rbit	r3, r3
 80053ba:	63fb      	str	r3, [r7, #60]	; 0x3c
 80053bc:	4b46      	ldr	r3, [pc, #280]	; (80054d8 <HAL_RCC_ClockConfig+0x260>)
 80053be:	6a5b      	ldr	r3, [r3, #36]	; 0x24
 80053c0:	f04f 7200 	mov.w	r2, #33554432	; 0x2000000
 80053c4:	63ba      	str	r2, [r7, #56]	; 0x38
 80053c6:	6bba      	ldr	r2, [r7, #56]	; 0x38
 80053c8:	fa92 f2a2 	rbit	r2, r2
 80053cc:	637a      	str	r2, [r7, #52]	; 0x34
  return result;
 80053ce:	6b7a      	ldr	r2, [r7, #52]	; 0x34
 80053d0:	fab2 f282 	clz	r2, r2
 80053d4:	b2d2      	uxtb	r2, r2
 80053d6:	f042 0220 	orr.w	r2, r2, #32
 80053da:	b2d2      	uxtb	r2, r2
 80053dc:	f002 021f 	and.w	r2, r2, #31
 80053e0:	2101      	movs	r1, #1
 80053e2:	fa01 f202 	lsl.w	r2, r1, r2
 80053e6:	4013      	ands	r3, r2
 80053e8:	2b00      	cmp	r3, #0
 80053ea:	d13a      	bne.n	8005462 <HAL_RCC_ClockConfig+0x1ea>
      {
        return HAL_ERROR;
 80053ec:	2301      	movs	r3, #1
 80053ee:	e0b2      	b.n	8005556 <HAL_RCC_ClockConfig+0x2de>
 80053f0:	2302      	movs	r3, #2
 80053f2:	633b      	str	r3, [r7, #48]	; 0x30
   __ASM volatile ("rbit %0, %1" : "=r" (result) : "r" (value) );
 80053f4:	6b3b      	ldr	r3, [r7, #48]	; 0x30
 80053f6:	fa93 f3a3 	rbit	r3, r3
 80053fa:	62fb      	str	r3, [r7, #44]	; 0x2c
  return result;
 80053fc:	6afb      	ldr	r3, [r7, #44]	; 0x2c
    }
    /* HSI is selected as System Clock Source */
    else
    {
      /* Check the HSI ready flag */  
      if(__HAL_RCC_GET_FLAG(RCC_FLAG_HSIRDY) == RESET)
 80053fe:	fab3 f383 	clz	r3, r3
 8005402:	b2db      	uxtb	r3, r3
 8005404:	095b      	lsrs	r3, r3, #5
 8005406:	b2db      	uxtb	r3, r3
 8005408:	f043 0301 	orr.w	r3, r3, #1
 800540c:	b2db      	uxtb	r3, r3
 800540e:	2b01      	cmp	r3, #1
 8005410:	d102      	bne.n	8005418 <HAL_RCC_ClockConfig+0x1a0>
 8005412:	4b31      	ldr	r3, [pc, #196]	; (80054d8 <HAL_RCC_ClockConfig+0x260>)
 8005414:	681b      	ldr	r3, [r3, #0]
 8005416:	e00d      	b.n	8005434 <HAL_RCC_ClockConfig+0x1bc>
 8005418:	2302      	movs	r3, #2
 800541a:	62bb      	str	r3, [r7, #40]	; 0x28
   __ASM volatile ("rbit %0, %1" : "=r" (result) : "r" (value) );
 800541c:	6abb      	ldr	r3, [r7, #40]	; 0x28
 800541e:	fa93 f3a3 	rbit	r3, r3
 8005422:	627b      	str	r3, [r7, #36]	; 0x24
 8005424:	2302      	movs	r3, #2
 8005426:	623b      	str	r3, [r7, #32]
 8005428:	6a3b      	ldr	r3, [r7, #32]
 800542a:	fa93 f3a3 	rbit	r3, r3
 800542e:	61fb      	str	r3, [r7, #28]
 8005430:	4b29      	ldr	r3, [pc, #164]	; (80054d8 <HAL_RCC_ClockConfig+0x260>)
 8005432:	6a5b      	ldr	r3, [r3, #36]	; 0x24
 8005434:	2202      	movs	r2, #2
 8005436:	61ba      	str	r2, [r7, #24]
 8005438:	69ba      	ldr	r2, [r7, #24]
 800543a:	fa92 f2a2 	rbit	r2, r2
 800543e:	617a      	str	r2, [r7, #20]
  return result;
 8005440:	697a      	ldr	r2, [r7, #20]
 8005442:	fab2 f282 	clz	r2, r2
 8005446:	b2d2      	uxtb	r2, r2
 8005448:	f042 0220 	orr.w	r2, r2, #32
 800544c:	b2d2      	uxtb	r2, r2
 800544e:	f002 021f 	and.w	r2, r2, #31
 8005452:	2101      	movs	r1, #1
 8005454:	fa01 f202 	lsl.w	r2, r1, r2
 8005458:	4013      	ands	r3, r2
 800545a:	2b00      	cmp	r3, #0
 800545c:	d101      	bne.n	8005462 <HAL_RCC_ClockConfig+0x1ea>
      {
        return HAL_ERROR;
 800545e:	2301      	movs	r3, #1
 8005460:	e079      	b.n	8005556 <HAL_RCC_ClockConfig+0x2de>
      }
    }

    __HAL_RCC_SYSCLK_CONFIG(RCC_ClkInitStruct->SYSCLKSource);
 8005462:	4b1d      	ldr	r3, [pc, #116]	; (80054d8 <HAL_RCC_ClockConfig+0x260>)
 8005464:	685b      	ldr	r3, [r3, #4]
 8005466:	f023 0203 	bic.w	r2, r3, #3
 800546a:	687b      	ldr	r3, [r7, #4]
 800546c:	685b      	ldr	r3, [r3, #4]
 800546e:	491a      	ldr	r1, [pc, #104]	; (80054d8 <HAL_RCC_ClockConfig+0x260>)
 8005470:	4313      	orrs	r3, r2
 8005472:	604b      	str	r3, [r1, #4]

    /* Get Start Tick */
    tickstart = HAL_GetTick();
 8005474:	f7fd fcf6 	bl	8002e64 <HAL_GetTick>
 8005478:	6778      	str	r0, [r7, #116]	; 0x74
    
    while (__HAL_RCC_GET_SYSCLK_SOURCE() != (RCC_ClkInitStruct->SYSCLKSource << RCC_CFGR_SWS_Pos))
 800547a:	e00a      	b.n	8005492 <HAL_RCC_ClockConfig+0x21a>
    {
      if ((HAL_GetTick() - tickstart) > CLOCKSWITCH_TIMEOUT_VALUE)
 800547c:	f7fd fcf2 	bl	8002e64 <HAL_GetTick>
 8005480:	4602      	mov	r2, r0
 8005482:	6f7b      	ldr	r3, [r7, #116]	; 0x74
 8005484:	1ad3      	subs	r3, r2, r3
 8005486:	f241 3288 	movw	r2, #5000	; 0x1388
 800548a:	4293      	cmp	r3, r2
 800548c:	d901      	bls.n	8005492 <HAL_RCC_ClockConfig+0x21a>
      {
        return HAL_TIMEOUT;
 800548e:	2303      	movs	r3, #3
 8005490:	e061      	b.n	8005556 <HAL_RCC_ClockConfig+0x2de>
    while (__HAL_RCC_GET_SYSCLK_SOURCE() != (RCC_ClkInitStruct->SYSCLKSource << RCC_CFGR_SWS_Pos))
 8005492:	4b11      	ldr	r3, [pc, #68]	; (80054d8 <HAL_RCC_ClockConfig+0x260>)
 8005494:	685b      	ldr	r3, [r3, #4]
 8005496:	f003 020c 	and.w	r2, r3, #12
 800549a:	687b      	ldr	r3, [r7, #4]
 800549c:	685b      	ldr	r3, [r3, #4]
 800549e:	009b      	lsls	r3, r3, #2
 80054a0:	429a      	cmp	r2, r3
 80054a2:	d1eb      	bne.n	800547c <HAL_RCC_ClockConfig+0x204>
      }
    }
  }
  /* Decreasing the number of wait states because of lower CPU frequency */
  if(FLatency < __HAL_FLASH_GET_LATENCY())
 80054a4:	4b0b      	ldr	r3, [pc, #44]	; (80054d4 <HAL_RCC_ClockConfig+0x25c>)
 80054a6:	681b      	ldr	r3, [r3, #0]
 80054a8:	f003 0307 	and.w	r3, r3, #7
 80054ac:	683a      	ldr	r2, [r7, #0]
 80054ae:	429a      	cmp	r2, r3
 80054b0:	d214      	bcs.n	80054dc <HAL_RCC_ClockConfig+0x264>
  {    
    /* Program the new number of wait states to the LATENCY bits in the FLASH_ACR register */
    __HAL_FLASH_SET_LATENCY(FLatency);
 80054b2:	4b08      	ldr	r3, [pc, #32]	; (80054d4 <HAL_RCC_ClockConfig+0x25c>)
 80054b4:	681b      	ldr	r3, [r3, #0]
 80054b6:	f023 0207 	bic.w	r2, r3, #7
 80054ba:	4906      	ldr	r1, [pc, #24]	; (80054d4 <HAL_RCC_ClockConfig+0x25c>)
 80054bc:	683b      	ldr	r3, [r7, #0]
 80054be:	4313      	orrs	r3, r2
 80054c0:	600b      	str	r3, [r1, #0]
    
    /* Check that the new number of wait states is taken into account to access the Flash
    memory by reading the FLASH_ACR register */
    if(__HAL_FLASH_GET_LATENCY() != FLatency)
 80054c2:	4b04      	ldr	r3, [pc, #16]	; (80054d4 <HAL_RCC_ClockConfig+0x25c>)
 80054c4:	681b      	ldr	r3, [r3, #0]
 80054c6:	f003 0307 	and.w	r3, r3, #7
 80054ca:	683a      	ldr	r2, [r7, #0]
 80054cc:	429a      	cmp	r2, r3
 80054ce:	d005      	beq.n	80054dc <HAL_RCC_ClockConfig+0x264>
    {
      return HAL_ERROR;
 80054d0:	2301      	movs	r3, #1
 80054d2:	e040      	b.n	8005556 <HAL_RCC_ClockConfig+0x2de>
 80054d4:	40022000 	.word	0x40022000
 80054d8:	40021000 	.word	0x40021000
    }
  }    

  /*-------------------------- PCLK1 Configuration ---------------------------*/ 
  if(((RCC_ClkInitStruct->ClockType) & RCC_CLOCKTYPE_PCLK1) == RCC_CLOCKTYPE_PCLK1)
 80054dc:	687b      	ldr	r3, [r7, #4]
 80054de:	681b      	ldr	r3, [r3, #0]
 80054e0:	f003 0304 	and.w	r3, r3, #4
 80054e4:	2b00      	cmp	r3, #0
 80054e6:	d008      	beq.n	80054fa <HAL_RCC_ClockConfig+0x282>
  {
    assert_param(IS_RCC_PCLK(RCC_ClkInitStruct->APB1CLKDivider));
    MODIFY_REG(RCC->CFGR, RCC_CFGR_PPRE1, RCC_ClkInitStruct->APB1CLKDivider);
 80054e8:	4b1d      	ldr	r3, [pc, #116]	; (8005560 <HAL_RCC_ClockConfig+0x2e8>)
 80054ea:	685b      	ldr	r3, [r3, #4]
 80054ec:	f423 62e0 	bic.w	r2, r3, #1792	; 0x700
 80054f0:	687b      	ldr	r3, [r7, #4]
 80054f2:	68db      	ldr	r3, [r3, #12]
 80054f4:	491a      	ldr	r1, [pc, #104]	; (8005560 <HAL_RCC_ClockConfig+0x2e8>)
 80054f6:	4313      	orrs	r3, r2
 80054f8:	604b      	str	r3, [r1, #4]
  }
  
  /*-------------------------- PCLK2 Configuration ---------------------------*/ 
  if(((RCC_ClkInitStruct->ClockType) & RCC_CLOCKTYPE_PCLK2) == RCC_CLOCKTYPE_PCLK2)
 80054fa:	687b      	ldr	r3, [r7, #4]
 80054fc:	681b      	ldr	r3, [r3, #0]
 80054fe:	f003 0308 	and.w	r3, r3, #8
 8005502:	2b00      	cmp	r3, #0
 8005504:	d009      	beq.n	800551a <HAL_RCC_ClockConfig+0x2a2>
  {
    assert_param(IS_RCC_PCLK(RCC_ClkInitStruct->APB2CLKDivider));
    MODIFY_REG(RCC->CFGR, RCC_CFGR_PPRE2, ((RCC_ClkInitStruct->APB2CLKDivider) << 3U));
 8005506:	4b16      	ldr	r3, [pc, #88]	; (8005560 <HAL_RCC_ClockConfig+0x2e8>)
 8005508:	685b      	ldr	r3, [r3, #4]
 800550a:	f423 5260 	bic.w	r2, r3, #14336	; 0x3800
 800550e:	687b      	ldr	r3, [r7, #4]
 8005510:	691b      	ldr	r3, [r3, #16]
 8005512:	00db      	lsls	r3, r3, #3
 8005514:	4912      	ldr	r1, [pc, #72]	; (8005560 <HAL_RCC_ClockConfig+0x2e8>)
 8005516:	4313      	orrs	r3, r2
 8005518:	604b      	str	r3, [r1, #4]
  }
 
  /* Update the SystemCoreClock global variable */
  SystemCoreClock = HAL_RCC_GetSysClockFreq() >> AHBPrescTable[(RCC->CFGR & RCC_CFGR_HPRE)>> RCC_CFGR_HPRE_BITNUMBER];
 800551a:	f000 f829 	bl	8005570 <HAL_RCC_GetSysClockFreq>
 800551e:	4601      	mov	r1, r0
 8005520:	4b0f      	ldr	r3, [pc, #60]	; (8005560 <HAL_RCC_ClockConfig+0x2e8>)
 8005522:	685b      	ldr	r3, [r3, #4]
 8005524:	f003 03f0 	and.w	r3, r3, #240	; 0xf0
 8005528:	22f0      	movs	r2, #240	; 0xf0
 800552a:	613a      	str	r2, [r7, #16]
   __ASM volatile ("rbit %0, %1" : "=r" (result) : "r" (value) );
 800552c:	693a      	ldr	r2, [r7, #16]
 800552e:	fa92 f2a2 	rbit	r2, r2
 8005532:	60fa      	str	r2, [r7, #12]
  return result;
 8005534:	68fa      	ldr	r2, [r7, #12]
 8005536:	fab2 f282 	clz	r2, r2
 800553a:	b2d2      	uxtb	r2, r2
 800553c:	40d3      	lsrs	r3, r2
 800553e:	4a09      	ldr	r2, [pc, #36]	; (8005564 <HAL_RCC_ClockConfig+0x2ec>)
 8005540:	5cd3      	ldrb	r3, [r2, r3]
 8005542:	fa21 f303 	lsr.w	r3, r1, r3
 8005546:	4a08      	ldr	r2, [pc, #32]	; (8005568 <HAL_RCC_ClockConfig+0x2f0>)
 8005548:	6013      	str	r3, [r2, #0]

  /* Configure the source of time base considering new system clocks settings*/
  HAL_InitTick (uwTickPrio);
 800554a:	4b08      	ldr	r3, [pc, #32]	; (800556c <HAL_RCC_ClockConfig+0x2f4>)
 800554c:	681b      	ldr	r3, [r3, #0]
 800554e:	4618      	mov	r0, r3
 8005550:	f7fd fc44 	bl	8002ddc <HAL_InitTick>
  
  return HAL_OK;
 8005554:	2300      	movs	r3, #0
}
 8005556:	4618      	mov	r0, r3
 8005558:	3778      	adds	r7, #120	; 0x78
 800555a:	46bd      	mov	sp, r7
 800555c:	bd80      	pop	{r7, pc}
 800555e:	bf00      	nop
 8005560:	40021000 	.word	0x40021000
 8005564:	0800bca0 	.word	0x0800bca0
 8005568:	20000234 	.word	0x20000234
 800556c:	20000238 	.word	0x20000238

08005570 <HAL_RCC_GetSysClockFreq>:
  *         right SYSCLK value. Otherwise, any configuration based on this function will be incorrect.
  *         
  * @retval SYSCLK frequency
  */
uint32_t HAL_RCC_GetSysClockFreq(void)
{
 8005570:	b480      	push	{r7}
 8005572:	b08b      	sub	sp, #44	; 0x2c
 8005574:	af00      	add	r7, sp, #0
  uint32_t tmpreg = 0U, prediv = 0U, pllclk = 0U, pllmul = 0U;
 8005576:	2300      	movs	r3, #0
 8005578:	61fb      	str	r3, [r7, #28]
 800557a:	2300      	movs	r3, #0
 800557c:	61bb      	str	r3, [r7, #24]
 800557e:	2300      	movs	r3, #0
 8005580:	627b      	str	r3, [r7, #36]	; 0x24
 8005582:	2300      	movs	r3, #0
 8005584:	617b      	str	r3, [r7, #20]
  uint32_t sysclockfreq = 0U;
 8005586:	2300      	movs	r3, #0
 8005588:	623b      	str	r3, [r7, #32]
  
  tmpreg = RCC->CFGR;
 800558a:	4b29      	ldr	r3, [pc, #164]	; (8005630 <HAL_RCC_GetSysClockFreq+0xc0>)
 800558c:	685b      	ldr	r3, [r3, #4]
 800558e:	61fb      	str	r3, [r7, #28]
  
  /* Get SYSCLK source -------------------------------------------------------*/
  switch (tmpreg & RCC_CFGR_SWS)
 8005590:	69fb      	ldr	r3, [r7, #28]
 8005592:	f003 030c 	and.w	r3, r3, #12
 8005596:	2b04      	cmp	r3, #4
 8005598:	d002      	beq.n	80055a0 <HAL_RCC_GetSysClockFreq+0x30>
 800559a:	2b08      	cmp	r3, #8
 800559c:	d003      	beq.n	80055a6 <HAL_RCC_GetSysClockFreq+0x36>
 800559e:	e03c      	b.n	800561a <HAL_RCC_GetSysClockFreq+0xaa>
  {
    case RCC_SYSCLKSOURCE_STATUS_HSE:  /* HSE used as system clock */
    {
      sysclockfreq = HSE_VALUE;
 80055a0:	4b24      	ldr	r3, [pc, #144]	; (8005634 <HAL_RCC_GetSysClockFreq+0xc4>)
 80055a2:	623b      	str	r3, [r7, #32]
      break;
 80055a4:	e03c      	b.n	8005620 <HAL_RCC_GetSysClockFreq+0xb0>
    }
    case RCC_SYSCLKSOURCE_STATUS_PLLCLK:  /* PLL used as system clock */
    {
      pllmul = aPLLMULFactorTable[(uint32_t)(tmpreg & RCC_CFGR_PLLMUL) >> POSITION_VAL(RCC_CFGR_PLLMUL)];
 80055a6:	69fb      	ldr	r3, [r7, #28]
 80055a8:	f403 1370 	and.w	r3, r3, #3932160	; 0x3c0000
 80055ac:	f44f 1270 	mov.w	r2, #3932160	; 0x3c0000
 80055b0:	60ba      	str	r2, [r7, #8]
   __ASM volatile ("rbit %0, %1" : "=r" (result) : "r" (value) );
 80055b2:	68ba      	ldr	r2, [r7, #8]
 80055b4:	fa92 f2a2 	rbit	r2, r2
 80055b8:	607a      	str	r2, [r7, #4]
  return result;
 80055ba:	687a      	ldr	r2, [r7, #4]
 80055bc:	fab2 f282 	clz	r2, r2
 80055c0:	b2d2      	uxtb	r2, r2
 80055c2:	40d3      	lsrs	r3, r2
 80055c4:	4a1c      	ldr	r2, [pc, #112]	; (8005638 <HAL_RCC_GetSysClockFreq+0xc8>)
 80055c6:	5cd3      	ldrb	r3, [r2, r3]
 80055c8:	617b      	str	r3, [r7, #20]
      prediv = aPredivFactorTable[(uint32_t)(RCC->CFGR2 & RCC_CFGR2_PREDIV) >> POSITION_VAL(RCC_CFGR2_PREDIV)];
 80055ca:	4b19      	ldr	r3, [pc, #100]	; (8005630 <HAL_RCC_GetSysClockFreq+0xc0>)
 80055cc:	6adb      	ldr	r3, [r3, #44]	; 0x2c
 80055ce:	f003 030f 	and.w	r3, r3, #15
 80055d2:	220f      	movs	r2, #15
 80055d4:	613a      	str	r2, [r7, #16]
   __ASM volatile ("rbit %0, %1" : "=r" (result) : "r" (value) );
 80055d6:	693a      	ldr	r2, [r7, #16]
 80055d8:	fa92 f2a2 	rbit	r2, r2
 80055dc:	60fa      	str	r2, [r7, #12]
  return result;
 80055de:	68fa      	ldr	r2, [r7, #12]
 80055e0:	fab2 f282 	clz	r2, r2
 80055e4:	b2d2      	uxtb	r2, r2
 80055e6:	40d3      	lsrs	r3, r2
 80055e8:	4a14      	ldr	r2, [pc, #80]	; (800563c <HAL_RCC_GetSysClockFreq+0xcc>)
 80055ea:	5cd3      	ldrb	r3, [r2, r3]
 80055ec:	61bb      	str	r3, [r7, #24]
#if defined(RCC_CFGR_PLLSRC_HSI_DIV2)
      if ((tmpreg & RCC_CFGR_PLLSRC) != RCC_PLLSOURCE_HSI)
 80055ee:	69fb      	ldr	r3, [r7, #28]
 80055f0:	f403 3380 	and.w	r3, r3, #65536	; 0x10000
 80055f4:	2b00      	cmp	r3, #0
 80055f6:	d008      	beq.n	800560a <HAL_RCC_GetSysClockFreq+0x9a>
      {
        /* HSE used as PLL clock source : PLLCLK = HSE/PREDIV * PLLMUL */
        pllclk = (uint32_t)((uint64_t) HSE_VALUE / (uint64_t) (prediv)) * ((uint64_t) pllmul);
 80055f8:	4a0e      	ldr	r2, [pc, #56]	; (8005634 <HAL_RCC_GetSysClockFreq+0xc4>)
 80055fa:	69bb      	ldr	r3, [r7, #24]
 80055fc:	fbb2 f2f3 	udiv	r2, r2, r3
 8005600:	697b      	ldr	r3, [r7, #20]
 8005602:	fb02 f303 	mul.w	r3, r2, r3
 8005606:	627b      	str	r3, [r7, #36]	; 0x24
 8005608:	e004      	b.n	8005614 <HAL_RCC_GetSysClockFreq+0xa4>
      }
      else
      {
        /* HSI used as PLL clock source : PLLCLK = HSI/2 * PLLMUL */
        pllclk = (uint32_t)((uint64_t) (HSI_VALUE >> 1U) * ((uint64_t) pllmul));
 800560a:	697b      	ldr	r3, [r7, #20]
 800560c:	4a0c      	ldr	r2, [pc, #48]	; (8005640 <HAL_RCC_GetSysClockFreq+0xd0>)
 800560e:	fb02 f303 	mul.w	r3, r2, r3
 8005612:	627b      	str	r3, [r7, #36]	; 0x24
      {
        /* HSI used as PLL clock source : PLLCLK = HSI/PREDIV * PLLMUL */
        pllclk = (uint32_t)((uint64_t) HSI_VALUE / (uint64_t) (prediv)) * ((uint64_t) pllmul);
      }
#endif /* RCC_CFGR_PLLSRC_HSI_DIV2 */
      sysclockfreq = pllclk;
 8005614:	6a7b      	ldr	r3, [r7, #36]	; 0x24
 8005616:	623b      	str	r3, [r7, #32]
      break;
 8005618:	e002      	b.n	8005620 <HAL_RCC_GetSysClockFreq+0xb0>
    }
    case RCC_SYSCLKSOURCE_STATUS_HSI:  /* HSI used as system clock source */
    default: /* HSI used as system clock */
    {
      sysclockfreq = HSI_VALUE;
 800561a:	4b06      	ldr	r3, [pc, #24]	; (8005634 <HAL_RCC_GetSysClockFreq+0xc4>)
 800561c:	623b      	str	r3, [r7, #32]
      break;
 800561e:	bf00      	nop
    }
  }
  return sysclockfreq;
 8005620:	6a3b      	ldr	r3, [r7, #32]
}
 8005622:	4618      	mov	r0, r3
 8005624:	372c      	adds	r7, #44	; 0x2c
 8005626:	46bd      	mov	sp, r7
 8005628:	f85d 7b04 	ldr.w	r7, [sp], #4
 800562c:	4770      	bx	lr
 800562e:	bf00      	nop
 8005630:	40021000 	.word	0x40021000
 8005634:	007a1200 	.word	0x007a1200
 8005638:	0800bcb0 	.word	0x0800bcb0
 800563c:	0800bcc0 	.word	0x0800bcc0
 8005640:	003d0900 	.word	0x003d0900

08005644 <HAL_RCCEx_PeriphCLKConfig>:
  *         When the TIMx clock source is PLL clock, so the TIMx clock is PLL clock x 2.
  *
  * @retval HAL status
  */
HAL_StatusTypeDef HAL_RCCEx_PeriphCLKConfig(RCC_PeriphCLKInitTypeDef  *PeriphClkInit)
{
 8005644:	b580      	push	{r7, lr}
 8005646:	b092      	sub	sp, #72	; 0x48
 8005648:	af00      	add	r7, sp, #0
 800564a:	6078      	str	r0, [r7, #4]
  uint32_t tickstart = 0U;
 800564c:	2300      	movs	r3, #0
 800564e:	643b      	str	r3, [r7, #64]	; 0x40
  uint32_t temp_reg = 0U;
 8005650:	2300      	movs	r3, #0
 8005652:	63fb      	str	r3, [r7, #60]	; 0x3c
  FlagStatus       pwrclkchanged = RESET;
 8005654:	2300      	movs	r3, #0
 8005656:	f887 3047 	strb.w	r3, [r7, #71]	; 0x47
    
  /* Check the parameters */
  assert_param(IS_RCC_PERIPHCLOCK(PeriphClkInit->PeriphClockSelection));
  
  /*---------------------------- RTC configuration -------------------------------*/
  if(((PeriphClkInit->PeriphClockSelection) & RCC_PERIPHCLK_RTC) == (RCC_PERIPHCLK_RTC))
 800565a:	687b      	ldr	r3, [r7, #4]
 800565c:	681b      	ldr	r3, [r3, #0]
 800565e:	f403 3380 	and.w	r3, r3, #65536	; 0x10000
 8005662:	2b00      	cmp	r3, #0
 8005664:	f000 80d4 	beq.w	8005810 <HAL_RCCEx_PeriphCLKConfig+0x1cc>


    /* As soon as function is called to change RTC clock source, activation of the 
       power domain is done. */
    /* Requires to enable write access to Backup Domain of necessary */
    if(__HAL_RCC_PWR_IS_CLK_DISABLED())
 8005668:	4b4e      	ldr	r3, [pc, #312]	; (80057a4 <HAL_RCCEx_PeriphCLKConfig+0x160>)
 800566a:	69db      	ldr	r3, [r3, #28]
 800566c:	f003 5380 	and.w	r3, r3, #268435456	; 0x10000000
 8005670:	2b00      	cmp	r3, #0
 8005672:	d10e      	bne.n	8005692 <HAL_RCCEx_PeriphCLKConfig+0x4e>
    {
      __HAL_RCC_PWR_CLK_ENABLE();
 8005674:	4b4b      	ldr	r3, [pc, #300]	; (80057a4 <HAL_RCCEx_PeriphCLKConfig+0x160>)
 8005676:	69db      	ldr	r3, [r3, #28]
 8005678:	4a4a      	ldr	r2, [pc, #296]	; (80057a4 <HAL_RCCEx_PeriphCLKConfig+0x160>)
 800567a:	f043 5380 	orr.w	r3, r3, #268435456	; 0x10000000
 800567e:	61d3      	str	r3, [r2, #28]
 8005680:	4b48      	ldr	r3, [pc, #288]	; (80057a4 <HAL_RCCEx_PeriphCLKConfig+0x160>)
 8005682:	69db      	ldr	r3, [r3, #28]
 8005684:	f003 5380 	and.w	r3, r3, #268435456	; 0x10000000
 8005688:	60bb      	str	r3, [r7, #8]
 800568a:	68bb      	ldr	r3, [r7, #8]
      pwrclkchanged = SET;
 800568c:	2301      	movs	r3, #1
 800568e:	f887 3047 	strb.w	r3, [r7, #71]	; 0x47
    }
    
    if(HAL_IS_BIT_CLR(PWR->CR, PWR_CR_DBP))
 8005692:	4b45      	ldr	r3, [pc, #276]	; (80057a8 <HAL_RCCEx_PeriphCLKConfig+0x164>)
 8005694:	681b      	ldr	r3, [r3, #0]
 8005696:	f403 7380 	and.w	r3, r3, #256	; 0x100
 800569a:	2b00      	cmp	r3, #0
 800569c:	d118      	bne.n	80056d0 <HAL_RCCEx_PeriphCLKConfig+0x8c>
    {
      /* Enable write access to Backup domain */
      SET_BIT(PWR->CR, PWR_CR_DBP);
 800569e:	4b42      	ldr	r3, [pc, #264]	; (80057a8 <HAL_RCCEx_PeriphCLKConfig+0x164>)
 80056a0:	681b      	ldr	r3, [r3, #0]
 80056a2:	4a41      	ldr	r2, [pc, #260]	; (80057a8 <HAL_RCCEx_PeriphCLKConfig+0x164>)
 80056a4:	f443 7380 	orr.w	r3, r3, #256	; 0x100
 80056a8:	6013      	str	r3, [r2, #0]
      
      /* Wait for Backup domain Write protection disable */
      tickstart = HAL_GetTick();
 80056aa:	f7fd fbdb 	bl	8002e64 <HAL_GetTick>
 80056ae:	6438      	str	r0, [r7, #64]	; 0x40
      
      while(HAL_IS_BIT_CLR(PWR->CR, PWR_CR_DBP))
 80056b0:	e008      	b.n	80056c4 <HAL_RCCEx_PeriphCLKConfig+0x80>
      {
          if((HAL_GetTick() - tickstart) > RCC_DBP_TIMEOUT_VALUE)
 80056b2:	f7fd fbd7 	bl	8002e64 <HAL_GetTick>
 80056b6:	4602      	mov	r2, r0
 80056b8:	6c3b      	ldr	r3, [r7, #64]	; 0x40
 80056ba:	1ad3      	subs	r3, r2, r3
 80056bc:	2b64      	cmp	r3, #100	; 0x64
 80056be:	d901      	bls.n	80056c4 <HAL_RCCEx_PeriphCLKConfig+0x80>
        {
          return HAL_TIMEOUT;
 80056c0:	2303      	movs	r3, #3
 80056c2:	e169      	b.n	8005998 <HAL_RCCEx_PeriphCLKConfig+0x354>
      while(HAL_IS_BIT_CLR(PWR->CR, PWR_CR_DBP))
 80056c4:	4b38      	ldr	r3, [pc, #224]	; (80057a8 <HAL_RCCEx_PeriphCLKConfig+0x164>)
 80056c6:	681b      	ldr	r3, [r3, #0]
 80056c8:	f403 7380 	and.w	r3, r3, #256	; 0x100
 80056cc:	2b00      	cmp	r3, #0
 80056ce:	d0f0      	beq.n	80056b2 <HAL_RCCEx_PeriphCLKConfig+0x6e>
        }
      }
    }
    
    /* Reset the Backup domain only if the RTC Clock source selection is modified from reset value */ 
    temp_reg = (RCC->BDCR & RCC_BDCR_RTCSEL);
 80056d0:	4b34      	ldr	r3, [pc, #208]	; (80057a4 <HAL_RCCEx_PeriphCLKConfig+0x160>)
 80056d2:	6a1b      	ldr	r3, [r3, #32]
 80056d4:	f403 7340 	and.w	r3, r3, #768	; 0x300
 80056d8:	63fb      	str	r3, [r7, #60]	; 0x3c
    if((temp_reg != 0x00000000U) && (temp_reg != (PeriphClkInit->RTCClockSelection & RCC_BDCR_RTCSEL)))
 80056da:	6bfb      	ldr	r3, [r7, #60]	; 0x3c
 80056dc:	2b00      	cmp	r3, #0
 80056de:	f000 8084 	beq.w	80057ea <HAL_RCCEx_PeriphCLKConfig+0x1a6>
 80056e2:	687b      	ldr	r3, [r7, #4]
 80056e4:	685b      	ldr	r3, [r3, #4]
 80056e6:	f403 7340 	and.w	r3, r3, #768	; 0x300
 80056ea:	6bfa      	ldr	r2, [r7, #60]	; 0x3c
 80056ec:	429a      	cmp	r2, r3
 80056ee:	d07c      	beq.n	80057ea <HAL_RCCEx_PeriphCLKConfig+0x1a6>
    {
      /* Store the content of BDCR register before the reset of Backup Domain */
      temp_reg = (RCC->BDCR & ~(RCC_BDCR_RTCSEL));
 80056f0:	4b2c      	ldr	r3, [pc, #176]	; (80057a4 <HAL_RCCEx_PeriphCLKConfig+0x160>)
 80056f2:	6a1b      	ldr	r3, [r3, #32]
 80056f4:	f423 7340 	bic.w	r3, r3, #768	; 0x300
 80056f8:	63fb      	str	r3, [r7, #60]	; 0x3c
 80056fa:	f44f 3380 	mov.w	r3, #65536	; 0x10000
 80056fe:	633b      	str	r3, [r7, #48]	; 0x30
   __ASM volatile ("rbit %0, %1" : "=r" (result) : "r" (value) );
 8005700:	6b3b      	ldr	r3, [r7, #48]	; 0x30
 8005702:	fa93 f3a3 	rbit	r3, r3
 8005706:	62fb      	str	r3, [r7, #44]	; 0x2c
  return result;
 8005708:	6afb      	ldr	r3, [r7, #44]	; 0x2c
      /* RTC Clock selection can be changed only if the Backup Domain is reset */
      __HAL_RCC_BACKUPRESET_FORCE();
 800570a:	fab3 f383 	clz	r3, r3
 800570e:	b2db      	uxtb	r3, r3
 8005710:	461a      	mov	r2, r3
 8005712:	4b26      	ldr	r3, [pc, #152]	; (80057ac <HAL_RCCEx_PeriphCLKConfig+0x168>)
 8005714:	4413      	add	r3, r2
 8005716:	009b      	lsls	r3, r3, #2
 8005718:	461a      	mov	r2, r3
 800571a:	2301      	movs	r3, #1
 800571c:	6013      	str	r3, [r2, #0]
 800571e:	f44f 3380 	mov.w	r3, #65536	; 0x10000
 8005722:	63bb      	str	r3, [r7, #56]	; 0x38
   __ASM volatile ("rbit %0, %1" : "=r" (result) : "r" (value) );
 8005724:	6bbb      	ldr	r3, [r7, #56]	; 0x38
 8005726:	fa93 f3a3 	rbit	r3, r3
 800572a:	637b      	str	r3, [r7, #52]	; 0x34
  return result;
 800572c:	6b7b      	ldr	r3, [r7, #52]	; 0x34
      __HAL_RCC_BACKUPRESET_RELEASE();
 800572e:	fab3 f383 	clz	r3, r3
 8005732:	b2db      	uxtb	r3, r3
 8005734:	461a      	mov	r2, r3
 8005736:	4b1d      	ldr	r3, [pc, #116]	; (80057ac <HAL_RCCEx_PeriphCLKConfig+0x168>)
 8005738:	4413      	add	r3, r2
 800573a:	009b      	lsls	r3, r3, #2
 800573c:	461a      	mov	r2, r3
 800573e:	2300      	movs	r3, #0
 8005740:	6013      	str	r3, [r2, #0]
      /* Restore the Content of BDCR register */
      RCC->BDCR = temp_reg;
 8005742:	4a18      	ldr	r2, [pc, #96]	; (80057a4 <HAL_RCCEx_PeriphCLKConfig+0x160>)
 8005744:	6bfb      	ldr	r3, [r7, #60]	; 0x3c
 8005746:	6213      	str	r3, [r2, #32]
    
      /* Wait for LSERDY if LSE was enabled */
      if (HAL_IS_BIT_SET(temp_reg, RCC_BDCR_LSEON))
 8005748:	6bfb      	ldr	r3, [r7, #60]	; 0x3c
 800574a:	f003 0301 	and.w	r3, r3, #1
 800574e:	2b00      	cmp	r3, #0
 8005750:	d04b      	beq.n	80057ea <HAL_RCCEx_PeriphCLKConfig+0x1a6>
      {
        /* Get Start Tick */
        tickstart = HAL_GetTick();
 8005752:	f7fd fb87 	bl	8002e64 <HAL_GetTick>
 8005756:	6438      	str	r0, [r7, #64]	; 0x40
        
        /* Wait till LSE is ready */  
        while(__HAL_RCC_GET_FLAG(RCC_FLAG_LSERDY) == RESET)
 8005758:	e00a      	b.n	8005770 <HAL_RCCEx_PeriphCLKConfig+0x12c>
        {
            if((HAL_GetTick() - tickstart) > RCC_LSE_TIMEOUT_VALUE)
 800575a:	f7fd fb83 	bl	8002e64 <HAL_GetTick>
 800575e:	4602      	mov	r2, r0
 8005760:	6c3b      	ldr	r3, [r7, #64]	; 0x40
 8005762:	1ad3      	subs	r3, r2, r3
 8005764:	f241 3288 	movw	r2, #5000	; 0x1388
 8005768:	4293      	cmp	r3, r2
 800576a:	d901      	bls.n	8005770 <HAL_RCCEx_PeriphCLKConfig+0x12c>
          {
            return HAL_TIMEOUT;
 800576c:	2303      	movs	r3, #3
 800576e:	e113      	b.n	8005998 <HAL_RCCEx_PeriphCLKConfig+0x354>
 8005770:	2302      	movs	r3, #2
 8005772:	62bb      	str	r3, [r7, #40]	; 0x28
   __ASM volatile ("rbit %0, %1" : "=r" (result) : "r" (value) );
 8005774:	6abb      	ldr	r3, [r7, #40]	; 0x28
 8005776:	fa93 f3a3 	rbit	r3, r3
 800577a:	627b      	str	r3, [r7, #36]	; 0x24
 800577c:	2302      	movs	r3, #2
 800577e:	623b      	str	r3, [r7, #32]
 8005780:	6a3b      	ldr	r3, [r7, #32]
 8005782:	fa93 f3a3 	rbit	r3, r3
 8005786:	61fb      	str	r3, [r7, #28]
  return result;
 8005788:	69fb      	ldr	r3, [r7, #28]
        while(__HAL_RCC_GET_FLAG(RCC_FLAG_LSERDY) == RESET)
 800578a:	fab3 f383 	clz	r3, r3
 800578e:	b2db      	uxtb	r3, r3
 8005790:	095b      	lsrs	r3, r3, #5
 8005792:	b2db      	uxtb	r3, r3
 8005794:	f043 0302 	orr.w	r3, r3, #2
 8005798:	b2db      	uxtb	r3, r3
 800579a:	2b02      	cmp	r3, #2
 800579c:	d108      	bne.n	80057b0 <HAL_RCCEx_PeriphCLKConfig+0x16c>
 800579e:	4b01      	ldr	r3, [pc, #4]	; (80057a4 <HAL_RCCEx_PeriphCLKConfig+0x160>)
 80057a0:	6a1b      	ldr	r3, [r3, #32]
 80057a2:	e00d      	b.n	80057c0 <HAL_RCCEx_PeriphCLKConfig+0x17c>
 80057a4:	40021000 	.word	0x40021000
 80057a8:	40007000 	.word	0x40007000
 80057ac:	10908100 	.word	0x10908100
 80057b0:	2302      	movs	r3, #2
 80057b2:	61bb      	str	r3, [r7, #24]
   __ASM volatile ("rbit %0, %1" : "=r" (result) : "r" (value) );
 80057b4:	69bb      	ldr	r3, [r7, #24]
 80057b6:	fa93 f3a3 	rbit	r3, r3
 80057ba:	617b      	str	r3, [r7, #20]
 80057bc:	4b78      	ldr	r3, [pc, #480]	; (80059a0 <HAL_RCCEx_PeriphCLKConfig+0x35c>)
 80057be:	6a5b      	ldr	r3, [r3, #36]	; 0x24
 80057c0:	2202      	movs	r2, #2
 80057c2:	613a      	str	r2, [r7, #16]
 80057c4:	693a      	ldr	r2, [r7, #16]
 80057c6:	fa92 f2a2 	rbit	r2, r2
 80057ca:	60fa      	str	r2, [r7, #12]
  return result;
 80057cc:	68fa      	ldr	r2, [r7, #12]
 80057ce:	fab2 f282 	clz	r2, r2
 80057d2:	b2d2      	uxtb	r2, r2
 80057d4:	f042 0240 	orr.w	r2, r2, #64	; 0x40
 80057d8:	b2d2      	uxtb	r2, r2
 80057da:	f002 021f 	and.w	r2, r2, #31
 80057de:	2101      	movs	r1, #1
 80057e0:	fa01 f202 	lsl.w	r2, r1, r2
 80057e4:	4013      	ands	r3, r2
 80057e6:	2b00      	cmp	r3, #0
 80057e8:	d0b7      	beq.n	800575a <HAL_RCCEx_PeriphCLKConfig+0x116>
          }      
        }  
      }
    }
    __HAL_RCC_RTC_CONFIG(PeriphClkInit->RTCClockSelection); 
 80057ea:	4b6d      	ldr	r3, [pc, #436]	; (80059a0 <HAL_RCCEx_PeriphCLKConfig+0x35c>)
 80057ec:	6a1b      	ldr	r3, [r3, #32]
 80057ee:	f423 7240 	bic.w	r2, r3, #768	; 0x300
 80057f2:	687b      	ldr	r3, [r7, #4]
 80057f4:	685b      	ldr	r3, [r3, #4]
 80057f6:	496a      	ldr	r1, [pc, #424]	; (80059a0 <HAL_RCCEx_PeriphCLKConfig+0x35c>)
 80057f8:	4313      	orrs	r3, r2
 80057fa:	620b      	str	r3, [r1, #32]

    /* Require to disable power clock if necessary */
    if(pwrclkchanged == SET)
 80057fc:	f897 3047 	ldrb.w	r3, [r7, #71]	; 0x47
 8005800:	2b01      	cmp	r3, #1
 8005802:	d105      	bne.n	8005810 <HAL_RCCEx_PeriphCLKConfig+0x1cc>
    {
      __HAL_RCC_PWR_CLK_DISABLE();
 8005804:	4b66      	ldr	r3, [pc, #408]	; (80059a0 <HAL_RCCEx_PeriphCLKConfig+0x35c>)
 8005806:	69db      	ldr	r3, [r3, #28]
 8005808:	4a65      	ldr	r2, [pc, #404]	; (80059a0 <HAL_RCCEx_PeriphCLKConfig+0x35c>)
 800580a:	f023 5380 	bic.w	r3, r3, #268435456	; 0x10000000
 800580e:	61d3      	str	r3, [r2, #28]
    }
  }

  /*------------------------------- USART1 Configuration ------------------------*/
  if(((PeriphClkInit->PeriphClockSelection) & RCC_PERIPHCLK_USART1) == RCC_PERIPHCLK_USART1)
 8005810:	687b      	ldr	r3, [r7, #4]
 8005812:	681b      	ldr	r3, [r3, #0]
 8005814:	f003 0301 	and.w	r3, r3, #1
 8005818:	2b00      	cmp	r3, #0
 800581a:	d008      	beq.n	800582e <HAL_RCCEx_PeriphCLKConfig+0x1ea>
  {
    /* Check the parameters */
    assert_param(IS_RCC_USART1CLKSOURCE(PeriphClkInit->Usart1ClockSelection));
    
    /* Configure the USART1 clock source */
    __HAL_RCC_USART1_CONFIG(PeriphClkInit->Usart1ClockSelection);
 800581c:	4b60      	ldr	r3, [pc, #384]	; (80059a0 <HAL_RCCEx_PeriphCLKConfig+0x35c>)
 800581e:	6b1b      	ldr	r3, [r3, #48]	; 0x30
 8005820:	f023 0203 	bic.w	r2, r3, #3
 8005824:	687b      	ldr	r3, [r7, #4]
 8005826:	689b      	ldr	r3, [r3, #8]
 8005828:	495d      	ldr	r1, [pc, #372]	; (80059a0 <HAL_RCCEx_PeriphCLKConfig+0x35c>)
 800582a:	4313      	orrs	r3, r2
 800582c:	630b      	str	r3, [r1, #48]	; 0x30
  }

#if defined(RCC_CFGR3_USART2SW)
  /*----------------------------- USART2 Configuration --------------------------*/ 
  if(((PeriphClkInit->PeriphClockSelection) & RCC_PERIPHCLK_USART2) == RCC_PERIPHCLK_USART2)
 800582e:	687b      	ldr	r3, [r7, #4]
 8005830:	681b      	ldr	r3, [r3, #0]
 8005832:	f003 0302 	and.w	r3, r3, #2
 8005836:	2b00      	cmp	r3, #0
 8005838:	d008      	beq.n	800584c <HAL_RCCEx_PeriphCLKConfig+0x208>
  {
    /* Check the parameters */
    assert_param(IS_RCC_USART2CLKSOURCE(PeriphClkInit->Usart2ClockSelection));
    
    /* Configure the USART2 clock source */
    __HAL_RCC_USART2_CONFIG(PeriphClkInit->Usart2ClockSelection);
 800583a:	4b59      	ldr	r3, [pc, #356]	; (80059a0 <HAL_RCCEx_PeriphCLKConfig+0x35c>)
 800583c:	6b1b      	ldr	r3, [r3, #48]	; 0x30
 800583e:	f423 3240 	bic.w	r2, r3, #196608	; 0x30000
 8005842:	687b      	ldr	r3, [r7, #4]
 8005844:	68db      	ldr	r3, [r3, #12]
 8005846:	4956      	ldr	r1, [pc, #344]	; (80059a0 <HAL_RCCEx_PeriphCLKConfig+0x35c>)
 8005848:	4313      	orrs	r3, r2
 800584a:	630b      	str	r3, [r1, #48]	; 0x30
  }
#endif /* RCC_CFGR3_USART2SW */

#if defined(RCC_CFGR3_USART3SW)
  /*------------------------------ USART3 Configuration ------------------------*/ 
  if(((PeriphClkInit->PeriphClockSelection) & RCC_PERIPHCLK_USART3) == RCC_PERIPHCLK_USART3)
 800584c:	687b      	ldr	r3, [r7, #4]
 800584e:	681b      	ldr	r3, [r3, #0]
 8005850:	f003 0304 	and.w	r3, r3, #4
 8005854:	2b00      	cmp	r3, #0
 8005856:	d008      	beq.n	800586a <HAL_RCCEx_PeriphCLKConfig+0x226>
  {
    /* Check the parameters */
    assert_param(IS_RCC_USART3CLKSOURCE(PeriphClkInit->Usart3ClockSelection));
    
    /* Configure the USART3 clock source */
    __HAL_RCC_USART3_CONFIG(PeriphClkInit->Usart3ClockSelection);
 8005858:	4b51      	ldr	r3, [pc, #324]	; (80059a0 <HAL_RCCEx_PeriphCLKConfig+0x35c>)
 800585a:	6b1b      	ldr	r3, [r3, #48]	; 0x30
 800585c:	f423 2240 	bic.w	r2, r3, #786432	; 0xc0000
 8005860:	687b      	ldr	r3, [r7, #4]
 8005862:	691b      	ldr	r3, [r3, #16]
 8005864:	494e      	ldr	r1, [pc, #312]	; (80059a0 <HAL_RCCEx_PeriphCLKConfig+0x35c>)
 8005866:	4313      	orrs	r3, r2
 8005868:	630b      	str	r3, [r1, #48]	; 0x30
  }
#endif /* RCC_CFGR3_USART3SW */

  /*------------------------------ I2C1 Configuration ------------------------*/ 
  if(((PeriphClkInit->PeriphClockSelection) & RCC_PERIPHCLK_I2C1) == RCC_PERIPHCLK_I2C1)
 800586a:	687b      	ldr	r3, [r7, #4]
 800586c:	681b      	ldr	r3, [r3, #0]
 800586e:	f003 0320 	and.w	r3, r3, #32
 8005872:	2b00      	cmp	r3, #0
 8005874:	d008      	beq.n	8005888 <HAL_RCCEx_PeriphCLKConfig+0x244>
  {
    /* Check the parameters */
    assert_param(IS_RCC_I2C1CLKSOURCE(PeriphClkInit->I2c1ClockSelection));
    
    /* Configure the I2C1 clock source */
    __HAL_RCC_I2C1_CONFIG(PeriphClkInit->I2c1ClockSelection);
 8005876:	4b4a      	ldr	r3, [pc, #296]	; (80059a0 <HAL_RCCEx_PeriphCLKConfig+0x35c>)
 8005878:	6b1b      	ldr	r3, [r3, #48]	; 0x30
 800587a:	f023 0210 	bic.w	r2, r3, #16
 800587e:	687b      	ldr	r3, [r7, #4]
 8005880:	69db      	ldr	r3, [r3, #28]
 8005882:	4947      	ldr	r1, [pc, #284]	; (80059a0 <HAL_RCCEx_PeriphCLKConfig+0x35c>)
 8005884:	4313      	orrs	r3, r2
 8005886:	630b      	str	r3, [r1, #48]	; 0x30
#if defined(STM32F302xE) || defined(STM32F303xE)\
 || defined(STM32F302xC) || defined(STM32F303xC)\
 || defined(STM32F302x8)                        \
 || defined(STM32F373xC)
  /*------------------------------ USB Configuration ------------------------*/ 
  if(((PeriphClkInit->PeriphClockSelection) & RCC_PERIPHCLK_USB) == RCC_PERIPHCLK_USB)
 8005888:	687b      	ldr	r3, [r7, #4]
 800588a:	681b      	ldr	r3, [r3, #0]
 800588c:	f403 3300 	and.w	r3, r3, #131072	; 0x20000
 8005890:	2b00      	cmp	r3, #0
 8005892:	d008      	beq.n	80058a6 <HAL_RCCEx_PeriphCLKConfig+0x262>
  {
    /* Check the parameters */
    assert_param(IS_RCC_USBCLKSOURCE(PeriphClkInit->USBClockSelection));
    
    /* Configure the USB clock source */
    __HAL_RCC_USB_CONFIG(PeriphClkInit->USBClockSelection);
 8005894:	4b42      	ldr	r3, [pc, #264]	; (80059a0 <HAL_RCCEx_PeriphCLKConfig+0x35c>)
 8005896:	685b      	ldr	r3, [r3, #4]
 8005898:	f423 0280 	bic.w	r2, r3, #4194304	; 0x400000
 800589c:	687b      	ldr	r3, [r7, #4]
 800589e:	6b9b      	ldr	r3, [r3, #56]	; 0x38
 80058a0:	493f      	ldr	r1, [pc, #252]	; (80059a0 <HAL_RCCEx_PeriphCLKConfig+0x35c>)
 80058a2:	4313      	orrs	r3, r2
 80058a4:	604b      	str	r3, [r1, #4]
 || defined(STM32F302xC) || defined(STM32F303xC) || defined(STM32F358xx)\
 || defined(STM32F301x8) || defined(STM32F302x8) || defined(STM32F318xx)\
 || defined(STM32F373xC) || defined(STM32F378xx)

  /*------------------------------ I2C2 Configuration ------------------------*/ 
  if(((PeriphClkInit->PeriphClockSelection) & RCC_PERIPHCLK_I2C2) == RCC_PERIPHCLK_I2C2)
 80058a6:	687b      	ldr	r3, [r7, #4]
 80058a8:	681b      	ldr	r3, [r3, #0]
 80058aa:	f003 0340 	and.w	r3, r3, #64	; 0x40
 80058ae:	2b00      	cmp	r3, #0
 80058b0:	d008      	beq.n	80058c4 <HAL_RCCEx_PeriphCLKConfig+0x280>
  {
    /* Check the parameters */
    assert_param(IS_RCC_I2C2CLKSOURCE(PeriphClkInit->I2c2ClockSelection));
    
    /* Configure the I2C2 clock source */
    __HAL_RCC_I2C2_CONFIG(PeriphClkInit->I2c2ClockSelection);
 80058b2:	4b3b      	ldr	r3, [pc, #236]	; (80059a0 <HAL_RCCEx_PeriphCLKConfig+0x35c>)
 80058b4:	6b1b      	ldr	r3, [r3, #48]	; 0x30
 80058b6:	f023 0220 	bic.w	r2, r3, #32
 80058ba:	687b      	ldr	r3, [r7, #4]
 80058bc:	6a1b      	ldr	r3, [r3, #32]
 80058be:	4938      	ldr	r1, [pc, #224]	; (80059a0 <HAL_RCCEx_PeriphCLKConfig+0x35c>)
 80058c0:	4313      	orrs	r3, r2
 80058c2:	630b      	str	r3, [r1, #48]	; 0x30
  
#if defined(STM32F302xE) || defined(STM32F303xE) || defined(STM32F398xx)\
 || defined(STM32F302xC) || defined(STM32F303xC) || defined(STM32F358xx)

  /*------------------------------ UART4 Configuration ------------------------*/ 
  if(((PeriphClkInit->PeriphClockSelection) & RCC_PERIPHCLK_UART4) == RCC_PERIPHCLK_UART4)
 80058c4:	687b      	ldr	r3, [r7, #4]
 80058c6:	681b      	ldr	r3, [r3, #0]
 80058c8:	f003 0308 	and.w	r3, r3, #8
 80058cc:	2b00      	cmp	r3, #0
 80058ce:	d008      	beq.n	80058e2 <HAL_RCCEx_PeriphCLKConfig+0x29e>
  {
    /* Check the parameters */
    assert_param(IS_RCC_UART4CLKSOURCE(PeriphClkInit->Uart4ClockSelection));
    
    /* Configure the UART4 clock source */
    __HAL_RCC_UART4_CONFIG(PeriphClkInit->Uart4ClockSelection);
 80058d0:	4b33      	ldr	r3, [pc, #204]	; (80059a0 <HAL_RCCEx_PeriphCLKConfig+0x35c>)
 80058d2:	6b1b      	ldr	r3, [r3, #48]	; 0x30
 80058d4:	f423 1240 	bic.w	r2, r3, #3145728	; 0x300000
 80058d8:	687b      	ldr	r3, [r7, #4]
 80058da:	695b      	ldr	r3, [r3, #20]
 80058dc:	4930      	ldr	r1, [pc, #192]	; (80059a0 <HAL_RCCEx_PeriphCLKConfig+0x35c>)
 80058de:	4313      	orrs	r3, r2
 80058e0:	630b      	str	r3, [r1, #48]	; 0x30
  }

  /*------------------------------ UART5 Configuration ------------------------*/ 
  if(((PeriphClkInit->PeriphClockSelection) & RCC_PERIPHCLK_UART5) == RCC_PERIPHCLK_UART5)
 80058e2:	687b      	ldr	r3, [r7, #4]
 80058e4:	681b      	ldr	r3, [r3, #0]
 80058e6:	f003 0310 	and.w	r3, r3, #16
 80058ea:	2b00      	cmp	r3, #0
 80058ec:	d008      	beq.n	8005900 <HAL_RCCEx_PeriphCLKConfig+0x2bc>
  {
    /* Check the parameters */
    assert_param(IS_RCC_UART5CLKSOURCE(PeriphClkInit->Uart5ClockSelection));
    
    /* Configure the UART5 clock source */
    __HAL_RCC_UART5_CONFIG(PeriphClkInit->Uart5ClockSelection);
 80058ee:	4b2c      	ldr	r3, [pc, #176]	; (80059a0 <HAL_RCCEx_PeriphCLKConfig+0x35c>)
 80058f0:	6b1b      	ldr	r3, [r3, #48]	; 0x30
 80058f2:	f423 0240 	bic.w	r2, r3, #12582912	; 0xc00000
 80058f6:	687b      	ldr	r3, [r7, #4]
 80058f8:	699b      	ldr	r3, [r3, #24]
 80058fa:	4929      	ldr	r1, [pc, #164]	; (80059a0 <HAL_RCCEx_PeriphCLKConfig+0x35c>)
 80058fc:	4313      	orrs	r3, r2
 80058fe:	630b      	str	r3, [r1, #48]	; 0x30

#if defined(STM32F302xE) || defined(STM32F303xE) || defined(STM32F398xx)\
 || defined(STM32F302xC) || defined(STM32F303xC) || defined(STM32F358xx)\
 || defined(STM32F301x8) || defined(STM32F302x8) || defined(STM32F318xx)
  /*------------------------------ I2S Configuration ------------------------*/ 
  if(((PeriphClkInit->PeriphClockSelection) & RCC_PERIPHCLK_I2S) == RCC_PERIPHCLK_I2S)
 8005900:	687b      	ldr	r3, [r7, #4]
 8005902:	681b      	ldr	r3, [r3, #0]
 8005904:	f403 7300 	and.w	r3, r3, #512	; 0x200
 8005908:	2b00      	cmp	r3, #0
 800590a:	d008      	beq.n	800591e <HAL_RCCEx_PeriphCLKConfig+0x2da>
  {
    /* Check the parameters */
    assert_param(IS_RCC_I2SCLKSOURCE(PeriphClkInit->I2sClockSelection));
    
    /* Configure the I2S clock source */
    __HAL_RCC_I2S_CONFIG(PeriphClkInit->I2sClockSelection);
 800590c:	4b24      	ldr	r3, [pc, #144]	; (80059a0 <HAL_RCCEx_PeriphCLKConfig+0x35c>)
 800590e:	685b      	ldr	r3, [r3, #4]
 8005910:	f423 0200 	bic.w	r2, r3, #8388608	; 0x800000
 8005914:	687b      	ldr	r3, [r7, #4]
 8005916:	6adb      	ldr	r3, [r3, #44]	; 0x2c
 8005918:	4921      	ldr	r1, [pc, #132]	; (80059a0 <HAL_RCCEx_PeriphCLKConfig+0x35c>)
 800591a:	4313      	orrs	r3, r2
 800591c:	604b      	str	r3, [r1, #4]
#if defined(STM32F302xE) || defined(STM32F303xE) || defined(STM32F398xx)\
 || defined(STM32F302xC) || defined(STM32F303xC) || defined(STM32F358xx)\
 || defined(STM32F303x8) || defined(STM32F334x8) || defined(STM32F328xx)
      
  /*------------------------------ ADC1 & ADC2 clock Configuration -------------*/ 
  if(((PeriphClkInit->PeriphClockSelection) & RCC_PERIPHCLK_ADC12) == RCC_PERIPHCLK_ADC12)
 800591e:	687b      	ldr	r3, [r7, #4]
 8005920:	681b      	ldr	r3, [r3, #0]
 8005922:	f003 0380 	and.w	r3, r3, #128	; 0x80
 8005926:	2b00      	cmp	r3, #0
 8005928:	d008      	beq.n	800593c <HAL_RCCEx_PeriphCLKConfig+0x2f8>
  {
    /* Check the parameters */
    assert_param(IS_RCC_ADC12PLLCLK_DIV(PeriphClkInit->Adc12ClockSelection));
    
    /* Configure the ADC12 clock source */
    __HAL_RCC_ADC12_CONFIG(PeriphClkInit->Adc12ClockSelection);
 800592a:	4b1d      	ldr	r3, [pc, #116]	; (80059a0 <HAL_RCCEx_PeriphCLKConfig+0x35c>)
 800592c:	6adb      	ldr	r3, [r3, #44]	; 0x2c
 800592e:	f423 72f8 	bic.w	r2, r3, #496	; 0x1f0
 8005932:	687b      	ldr	r3, [r7, #4]
 8005934:	6a5b      	ldr	r3, [r3, #36]	; 0x24
 8005936:	491a      	ldr	r1, [pc, #104]	; (80059a0 <HAL_RCCEx_PeriphCLKConfig+0x35c>)
 8005938:	4313      	orrs	r3, r2
 800593a:	62cb      	str	r3, [r1, #44]	; 0x2c
  
#if defined(STM32F303xE) || defined(STM32F398xx)\
 || defined(STM32F303xC) || defined(STM32F358xx)

  /*------------------------------ ADC3 & ADC4 clock Configuration -------------*/ 
  if(((PeriphClkInit->PeriphClockSelection) & RCC_PERIPHCLK_ADC34) == RCC_PERIPHCLK_ADC34)
 800593c:	687b      	ldr	r3, [r7, #4]
 800593e:	681b      	ldr	r3, [r3, #0]
 8005940:	f403 7380 	and.w	r3, r3, #256	; 0x100
 8005944:	2b00      	cmp	r3, #0
 8005946:	d008      	beq.n	800595a <HAL_RCCEx_PeriphCLKConfig+0x316>
  {
    /* Check the parameters */
    assert_param(IS_RCC_ADC34PLLCLK_DIV(PeriphClkInit->Adc34ClockSelection));
    
    /* Configure the ADC34 clock source */
    __HAL_RCC_ADC34_CONFIG(PeriphClkInit->Adc34ClockSelection);
 8005948:	4b15      	ldr	r3, [pc, #84]	; (80059a0 <HAL_RCCEx_PeriphCLKConfig+0x35c>)
 800594a:	6adb      	ldr	r3, [r3, #44]	; 0x2c
 800594c:	f423 5278 	bic.w	r2, r3, #15872	; 0x3e00
 8005950:	687b      	ldr	r3, [r7, #4]
 8005952:	6a9b      	ldr	r3, [r3, #40]	; 0x28
 8005954:	4912      	ldr	r1, [pc, #72]	; (80059a0 <HAL_RCCEx_PeriphCLKConfig+0x35c>)
 8005956:	4313      	orrs	r3, r2
 8005958:	62cb      	str	r3, [r1, #44]	; 0x2c
 || defined(STM32F302xC) || defined(STM32F303xC) || defined(STM32F358xx)\
 || defined(STM32F303x8) || defined(STM32F334x8) || defined(STM32F328xx)\
 || defined(STM32F301x8) || defined(STM32F302x8) || defined(STM32F318xx)

  /*------------------------------ TIM1 clock Configuration ----------------*/ 
  if(((PeriphClkInit->PeriphClockSelection) & RCC_PERIPHCLK_TIM1) == RCC_PERIPHCLK_TIM1)
 800595a:	687b      	ldr	r3, [r7, #4]
 800595c:	681b      	ldr	r3, [r3, #0]
 800595e:	f403 5380 	and.w	r3, r3, #4096	; 0x1000
 8005962:	2b00      	cmp	r3, #0
 8005964:	d008      	beq.n	8005978 <HAL_RCCEx_PeriphCLKConfig+0x334>
  {
    /* Check the parameters */
    assert_param(IS_RCC_TIM1CLKSOURCE(PeriphClkInit->Tim1ClockSelection));
    
    /* Configure the TIM1 clock source */
    __HAL_RCC_TIM1_CONFIG(PeriphClkInit->Tim1ClockSelection);
 8005966:	4b0e      	ldr	r3, [pc, #56]	; (80059a0 <HAL_RCCEx_PeriphCLKConfig+0x35c>)
 8005968:	6b1b      	ldr	r3, [r3, #48]	; 0x30
 800596a:	f423 7280 	bic.w	r2, r3, #256	; 0x100
 800596e:	687b      	ldr	r3, [r7, #4]
 8005970:	6b1b      	ldr	r3, [r3, #48]	; 0x30
 8005972:	490b      	ldr	r1, [pc, #44]	; (80059a0 <HAL_RCCEx_PeriphCLKConfig+0x35c>)
 8005974:	4313      	orrs	r3, r2
 8005976:	630b      	str	r3, [r1, #48]	; 0x30
  
#if defined(STM32F303xE) || defined(STM32F398xx)\
 || defined(STM32F303xC) || defined(STM32F358xx)

  /*------------------------------ TIM8 clock Configuration ----------------*/ 
  if(((PeriphClkInit->PeriphClockSelection) & RCC_PERIPHCLK_TIM8) == RCC_PERIPHCLK_TIM8)
 8005978:	687b      	ldr	r3, [r7, #4]
 800597a:	681b      	ldr	r3, [r3, #0]
 800597c:	f403 5300 	and.w	r3, r3, #8192	; 0x2000
 8005980:	2b00      	cmp	r3, #0
 8005982:	d008      	beq.n	8005996 <HAL_RCCEx_PeriphCLKConfig+0x352>
  {
    /* Check the parameters */
    assert_param(IS_RCC_TIM8CLKSOURCE(PeriphClkInit->Tim8ClockSelection));
    
    /* Configure the TIM8 clock source */
    __HAL_RCC_TIM8_CONFIG(PeriphClkInit->Tim8ClockSelection);
 8005984:	4b06      	ldr	r3, [pc, #24]	; (80059a0 <HAL_RCCEx_PeriphCLKConfig+0x35c>)
 8005986:	6b1b      	ldr	r3, [r3, #48]	; 0x30
 8005988:	f423 7200 	bic.w	r2, r3, #512	; 0x200
 800598c:	687b      	ldr	r3, [r7, #4]
 800598e:	6b5b      	ldr	r3, [r3, #52]	; 0x34
 8005990:	4903      	ldr	r1, [pc, #12]	; (80059a0 <HAL_RCCEx_PeriphCLKConfig+0x35c>)
 8005992:	4313      	orrs	r3, r2
 8005994:	630b      	str	r3, [r1, #48]	; 0x30
    __HAL_RCC_TIM20_CONFIG(PeriphClkInit->Tim20ClockSelection);
  }
#endif /* STM32F303xE || STM32F398xx */  

  
  return HAL_OK;
 8005996:	2300      	movs	r3, #0
}
 8005998:	4618      	mov	r0, r3
 800599a:	3748      	adds	r7, #72	; 0x48
 800599c:	46bd      	mov	sp, r7
 800599e:	bd80      	pop	{r7, pc}
 80059a0:	40021000 	.word	0x40021000

080059a4 <HAL_SPI_Init>:
  * @param  hspi pointer to a SPI_HandleTypeDef structure that contains
  *               the configuration information for SPI module.
  * @retval HAL status
  */
HAL_StatusTypeDef HAL_SPI_Init(SPI_HandleTypeDef *hspi)
{
 80059a4:	b580      	push	{r7, lr}
 80059a6:	b084      	sub	sp, #16
 80059a8:	af00      	add	r7, sp, #0
 80059aa:	6078      	str	r0, [r7, #4]
  uint32_t frxth;

  /* Check the SPI handle allocation */
  if (hspi == NULL)
 80059ac:	687b      	ldr	r3, [r7, #4]
 80059ae:	2b00      	cmp	r3, #0
 80059b0:	d101      	bne.n	80059b6 <HAL_SPI_Init+0x12>
  {
    return HAL_ERROR;
 80059b2:	2301      	movs	r3, #1
 80059b4:	e09d      	b.n	8005af2 <HAL_SPI_Init+0x14e>
  assert_param(IS_SPI_NSS(hspi->Init.NSS));
  assert_param(IS_SPI_NSSP(hspi->Init.NSSPMode));
  assert_param(IS_SPI_BAUDRATE_PRESCALER(hspi->Init.BaudRatePrescaler));
  assert_param(IS_SPI_FIRST_BIT(hspi->Init.FirstBit));
  assert_param(IS_SPI_TIMODE(hspi->Init.TIMode));
  if (hspi->Init.TIMode == SPI_TIMODE_DISABLE)
 80059b6:	687b      	ldr	r3, [r7, #4]
 80059b8:	6a5b      	ldr	r3, [r3, #36]	; 0x24
 80059ba:	2b00      	cmp	r3, #0
 80059bc:	d108      	bne.n	80059d0 <HAL_SPI_Init+0x2c>
  {
    assert_param(IS_SPI_CPOL(hspi->Init.CLKPolarity));
    assert_param(IS_SPI_CPHA(hspi->Init.CLKPhase));

    if (hspi->Init.Mode == SPI_MODE_MASTER)
 80059be:	687b      	ldr	r3, [r7, #4]
 80059c0:	685b      	ldr	r3, [r3, #4]
 80059c2:	f5b3 7f82 	cmp.w	r3, #260	; 0x104
 80059c6:	d009      	beq.n	80059dc <HAL_SPI_Init+0x38>
      assert_param(IS_SPI_BAUDRATE_PRESCALER(hspi->Init.BaudRatePrescaler));
    }
    else
    {
      /* Baudrate prescaler not use in Motoraola Slave mode. force to default value */
      hspi->Init.BaudRatePrescaler = SPI_BAUDRATEPRESCALER_2;
 80059c8:	687b      	ldr	r3, [r7, #4]
 80059ca:	2200      	movs	r2, #0
 80059cc:	61da      	str	r2, [r3, #28]
 80059ce:	e005      	b.n	80059dc <HAL_SPI_Init+0x38>
  else
  {
    assert_param(IS_SPI_BAUDRATE_PRESCALER(hspi->Init.BaudRatePrescaler));

    /* Force polarity and phase to TI protocaol requirements */
    hspi->Init.CLKPolarity = SPI_POLARITY_LOW;
 80059d0:	687b      	ldr	r3, [r7, #4]
 80059d2:	2200      	movs	r2, #0
 80059d4:	611a      	str	r2, [r3, #16]
    hspi->Init.CLKPhase    = SPI_PHASE_1EDGE;
 80059d6:	687b      	ldr	r3, [r7, #4]
 80059d8:	2200      	movs	r2, #0
 80059da:	615a      	str	r2, [r3, #20]
  {
    assert_param(IS_SPI_CRC_POLYNOMIAL(hspi->Init.CRCPolynomial));
    assert_param(IS_SPI_CRC_LENGTH(hspi->Init.CRCLength));
  }
#else
  hspi->Init.CRCCalculation = SPI_CRCCALCULATION_DISABLE;
 80059dc:	687b      	ldr	r3, [r7, #4]
 80059de:	2200      	movs	r2, #0
 80059e0:	629a      	str	r2, [r3, #40]	; 0x28
#endif /* USE_SPI_CRC */

  if (hspi->State == HAL_SPI_STATE_RESET)
 80059e2:	687b      	ldr	r3, [r7, #4]
 80059e4:	f893 305d 	ldrb.w	r3, [r3, #93]	; 0x5d
 80059e8:	b2db      	uxtb	r3, r3
 80059ea:	2b00      	cmp	r3, #0
 80059ec:	d106      	bne.n	80059fc <HAL_SPI_Init+0x58>
  {
    /* Allocate lock resource and initialize it */
    hspi->Lock = HAL_UNLOCKED;
 80059ee:	687b      	ldr	r3, [r7, #4]
 80059f0:	2200      	movs	r2, #0
 80059f2:	f883 205c 	strb.w	r2, [r3, #92]	; 0x5c

    /* Init the low level hardware : GPIO, CLOCK, NVIC... */
    hspi->MspInitCallback(hspi);
#else
    /* Init the low level hardware : GPIO, CLOCK, NVIC... */
    HAL_SPI_MspInit(hspi);
 80059f6:	6878      	ldr	r0, [r7, #4]
 80059f8:	f7fc ff52 	bl	80028a0 <HAL_SPI_MspInit>
#endif /* USE_HAL_SPI_REGISTER_CALLBACKS */
  }

  hspi->State = HAL_SPI_STATE_BUSY;
 80059fc:	687b      	ldr	r3, [r7, #4]
 80059fe:	2202      	movs	r2, #2
 8005a00:	f883 205d 	strb.w	r2, [r3, #93]	; 0x5d

  /* Disable the selected SPI peripheral */
  __HAL_SPI_DISABLE(hspi);
 8005a04:	687b      	ldr	r3, [r7, #4]
 8005a06:	681b      	ldr	r3, [r3, #0]
 8005a08:	681a      	ldr	r2, [r3, #0]
 8005a0a:	687b      	ldr	r3, [r7, #4]
 8005a0c:	681b      	ldr	r3, [r3, #0]
 8005a0e:	f022 0240 	bic.w	r2, r2, #64	; 0x40
 8005a12:	601a      	str	r2, [r3, #0]

  /* Align by default the rs fifo threshold on the data size */
  if (hspi->Init.DataSize > SPI_DATASIZE_8BIT)
 8005a14:	687b      	ldr	r3, [r7, #4]
 8005a16:	68db      	ldr	r3, [r3, #12]
 8005a18:	f5b3 6fe0 	cmp.w	r3, #1792	; 0x700
 8005a1c:	d902      	bls.n	8005a24 <HAL_SPI_Init+0x80>
  {
    frxth = SPI_RXFIFO_THRESHOLD_HF;
 8005a1e:	2300      	movs	r3, #0
 8005a20:	60fb      	str	r3, [r7, #12]
 8005a22:	e002      	b.n	8005a2a <HAL_SPI_Init+0x86>
  }
  else
  {
    frxth = SPI_RXFIFO_THRESHOLD_QF;
 8005a24:	f44f 5380 	mov.w	r3, #4096	; 0x1000
 8005a28:	60fb      	str	r3, [r7, #12]
  }

  /* CRC calculation is valid only for 16Bit and 8 Bit */
  if ((hspi->Init.DataSize != SPI_DATASIZE_16BIT) && (hspi->Init.DataSize != SPI_DATASIZE_8BIT))
 8005a2a:	687b      	ldr	r3, [r7, #4]
 8005a2c:	68db      	ldr	r3, [r3, #12]
 8005a2e:	f5b3 6f70 	cmp.w	r3, #3840	; 0xf00
 8005a32:	d007      	beq.n	8005a44 <HAL_SPI_Init+0xa0>
 8005a34:	687b      	ldr	r3, [r7, #4]
 8005a36:	68db      	ldr	r3, [r3, #12]
 8005a38:	f5b3 6fe0 	cmp.w	r3, #1792	; 0x700
 8005a3c:	d002      	beq.n	8005a44 <HAL_SPI_Init+0xa0>
  {
    /* CRC must be disabled */
    hspi->Init.CRCCalculation = SPI_CRCCALCULATION_DISABLE;
 8005a3e:	687b      	ldr	r3, [r7, #4]
 8005a40:	2200      	movs	r2, #0
 8005a42:	629a      	str	r2, [r3, #40]	; 0x28
  }

  /*----------------------- SPIx CR1 & CR2 Configuration ---------------------*/
  /* Configure : SPI Mode, Communication Mode, Clock polarity and phase, NSS management,
  Communication speed, First bit and CRC calculation state */
  WRITE_REG(hspi->Instance->CR1, ((hspi->Init.Mode & (SPI_CR1_MSTR | SPI_CR1_SSI)) |
 8005a44:	687b      	ldr	r3, [r7, #4]
 8005a46:	685b      	ldr	r3, [r3, #4]
 8005a48:	f403 7282 	and.w	r2, r3, #260	; 0x104
 8005a4c:	687b      	ldr	r3, [r7, #4]
 8005a4e:	689b      	ldr	r3, [r3, #8]
 8005a50:	f403 4304 	and.w	r3, r3, #33792	; 0x8400
 8005a54:	431a      	orrs	r2, r3
 8005a56:	687b      	ldr	r3, [r7, #4]
 8005a58:	691b      	ldr	r3, [r3, #16]
 8005a5a:	f003 0302 	and.w	r3, r3, #2
 8005a5e:	431a      	orrs	r2, r3
 8005a60:	687b      	ldr	r3, [r7, #4]
 8005a62:	695b      	ldr	r3, [r3, #20]
 8005a64:	f003 0301 	and.w	r3, r3, #1
 8005a68:	431a      	orrs	r2, r3
 8005a6a:	687b      	ldr	r3, [r7, #4]
 8005a6c:	699b      	ldr	r3, [r3, #24]
 8005a6e:	f403 7300 	and.w	r3, r3, #512	; 0x200
 8005a72:	431a      	orrs	r2, r3
 8005a74:	687b      	ldr	r3, [r7, #4]
 8005a76:	69db      	ldr	r3, [r3, #28]
 8005a78:	f003 0338 	and.w	r3, r3, #56	; 0x38
 8005a7c:	431a      	orrs	r2, r3
 8005a7e:	687b      	ldr	r3, [r7, #4]
 8005a80:	6a1b      	ldr	r3, [r3, #32]
 8005a82:	f003 0380 	and.w	r3, r3, #128	; 0x80
 8005a86:	ea42 0103 	orr.w	r1, r2, r3
 8005a8a:	687b      	ldr	r3, [r7, #4]
 8005a8c:	6a9b      	ldr	r3, [r3, #40]	; 0x28
 8005a8e:	f403 5200 	and.w	r2, r3, #8192	; 0x2000
 8005a92:	687b      	ldr	r3, [r7, #4]
 8005a94:	681b      	ldr	r3, [r3, #0]
 8005a96:	430a      	orrs	r2, r1
 8005a98:	601a      	str	r2, [r3, #0]
    }
  }
#endif /* USE_SPI_CRC */

  /* Configure : NSS management, TI Mode, NSS Pulse, Data size and Rx Fifo threshold */
  WRITE_REG(hspi->Instance->CR2, (((hspi->Init.NSS >> 16U) & SPI_CR2_SSOE) |
 8005a9a:	687b      	ldr	r3, [r7, #4]
 8005a9c:	699b      	ldr	r3, [r3, #24]
 8005a9e:	0c1b      	lsrs	r3, r3, #16
 8005aa0:	f003 0204 	and.w	r2, r3, #4
 8005aa4:	687b      	ldr	r3, [r7, #4]
 8005aa6:	6a5b      	ldr	r3, [r3, #36]	; 0x24
 8005aa8:	f003 0310 	and.w	r3, r3, #16
 8005aac:	431a      	orrs	r2, r3
 8005aae:	687b      	ldr	r3, [r7, #4]
 8005ab0:	6b5b      	ldr	r3, [r3, #52]	; 0x34
 8005ab2:	f003 0308 	and.w	r3, r3, #8
 8005ab6:	431a      	orrs	r2, r3
 8005ab8:	687b      	ldr	r3, [r7, #4]
 8005aba:	68db      	ldr	r3, [r3, #12]
 8005abc:	f403 6370 	and.w	r3, r3, #3840	; 0xf00
 8005ac0:	ea42 0103 	orr.w	r1, r2, r3
 8005ac4:	68fb      	ldr	r3, [r7, #12]
 8005ac6:	f403 5280 	and.w	r2, r3, #4096	; 0x1000
 8005aca:	687b      	ldr	r3, [r7, #4]
 8005acc:	681b      	ldr	r3, [r3, #0]
 8005ace:	430a      	orrs	r2, r1
 8005ad0:	605a      	str	r2, [r3, #4]
  }
#endif /* USE_SPI_CRC */

#if defined(SPI_I2SCFGR_I2SMOD)
  /* Activate the SPI mode (Make sure that I2SMOD bit in I2SCFGR register is reset) */
  CLEAR_BIT(hspi->Instance->I2SCFGR, SPI_I2SCFGR_I2SMOD);
 8005ad2:	687b      	ldr	r3, [r7, #4]
 8005ad4:	681b      	ldr	r3, [r3, #0]
 8005ad6:	69da      	ldr	r2, [r3, #28]
 8005ad8:	687b      	ldr	r3, [r7, #4]
 8005ada:	681b      	ldr	r3, [r3, #0]
 8005adc:	f422 6200 	bic.w	r2, r2, #2048	; 0x800
 8005ae0:	61da      	str	r2, [r3, #28]
#endif /* SPI_I2SCFGR_I2SMOD */

  hspi->ErrorCode = HAL_SPI_ERROR_NONE;
 8005ae2:	687b      	ldr	r3, [r7, #4]
 8005ae4:	2200      	movs	r2, #0
 8005ae6:	661a      	str	r2, [r3, #96]	; 0x60
  hspi->State     = HAL_SPI_STATE_READY;
 8005ae8:	687b      	ldr	r3, [r7, #4]
 8005aea:	2201      	movs	r2, #1
 8005aec:	f883 205d 	strb.w	r2, [r3, #93]	; 0x5d

  return HAL_OK;
 8005af0:	2300      	movs	r3, #0
}
 8005af2:	4618      	mov	r0, r3
 8005af4:	3710      	adds	r7, #16
 8005af6:	46bd      	mov	sp, r7
 8005af8:	bd80      	pop	{r7, pc}

08005afa <HAL_TIM_Base_Init>:
  *         Ex: call @ref HAL_TIM_Base_DeInit() before HAL_TIM_Base_Init()
  * @param  htim TIM Base handle
  * @retval HAL status
  */
HAL_StatusTypeDef HAL_TIM_Base_Init(TIM_HandleTypeDef *htim)
{
 8005afa:	b580      	push	{r7, lr}
 8005afc:	b082      	sub	sp, #8
 8005afe:	af00      	add	r7, sp, #0
 8005b00:	6078      	str	r0, [r7, #4]
  /* Check the TIM handle allocation */
  if (htim == NULL)
 8005b02:	687b      	ldr	r3, [r7, #4]
 8005b04:	2b00      	cmp	r3, #0
 8005b06:	d101      	bne.n	8005b0c <HAL_TIM_Base_Init+0x12>
  {
    return HAL_ERROR;
 8005b08:	2301      	movs	r3, #1
 8005b0a:	e049      	b.n	8005ba0 <HAL_TIM_Base_Init+0xa6>
  assert_param(IS_TIM_COUNTER_MODE(htim->Init.CounterMode));
  assert_param(IS_TIM_CLOCKDIVISION_DIV(htim->Init.ClockDivision));
  assert_param(IS_TIM_PERIOD(htim, htim->Init.Period));
  assert_param(IS_TIM_AUTORELOAD_PRELOAD(htim->Init.AutoReloadPreload));

  if (htim->State == HAL_TIM_STATE_RESET)
 8005b0c:	687b      	ldr	r3, [r7, #4]
 8005b0e:	f893 303d 	ldrb.w	r3, [r3, #61]	; 0x3d
 8005b12:	b2db      	uxtb	r3, r3
 8005b14:	2b00      	cmp	r3, #0
 8005b16:	d106      	bne.n	8005b26 <HAL_TIM_Base_Init+0x2c>
  {
    /* Allocate lock resource and initialize it */
    htim->Lock = HAL_UNLOCKED;
 8005b18:	687b      	ldr	r3, [r7, #4]
 8005b1a:	2200      	movs	r2, #0
 8005b1c:	f883 203c 	strb.w	r2, [r3, #60]	; 0x3c
    }
    /* Init the low level hardware : GPIO, CLOCK, NVIC */
    htim->Base_MspInitCallback(htim);
#else
    /* Init the low level hardware : GPIO, CLOCK, NVIC */
    HAL_TIM_Base_MspInit(htim);
 8005b20:	6878      	ldr	r0, [r7, #4]
 8005b22:	f7fc feff 	bl	8002924 <HAL_TIM_Base_MspInit>
#endif /* USE_HAL_TIM_REGISTER_CALLBACKS */
  }

  /* Set the TIM state */
  htim->State = HAL_TIM_STATE_BUSY;
 8005b26:	687b      	ldr	r3, [r7, #4]
 8005b28:	2202      	movs	r2, #2
 8005b2a:	f883 203d 	strb.w	r2, [r3, #61]	; 0x3d

  /* Set the Time Base configuration */
  TIM_Base_SetConfig(htim->Instance, &htim->Init);
 8005b2e:	687b      	ldr	r3, [r7, #4]
 8005b30:	681a      	ldr	r2, [r3, #0]
 8005b32:	687b      	ldr	r3, [r7, #4]
 8005b34:	3304      	adds	r3, #4
 8005b36:	4619      	mov	r1, r3
 8005b38:	4610      	mov	r0, r2
 8005b3a:	f000 fdc9 	bl	80066d0 <TIM_Base_SetConfig>

  /* Initialize the DMA burst operation state */
  htim->DMABurstState = HAL_DMA_BURST_STATE_READY;
 8005b3e:	687b      	ldr	r3, [r7, #4]
 8005b40:	2201      	movs	r2, #1
 8005b42:	f883 2048 	strb.w	r2, [r3, #72]	; 0x48

  /* Initialize the TIM channels state */
  TIM_CHANNEL_STATE_SET_ALL(htim, HAL_TIM_CHANNEL_STATE_READY);
 8005b46:	687b      	ldr	r3, [r7, #4]
 8005b48:	2201      	movs	r2, #1
 8005b4a:	f883 203e 	strb.w	r2, [r3, #62]	; 0x3e
 8005b4e:	687b      	ldr	r3, [r7, #4]
 8005b50:	2201      	movs	r2, #1
 8005b52:	f883 203f 	strb.w	r2, [r3, #63]	; 0x3f
 8005b56:	687b      	ldr	r3, [r7, #4]
 8005b58:	2201      	movs	r2, #1
 8005b5a:	f883 2040 	strb.w	r2, [r3, #64]	; 0x40
 8005b5e:	687b      	ldr	r3, [r7, #4]
 8005b60:	2201      	movs	r2, #1
 8005b62:	f883 2041 	strb.w	r2, [r3, #65]	; 0x41
 8005b66:	687b      	ldr	r3, [r7, #4]
 8005b68:	2201      	movs	r2, #1
 8005b6a:	f883 2042 	strb.w	r2, [r3, #66]	; 0x42
 8005b6e:	687b      	ldr	r3, [r7, #4]
 8005b70:	2201      	movs	r2, #1
 8005b72:	f883 2043 	strb.w	r2, [r3, #67]	; 0x43
  TIM_CHANNEL_N_STATE_SET_ALL(htim, HAL_TIM_CHANNEL_STATE_READY);
 8005b76:	687b      	ldr	r3, [r7, #4]
 8005b78:	2201      	movs	r2, #1
 8005b7a:	f883 2044 	strb.w	r2, [r3, #68]	; 0x44
 8005b7e:	687b      	ldr	r3, [r7, #4]
 8005b80:	2201      	movs	r2, #1
 8005b82:	f883 2045 	strb.w	r2, [r3, #69]	; 0x45
 8005b86:	687b      	ldr	r3, [r7, #4]
 8005b88:	2201      	movs	r2, #1
 8005b8a:	f883 2046 	strb.w	r2, [r3, #70]	; 0x46
 8005b8e:	687b      	ldr	r3, [r7, #4]
 8005b90:	2201      	movs	r2, #1
 8005b92:	f883 2047 	strb.w	r2, [r3, #71]	; 0x47

  /* Initialize the TIM state*/
  htim->State = HAL_TIM_STATE_READY;
 8005b96:	687b      	ldr	r3, [r7, #4]
 8005b98:	2201      	movs	r2, #1
 8005b9a:	f883 203d 	strb.w	r2, [r3, #61]	; 0x3d

  return HAL_OK;
 8005b9e:	2300      	movs	r3, #0
}
 8005ba0:	4618      	mov	r0, r3
 8005ba2:	3708      	adds	r7, #8
 8005ba4:	46bd      	mov	sp, r7
 8005ba6:	bd80      	pop	{r7, pc}

08005ba8 <HAL_TIM_PWM_Start>:
  *            @arg TIM_CHANNEL_6: TIM Channel 6 selected (*)
  *         (*) Value not defined for all devices
  * @retval HAL status
  */
HAL_StatusTypeDef HAL_TIM_PWM_Start(TIM_HandleTypeDef *htim, uint32_t Channel)
{
 8005ba8:	b580      	push	{r7, lr}
 8005baa:	b084      	sub	sp, #16
 8005bac:	af00      	add	r7, sp, #0
 8005bae:	6078      	str	r0, [r7, #4]
 8005bb0:	6039      	str	r1, [r7, #0]

  /* Check the parameters */
  assert_param(IS_TIM_CCX_INSTANCE(htim->Instance, Channel));

  /* Check the TIM channel state */
  if (TIM_CHANNEL_STATE_GET(htim, Channel) != HAL_TIM_CHANNEL_STATE_READY)
 8005bb2:	683b      	ldr	r3, [r7, #0]
 8005bb4:	2b00      	cmp	r3, #0
 8005bb6:	d109      	bne.n	8005bcc <HAL_TIM_PWM_Start+0x24>
 8005bb8:	687b      	ldr	r3, [r7, #4]
 8005bba:	f893 303e 	ldrb.w	r3, [r3, #62]	; 0x3e
 8005bbe:	b2db      	uxtb	r3, r3
 8005bc0:	2b01      	cmp	r3, #1
 8005bc2:	bf14      	ite	ne
 8005bc4:	2301      	movne	r3, #1
 8005bc6:	2300      	moveq	r3, #0
 8005bc8:	b2db      	uxtb	r3, r3
 8005bca:	e03c      	b.n	8005c46 <HAL_TIM_PWM_Start+0x9e>
 8005bcc:	683b      	ldr	r3, [r7, #0]
 8005bce:	2b04      	cmp	r3, #4
 8005bd0:	d109      	bne.n	8005be6 <HAL_TIM_PWM_Start+0x3e>
 8005bd2:	687b      	ldr	r3, [r7, #4]
 8005bd4:	f893 303f 	ldrb.w	r3, [r3, #63]	; 0x3f
 8005bd8:	b2db      	uxtb	r3, r3
 8005bda:	2b01      	cmp	r3, #1
 8005bdc:	bf14      	ite	ne
 8005bde:	2301      	movne	r3, #1
 8005be0:	2300      	moveq	r3, #0
 8005be2:	b2db      	uxtb	r3, r3
 8005be4:	e02f      	b.n	8005c46 <HAL_TIM_PWM_Start+0x9e>
 8005be6:	683b      	ldr	r3, [r7, #0]
 8005be8:	2b08      	cmp	r3, #8
 8005bea:	d109      	bne.n	8005c00 <HAL_TIM_PWM_Start+0x58>
 8005bec:	687b      	ldr	r3, [r7, #4]
 8005bee:	f893 3040 	ldrb.w	r3, [r3, #64]	; 0x40
 8005bf2:	b2db      	uxtb	r3, r3
 8005bf4:	2b01      	cmp	r3, #1
 8005bf6:	bf14      	ite	ne
 8005bf8:	2301      	movne	r3, #1
 8005bfa:	2300      	moveq	r3, #0
 8005bfc:	b2db      	uxtb	r3, r3
 8005bfe:	e022      	b.n	8005c46 <HAL_TIM_PWM_Start+0x9e>
 8005c00:	683b      	ldr	r3, [r7, #0]
 8005c02:	2b0c      	cmp	r3, #12
 8005c04:	d109      	bne.n	8005c1a <HAL_TIM_PWM_Start+0x72>
 8005c06:	687b      	ldr	r3, [r7, #4]
 8005c08:	f893 3041 	ldrb.w	r3, [r3, #65]	; 0x41
 8005c0c:	b2db      	uxtb	r3, r3
 8005c0e:	2b01      	cmp	r3, #1
 8005c10:	bf14      	ite	ne
 8005c12:	2301      	movne	r3, #1
 8005c14:	2300      	moveq	r3, #0
 8005c16:	b2db      	uxtb	r3, r3
 8005c18:	e015      	b.n	8005c46 <HAL_TIM_PWM_Start+0x9e>
 8005c1a:	683b      	ldr	r3, [r7, #0]
 8005c1c:	2b10      	cmp	r3, #16
 8005c1e:	d109      	bne.n	8005c34 <HAL_TIM_PWM_Start+0x8c>
 8005c20:	687b      	ldr	r3, [r7, #4]
 8005c22:	f893 3042 	ldrb.w	r3, [r3, #66]	; 0x42
 8005c26:	b2db      	uxtb	r3, r3
 8005c28:	2b01      	cmp	r3, #1
 8005c2a:	bf14      	ite	ne
 8005c2c:	2301      	movne	r3, #1
 8005c2e:	2300      	moveq	r3, #0
 8005c30:	b2db      	uxtb	r3, r3
 8005c32:	e008      	b.n	8005c46 <HAL_TIM_PWM_Start+0x9e>
 8005c34:	687b      	ldr	r3, [r7, #4]
 8005c36:	f893 3043 	ldrb.w	r3, [r3, #67]	; 0x43
 8005c3a:	b2db      	uxtb	r3, r3
 8005c3c:	2b01      	cmp	r3, #1
 8005c3e:	bf14      	ite	ne
 8005c40:	2301      	movne	r3, #1
 8005c42:	2300      	moveq	r3, #0
 8005c44:	b2db      	uxtb	r3, r3
 8005c46:	2b00      	cmp	r3, #0
 8005c48:	d001      	beq.n	8005c4e <HAL_TIM_PWM_Start+0xa6>
  {
    return HAL_ERROR;
 8005c4a:	2301      	movs	r3, #1
 8005c4c:	e097      	b.n	8005d7e <HAL_TIM_PWM_Start+0x1d6>
  }

  /* Set the TIM channel state */
  TIM_CHANNEL_STATE_SET(htim, Channel, HAL_TIM_CHANNEL_STATE_BUSY);
 8005c4e:	683b      	ldr	r3, [r7, #0]
 8005c50:	2b00      	cmp	r3, #0
 8005c52:	d104      	bne.n	8005c5e <HAL_TIM_PWM_Start+0xb6>
 8005c54:	687b      	ldr	r3, [r7, #4]
 8005c56:	2202      	movs	r2, #2
 8005c58:	f883 203e 	strb.w	r2, [r3, #62]	; 0x3e
 8005c5c:	e023      	b.n	8005ca6 <HAL_TIM_PWM_Start+0xfe>
 8005c5e:	683b      	ldr	r3, [r7, #0]
 8005c60:	2b04      	cmp	r3, #4
 8005c62:	d104      	bne.n	8005c6e <HAL_TIM_PWM_Start+0xc6>
 8005c64:	687b      	ldr	r3, [r7, #4]
 8005c66:	2202      	movs	r2, #2
 8005c68:	f883 203f 	strb.w	r2, [r3, #63]	; 0x3f
 8005c6c:	e01b      	b.n	8005ca6 <HAL_TIM_PWM_Start+0xfe>
 8005c6e:	683b      	ldr	r3, [r7, #0]
 8005c70:	2b08      	cmp	r3, #8
 8005c72:	d104      	bne.n	8005c7e <HAL_TIM_PWM_Start+0xd6>
 8005c74:	687b      	ldr	r3, [r7, #4]
 8005c76:	2202      	movs	r2, #2
 8005c78:	f883 2040 	strb.w	r2, [r3, #64]	; 0x40
 8005c7c:	e013      	b.n	8005ca6 <HAL_TIM_PWM_Start+0xfe>
 8005c7e:	683b      	ldr	r3, [r7, #0]
 8005c80:	2b0c      	cmp	r3, #12
 8005c82:	d104      	bne.n	8005c8e <HAL_TIM_PWM_Start+0xe6>
 8005c84:	687b      	ldr	r3, [r7, #4]
 8005c86:	2202      	movs	r2, #2
 8005c88:	f883 2041 	strb.w	r2, [r3, #65]	; 0x41
 8005c8c:	e00b      	b.n	8005ca6 <HAL_TIM_PWM_Start+0xfe>
 8005c8e:	683b      	ldr	r3, [r7, #0]
 8005c90:	2b10      	cmp	r3, #16
 8005c92:	d104      	bne.n	8005c9e <HAL_TIM_PWM_Start+0xf6>
 8005c94:	687b      	ldr	r3, [r7, #4]
 8005c96:	2202      	movs	r2, #2
 8005c98:	f883 2042 	strb.w	r2, [r3, #66]	; 0x42
 8005c9c:	e003      	b.n	8005ca6 <HAL_TIM_PWM_Start+0xfe>
 8005c9e:	687b      	ldr	r3, [r7, #4]
 8005ca0:	2202      	movs	r2, #2
 8005ca2:	f883 2043 	strb.w	r2, [r3, #67]	; 0x43

  /* Enable the Capture compare channel */
  TIM_CCxChannelCmd(htim->Instance, Channel, TIM_CCx_ENABLE);
 8005ca6:	687b      	ldr	r3, [r7, #4]
 8005ca8:	681b      	ldr	r3, [r3, #0]
 8005caa:	2201      	movs	r2, #1
 8005cac:	6839      	ldr	r1, [r7, #0]
 8005cae:	4618      	mov	r0, r3
 8005cb0:	f000 ff56 	bl	8006b60 <TIM_CCxChannelCmd>

  if (IS_TIM_BREAK_INSTANCE(htim->Instance) != RESET)
 8005cb4:	687b      	ldr	r3, [r7, #4]
 8005cb6:	681b      	ldr	r3, [r3, #0]
 8005cb8:	4a33      	ldr	r2, [pc, #204]	; (8005d88 <HAL_TIM_PWM_Start+0x1e0>)
 8005cba:	4293      	cmp	r3, r2
 8005cbc:	d013      	beq.n	8005ce6 <HAL_TIM_PWM_Start+0x13e>
 8005cbe:	687b      	ldr	r3, [r7, #4]
 8005cc0:	681b      	ldr	r3, [r3, #0]
 8005cc2:	4a32      	ldr	r2, [pc, #200]	; (8005d8c <HAL_TIM_PWM_Start+0x1e4>)
 8005cc4:	4293      	cmp	r3, r2
 8005cc6:	d00e      	beq.n	8005ce6 <HAL_TIM_PWM_Start+0x13e>
 8005cc8:	687b      	ldr	r3, [r7, #4]
 8005cca:	681b      	ldr	r3, [r3, #0]
 8005ccc:	4a30      	ldr	r2, [pc, #192]	; (8005d90 <HAL_TIM_PWM_Start+0x1e8>)
 8005cce:	4293      	cmp	r3, r2
 8005cd0:	d009      	beq.n	8005ce6 <HAL_TIM_PWM_Start+0x13e>
 8005cd2:	687b      	ldr	r3, [r7, #4]
 8005cd4:	681b      	ldr	r3, [r3, #0]
 8005cd6:	4a2f      	ldr	r2, [pc, #188]	; (8005d94 <HAL_TIM_PWM_Start+0x1ec>)
 8005cd8:	4293      	cmp	r3, r2
 8005cda:	d004      	beq.n	8005ce6 <HAL_TIM_PWM_Start+0x13e>
 8005cdc:	687b      	ldr	r3, [r7, #4]
 8005cde:	681b      	ldr	r3, [r3, #0]
 8005ce0:	4a2d      	ldr	r2, [pc, #180]	; (8005d98 <HAL_TIM_PWM_Start+0x1f0>)
 8005ce2:	4293      	cmp	r3, r2
 8005ce4:	d101      	bne.n	8005cea <HAL_TIM_PWM_Start+0x142>
 8005ce6:	2301      	movs	r3, #1
 8005ce8:	e000      	b.n	8005cec <HAL_TIM_PWM_Start+0x144>
 8005cea:	2300      	movs	r3, #0
 8005cec:	2b00      	cmp	r3, #0
 8005cee:	d007      	beq.n	8005d00 <HAL_TIM_PWM_Start+0x158>
  {
    /* Enable the main output */
    __HAL_TIM_MOE_ENABLE(htim);
 8005cf0:	687b      	ldr	r3, [r7, #4]
 8005cf2:	681b      	ldr	r3, [r3, #0]
 8005cf4:	6c5a      	ldr	r2, [r3, #68]	; 0x44
 8005cf6:	687b      	ldr	r3, [r7, #4]
 8005cf8:	681b      	ldr	r3, [r3, #0]
 8005cfa:	f442 4200 	orr.w	r2, r2, #32768	; 0x8000
 8005cfe:	645a      	str	r2, [r3, #68]	; 0x44
  }

  /* Enable the Peripheral, except in trigger mode where enable is automatically done with trigger */
  if (IS_TIM_SLAVE_INSTANCE(htim->Instance))
 8005d00:	687b      	ldr	r3, [r7, #4]
 8005d02:	681b      	ldr	r3, [r3, #0]
 8005d04:	4a20      	ldr	r2, [pc, #128]	; (8005d88 <HAL_TIM_PWM_Start+0x1e0>)
 8005d06:	4293      	cmp	r3, r2
 8005d08:	d018      	beq.n	8005d3c <HAL_TIM_PWM_Start+0x194>
 8005d0a:	687b      	ldr	r3, [r7, #4]
 8005d0c:	681b      	ldr	r3, [r3, #0]
 8005d0e:	f1b3 4f80 	cmp.w	r3, #1073741824	; 0x40000000
 8005d12:	d013      	beq.n	8005d3c <HAL_TIM_PWM_Start+0x194>
 8005d14:	687b      	ldr	r3, [r7, #4]
 8005d16:	681b      	ldr	r3, [r3, #0]
 8005d18:	4a20      	ldr	r2, [pc, #128]	; (8005d9c <HAL_TIM_PWM_Start+0x1f4>)
 8005d1a:	4293      	cmp	r3, r2
 8005d1c:	d00e      	beq.n	8005d3c <HAL_TIM_PWM_Start+0x194>
 8005d1e:	687b      	ldr	r3, [r7, #4]
 8005d20:	681b      	ldr	r3, [r3, #0]
 8005d22:	4a1f      	ldr	r2, [pc, #124]	; (8005da0 <HAL_TIM_PWM_Start+0x1f8>)
 8005d24:	4293      	cmp	r3, r2
 8005d26:	d009      	beq.n	8005d3c <HAL_TIM_PWM_Start+0x194>
 8005d28:	687b      	ldr	r3, [r7, #4]
 8005d2a:	681b      	ldr	r3, [r3, #0]
 8005d2c:	4a17      	ldr	r2, [pc, #92]	; (8005d8c <HAL_TIM_PWM_Start+0x1e4>)
 8005d2e:	4293      	cmp	r3, r2
 8005d30:	d004      	beq.n	8005d3c <HAL_TIM_PWM_Start+0x194>
 8005d32:	687b      	ldr	r3, [r7, #4]
 8005d34:	681b      	ldr	r3, [r3, #0]
 8005d36:	4a16      	ldr	r2, [pc, #88]	; (8005d90 <HAL_TIM_PWM_Start+0x1e8>)
 8005d38:	4293      	cmp	r3, r2
 8005d3a:	d115      	bne.n	8005d68 <HAL_TIM_PWM_Start+0x1c0>
  {
    tmpsmcr = htim->Instance->SMCR & TIM_SMCR_SMS;
 8005d3c:	687b      	ldr	r3, [r7, #4]
 8005d3e:	681b      	ldr	r3, [r3, #0]
 8005d40:	689a      	ldr	r2, [r3, #8]
 8005d42:	4b18      	ldr	r3, [pc, #96]	; (8005da4 <HAL_TIM_PWM_Start+0x1fc>)
 8005d44:	4013      	ands	r3, r2
 8005d46:	60fb      	str	r3, [r7, #12]
    if (!IS_TIM_SLAVEMODE_TRIGGER_ENABLED(tmpsmcr))
 8005d48:	68fb      	ldr	r3, [r7, #12]
 8005d4a:	2b06      	cmp	r3, #6
 8005d4c:	d015      	beq.n	8005d7a <HAL_TIM_PWM_Start+0x1d2>
 8005d4e:	68fb      	ldr	r3, [r7, #12]
 8005d50:	f5b3 3f80 	cmp.w	r3, #65536	; 0x10000
 8005d54:	d011      	beq.n	8005d7a <HAL_TIM_PWM_Start+0x1d2>
    {
      __HAL_TIM_ENABLE(htim);
 8005d56:	687b      	ldr	r3, [r7, #4]
 8005d58:	681b      	ldr	r3, [r3, #0]
 8005d5a:	681a      	ldr	r2, [r3, #0]
 8005d5c:	687b      	ldr	r3, [r7, #4]
 8005d5e:	681b      	ldr	r3, [r3, #0]
 8005d60:	f042 0201 	orr.w	r2, r2, #1
 8005d64:	601a      	str	r2, [r3, #0]
    if (!IS_TIM_SLAVEMODE_TRIGGER_ENABLED(tmpsmcr))
 8005d66:	e008      	b.n	8005d7a <HAL_TIM_PWM_Start+0x1d2>
    }
  }
  else
  {
    __HAL_TIM_ENABLE(htim);
 8005d68:	687b      	ldr	r3, [r7, #4]
 8005d6a:	681b      	ldr	r3, [r3, #0]
 8005d6c:	681a      	ldr	r2, [r3, #0]
 8005d6e:	687b      	ldr	r3, [r7, #4]
 8005d70:	681b      	ldr	r3, [r3, #0]
 8005d72:	f042 0201 	orr.w	r2, r2, #1
 8005d76:	601a      	str	r2, [r3, #0]
 8005d78:	e000      	b.n	8005d7c <HAL_TIM_PWM_Start+0x1d4>
    if (!IS_TIM_SLAVEMODE_TRIGGER_ENABLED(tmpsmcr))
 8005d7a:	bf00      	nop
  }

  /* Return function status */
  return HAL_OK;
 8005d7c:	2300      	movs	r3, #0
}
 8005d7e:	4618      	mov	r0, r3
 8005d80:	3710      	adds	r7, #16
 8005d82:	46bd      	mov	sp, r7
 8005d84:	bd80      	pop	{r7, pc}
 8005d86:	bf00      	nop
 8005d88:	40012c00 	.word	0x40012c00
 8005d8c:	40013400 	.word	0x40013400
 8005d90:	40014000 	.word	0x40014000
 8005d94:	40014400 	.word	0x40014400
 8005d98:	40014800 	.word	0x40014800
 8005d9c:	40000400 	.word	0x40000400
 8005da0:	40000800 	.word	0x40000800
 8005da4:	00010007 	.word	0x00010007

08005da8 <HAL_TIM_IC_Init>:
  *         Ex: call @ref HAL_TIM_IC_DeInit() before HAL_TIM_IC_Init()
  * @param  htim TIM Input Capture handle
  * @retval HAL status
  */
HAL_StatusTypeDef HAL_TIM_IC_Init(TIM_HandleTypeDef *htim)
{
 8005da8:	b580      	push	{r7, lr}
 8005daa:	b082      	sub	sp, #8
 8005dac:	af00      	add	r7, sp, #0
 8005dae:	6078      	str	r0, [r7, #4]
  /* Check the TIM handle allocation */
  if (htim == NULL)
 8005db0:	687b      	ldr	r3, [r7, #4]
 8005db2:	2b00      	cmp	r3, #0
 8005db4:	d101      	bne.n	8005dba <HAL_TIM_IC_Init+0x12>
  {
    return HAL_ERROR;
 8005db6:	2301      	movs	r3, #1
 8005db8:	e049      	b.n	8005e4e <HAL_TIM_IC_Init+0xa6>
  assert_param(IS_TIM_COUNTER_MODE(htim->Init.CounterMode));
  assert_param(IS_TIM_CLOCKDIVISION_DIV(htim->Init.ClockDivision));
  assert_param(IS_TIM_PERIOD(htim, htim->Init.Period));
  assert_param(IS_TIM_AUTORELOAD_PRELOAD(htim->Init.AutoReloadPreload));

  if (htim->State == HAL_TIM_STATE_RESET)
 8005dba:	687b      	ldr	r3, [r7, #4]
 8005dbc:	f893 303d 	ldrb.w	r3, [r3, #61]	; 0x3d
 8005dc0:	b2db      	uxtb	r3, r3
 8005dc2:	2b00      	cmp	r3, #0
 8005dc4:	d106      	bne.n	8005dd4 <HAL_TIM_IC_Init+0x2c>
  {
    /* Allocate lock resource and initialize it */
    htim->Lock = HAL_UNLOCKED;
 8005dc6:	687b      	ldr	r3, [r7, #4]
 8005dc8:	2200      	movs	r2, #0
 8005dca:	f883 203c 	strb.w	r2, [r3, #60]	; 0x3c
    }
    /* Init the low level hardware : GPIO, CLOCK, NVIC */
    htim->IC_MspInitCallback(htim);
#else
    /* Init the low level hardware : GPIO, CLOCK, NVIC and DMA */
    HAL_TIM_IC_MspInit(htim);
 8005dce:	6878      	ldr	r0, [r7, #4]
 8005dd0:	f000 f841 	bl	8005e56 <HAL_TIM_IC_MspInit>
#endif /* USE_HAL_TIM_REGISTER_CALLBACKS */
  }

  /* Set the TIM state */
  htim->State = HAL_TIM_STATE_BUSY;
 8005dd4:	687b      	ldr	r3, [r7, #4]
 8005dd6:	2202      	movs	r2, #2
 8005dd8:	f883 203d 	strb.w	r2, [r3, #61]	; 0x3d

  /* Init the base time for the input capture */
  TIM_Base_SetConfig(htim->Instance, &htim->Init);
 8005ddc:	687b      	ldr	r3, [r7, #4]
 8005dde:	681a      	ldr	r2, [r3, #0]
 8005de0:	687b      	ldr	r3, [r7, #4]
 8005de2:	3304      	adds	r3, #4
 8005de4:	4619      	mov	r1, r3
 8005de6:	4610      	mov	r0, r2
 8005de8:	f000 fc72 	bl	80066d0 <TIM_Base_SetConfig>

  /* Initialize the DMA burst operation state */
  htim->DMABurstState = HAL_DMA_BURST_STATE_READY;
 8005dec:	687b      	ldr	r3, [r7, #4]
 8005dee:	2201      	movs	r2, #1
 8005df0:	f883 2048 	strb.w	r2, [r3, #72]	; 0x48

  /* Initialize the TIM channels state */
  TIM_CHANNEL_STATE_SET_ALL(htim, HAL_TIM_CHANNEL_STATE_READY);
 8005df4:	687b      	ldr	r3, [r7, #4]
 8005df6:	2201      	movs	r2, #1
 8005df8:	f883 203e 	strb.w	r2, [r3, #62]	; 0x3e
 8005dfc:	687b      	ldr	r3, [r7, #4]
 8005dfe:	2201      	movs	r2, #1
 8005e00:	f883 203f 	strb.w	r2, [r3, #63]	; 0x3f
 8005e04:	687b      	ldr	r3, [r7, #4]
 8005e06:	2201      	movs	r2, #1
 8005e08:	f883 2040 	strb.w	r2, [r3, #64]	; 0x40
 8005e0c:	687b      	ldr	r3, [r7, #4]
 8005e0e:	2201      	movs	r2, #1
 8005e10:	f883 2041 	strb.w	r2, [r3, #65]	; 0x41
 8005e14:	687b      	ldr	r3, [r7, #4]
 8005e16:	2201      	movs	r2, #1
 8005e18:	f883 2042 	strb.w	r2, [r3, #66]	; 0x42
 8005e1c:	687b      	ldr	r3, [r7, #4]
 8005e1e:	2201      	movs	r2, #1
 8005e20:	f883 2043 	strb.w	r2, [r3, #67]	; 0x43
  TIM_CHANNEL_N_STATE_SET_ALL(htim, HAL_TIM_CHANNEL_STATE_READY);
 8005e24:	687b      	ldr	r3, [r7, #4]
 8005e26:	2201      	movs	r2, #1
 8005e28:	f883 2044 	strb.w	r2, [r3, #68]	; 0x44
 8005e2c:	687b      	ldr	r3, [r7, #4]
 8005e2e:	2201      	movs	r2, #1
 8005e30:	f883 2045 	strb.w	r2, [r3, #69]	; 0x45
 8005e34:	687b      	ldr	r3, [r7, #4]
 8005e36:	2201      	movs	r2, #1
 8005e38:	f883 2046 	strb.w	r2, [r3, #70]	; 0x46
 8005e3c:	687b      	ldr	r3, [r7, #4]
 8005e3e:	2201      	movs	r2, #1
 8005e40:	f883 2047 	strb.w	r2, [r3, #71]	; 0x47

  /* Initialize the TIM state*/
  htim->State = HAL_TIM_STATE_READY;
 8005e44:	687b      	ldr	r3, [r7, #4]
 8005e46:	2201      	movs	r2, #1
 8005e48:	f883 203d 	strb.w	r2, [r3, #61]	; 0x3d

  return HAL_OK;
 8005e4c:	2300      	movs	r3, #0
}
 8005e4e:	4618      	mov	r0, r3
 8005e50:	3708      	adds	r7, #8
 8005e52:	46bd      	mov	sp, r7
 8005e54:	bd80      	pop	{r7, pc}

08005e56 <HAL_TIM_IC_MspInit>:
  * @brief  Initializes the TIM Input Capture MSP.
  * @param  htim TIM Input Capture handle
  * @retval None
  */
__weak void HAL_TIM_IC_MspInit(TIM_HandleTypeDef *htim)
{
 8005e56:	b480      	push	{r7}
 8005e58:	b083      	sub	sp, #12
 8005e5a:	af00      	add	r7, sp, #0
 8005e5c:	6078      	str	r0, [r7, #4]
  UNUSED(htim);

  /* NOTE : This function should not be modified, when the callback is needed,
            the HAL_TIM_IC_MspInit could be implemented in the user file
   */
}
 8005e5e:	bf00      	nop
 8005e60:	370c      	adds	r7, #12
 8005e62:	46bd      	mov	sp, r7
 8005e64:	f85d 7b04 	ldr.w	r7, [sp], #4
 8005e68:	4770      	bx	lr
	...

08005e6c <HAL_TIM_IC_Start_IT>:
  *            @arg TIM_CHANNEL_3: TIM Channel 3 selected
  *            @arg TIM_CHANNEL_4: TIM Channel 4 selected
  * @retval HAL status
  */
HAL_StatusTypeDef HAL_TIM_IC_Start_IT(TIM_HandleTypeDef *htim, uint32_t Channel)
{
 8005e6c:	b580      	push	{r7, lr}
 8005e6e:	b084      	sub	sp, #16
 8005e70:	af00      	add	r7, sp, #0
 8005e72:	6078      	str	r0, [r7, #4]
 8005e74:	6039      	str	r1, [r7, #0]
  HAL_StatusTypeDef status = HAL_OK;
 8005e76:	2300      	movs	r3, #0
 8005e78:	73fb      	strb	r3, [r7, #15]
  uint32_t tmpsmcr;

  HAL_TIM_ChannelStateTypeDef channel_state = TIM_CHANNEL_STATE_GET(htim, Channel);
 8005e7a:	683b      	ldr	r3, [r7, #0]
 8005e7c:	2b00      	cmp	r3, #0
 8005e7e:	d104      	bne.n	8005e8a <HAL_TIM_IC_Start_IT+0x1e>
 8005e80:	687b      	ldr	r3, [r7, #4]
 8005e82:	f893 303e 	ldrb.w	r3, [r3, #62]	; 0x3e
 8005e86:	b2db      	uxtb	r3, r3
 8005e88:	e023      	b.n	8005ed2 <HAL_TIM_IC_Start_IT+0x66>
 8005e8a:	683b      	ldr	r3, [r7, #0]
 8005e8c:	2b04      	cmp	r3, #4
 8005e8e:	d104      	bne.n	8005e9a <HAL_TIM_IC_Start_IT+0x2e>
 8005e90:	687b      	ldr	r3, [r7, #4]
 8005e92:	f893 303f 	ldrb.w	r3, [r3, #63]	; 0x3f
 8005e96:	b2db      	uxtb	r3, r3
 8005e98:	e01b      	b.n	8005ed2 <HAL_TIM_IC_Start_IT+0x66>
 8005e9a:	683b      	ldr	r3, [r7, #0]
 8005e9c:	2b08      	cmp	r3, #8
 8005e9e:	d104      	bne.n	8005eaa <HAL_TIM_IC_Start_IT+0x3e>
 8005ea0:	687b      	ldr	r3, [r7, #4]
 8005ea2:	f893 3040 	ldrb.w	r3, [r3, #64]	; 0x40
 8005ea6:	b2db      	uxtb	r3, r3
 8005ea8:	e013      	b.n	8005ed2 <HAL_TIM_IC_Start_IT+0x66>
 8005eaa:	683b      	ldr	r3, [r7, #0]
 8005eac:	2b0c      	cmp	r3, #12
 8005eae:	d104      	bne.n	8005eba <HAL_TIM_IC_Start_IT+0x4e>
 8005eb0:	687b      	ldr	r3, [r7, #4]
 8005eb2:	f893 3041 	ldrb.w	r3, [r3, #65]	; 0x41
 8005eb6:	b2db      	uxtb	r3, r3
 8005eb8:	e00b      	b.n	8005ed2 <HAL_TIM_IC_Start_IT+0x66>
 8005eba:	683b      	ldr	r3, [r7, #0]
 8005ebc:	2b10      	cmp	r3, #16
 8005ebe:	d104      	bne.n	8005eca <HAL_TIM_IC_Start_IT+0x5e>
 8005ec0:	687b      	ldr	r3, [r7, #4]
 8005ec2:	f893 3042 	ldrb.w	r3, [r3, #66]	; 0x42
 8005ec6:	b2db      	uxtb	r3, r3
 8005ec8:	e003      	b.n	8005ed2 <HAL_TIM_IC_Start_IT+0x66>
 8005eca:	687b      	ldr	r3, [r7, #4]
 8005ecc:	f893 3043 	ldrb.w	r3, [r3, #67]	; 0x43
 8005ed0:	b2db      	uxtb	r3, r3
 8005ed2:	73bb      	strb	r3, [r7, #14]
  HAL_TIM_ChannelStateTypeDef complementary_channel_state = TIM_CHANNEL_N_STATE_GET(htim, Channel);
 8005ed4:	683b      	ldr	r3, [r7, #0]
 8005ed6:	2b00      	cmp	r3, #0
 8005ed8:	d104      	bne.n	8005ee4 <HAL_TIM_IC_Start_IT+0x78>
 8005eda:	687b      	ldr	r3, [r7, #4]
 8005edc:	f893 3044 	ldrb.w	r3, [r3, #68]	; 0x44
 8005ee0:	b2db      	uxtb	r3, r3
 8005ee2:	e013      	b.n	8005f0c <HAL_TIM_IC_Start_IT+0xa0>
 8005ee4:	683b      	ldr	r3, [r7, #0]
 8005ee6:	2b04      	cmp	r3, #4
 8005ee8:	d104      	bne.n	8005ef4 <HAL_TIM_IC_Start_IT+0x88>
 8005eea:	687b      	ldr	r3, [r7, #4]
 8005eec:	f893 3045 	ldrb.w	r3, [r3, #69]	; 0x45
 8005ef0:	b2db      	uxtb	r3, r3
 8005ef2:	e00b      	b.n	8005f0c <HAL_TIM_IC_Start_IT+0xa0>
 8005ef4:	683b      	ldr	r3, [r7, #0]
 8005ef6:	2b08      	cmp	r3, #8
 8005ef8:	d104      	bne.n	8005f04 <HAL_TIM_IC_Start_IT+0x98>
 8005efa:	687b      	ldr	r3, [r7, #4]
 8005efc:	f893 3046 	ldrb.w	r3, [r3, #70]	; 0x46
 8005f00:	b2db      	uxtb	r3, r3
 8005f02:	e003      	b.n	8005f0c <HAL_TIM_IC_Start_IT+0xa0>
 8005f04:	687b      	ldr	r3, [r7, #4]
 8005f06:	f893 3047 	ldrb.w	r3, [r3, #71]	; 0x47
 8005f0a:	b2db      	uxtb	r3, r3
 8005f0c:	737b      	strb	r3, [r7, #13]

  /* Check the parameters */
  assert_param(IS_TIM_CCX_INSTANCE(htim->Instance, Channel));

  /* Check the TIM channel state */
  if ((channel_state != HAL_TIM_CHANNEL_STATE_READY)
 8005f0e:	7bbb      	ldrb	r3, [r7, #14]
 8005f10:	2b01      	cmp	r3, #1
 8005f12:	d102      	bne.n	8005f1a <HAL_TIM_IC_Start_IT+0xae>
      || (complementary_channel_state != HAL_TIM_CHANNEL_STATE_READY))
 8005f14:	7b7b      	ldrb	r3, [r7, #13]
 8005f16:	2b01      	cmp	r3, #1
 8005f18:	d001      	beq.n	8005f1e <HAL_TIM_IC_Start_IT+0xb2>
  {
    return HAL_ERROR;
 8005f1a:	2301      	movs	r3, #1
 8005f1c:	e0d8      	b.n	80060d0 <HAL_TIM_IC_Start_IT+0x264>
  }

  /* Set the TIM channel state */
  TIM_CHANNEL_STATE_SET(htim, Channel, HAL_TIM_CHANNEL_STATE_BUSY);
 8005f1e:	683b      	ldr	r3, [r7, #0]
 8005f20:	2b00      	cmp	r3, #0
 8005f22:	d104      	bne.n	8005f2e <HAL_TIM_IC_Start_IT+0xc2>
 8005f24:	687b      	ldr	r3, [r7, #4]
 8005f26:	2202      	movs	r2, #2
 8005f28:	f883 203e 	strb.w	r2, [r3, #62]	; 0x3e
 8005f2c:	e023      	b.n	8005f76 <HAL_TIM_IC_Start_IT+0x10a>
 8005f2e:	683b      	ldr	r3, [r7, #0]
 8005f30:	2b04      	cmp	r3, #4
 8005f32:	d104      	bne.n	8005f3e <HAL_TIM_IC_Start_IT+0xd2>
 8005f34:	687b      	ldr	r3, [r7, #4]
 8005f36:	2202      	movs	r2, #2
 8005f38:	f883 203f 	strb.w	r2, [r3, #63]	; 0x3f
 8005f3c:	e01b      	b.n	8005f76 <HAL_TIM_IC_Start_IT+0x10a>
 8005f3e:	683b      	ldr	r3, [r7, #0]
 8005f40:	2b08      	cmp	r3, #8
 8005f42:	d104      	bne.n	8005f4e <HAL_TIM_IC_Start_IT+0xe2>
 8005f44:	687b      	ldr	r3, [r7, #4]
 8005f46:	2202      	movs	r2, #2
 8005f48:	f883 2040 	strb.w	r2, [r3, #64]	; 0x40
 8005f4c:	e013      	b.n	8005f76 <HAL_TIM_IC_Start_IT+0x10a>
 8005f4e:	683b      	ldr	r3, [r7, #0]
 8005f50:	2b0c      	cmp	r3, #12
 8005f52:	d104      	bne.n	8005f5e <HAL_TIM_IC_Start_IT+0xf2>
 8005f54:	687b      	ldr	r3, [r7, #4]
 8005f56:	2202      	movs	r2, #2
 8005f58:	f883 2041 	strb.w	r2, [r3, #65]	; 0x41
 8005f5c:	e00b      	b.n	8005f76 <HAL_TIM_IC_Start_IT+0x10a>
 8005f5e:	683b      	ldr	r3, [r7, #0]
 8005f60:	2b10      	cmp	r3, #16
 8005f62:	d104      	bne.n	8005f6e <HAL_TIM_IC_Start_IT+0x102>
 8005f64:	687b      	ldr	r3, [r7, #4]
 8005f66:	2202      	movs	r2, #2
 8005f68:	f883 2042 	strb.w	r2, [r3, #66]	; 0x42
 8005f6c:	e003      	b.n	8005f76 <HAL_TIM_IC_Start_IT+0x10a>
 8005f6e:	687b      	ldr	r3, [r7, #4]
 8005f70:	2202      	movs	r2, #2
 8005f72:	f883 2043 	strb.w	r2, [r3, #67]	; 0x43
  TIM_CHANNEL_N_STATE_SET(htim, Channel, HAL_TIM_CHANNEL_STATE_BUSY);
 8005f76:	683b      	ldr	r3, [r7, #0]
 8005f78:	2b00      	cmp	r3, #0
 8005f7a:	d104      	bne.n	8005f86 <HAL_TIM_IC_Start_IT+0x11a>
 8005f7c:	687b      	ldr	r3, [r7, #4]
 8005f7e:	2202      	movs	r2, #2
 8005f80:	f883 2044 	strb.w	r2, [r3, #68]	; 0x44
 8005f84:	e013      	b.n	8005fae <HAL_TIM_IC_Start_IT+0x142>
 8005f86:	683b      	ldr	r3, [r7, #0]
 8005f88:	2b04      	cmp	r3, #4
 8005f8a:	d104      	bne.n	8005f96 <HAL_TIM_IC_Start_IT+0x12a>
 8005f8c:	687b      	ldr	r3, [r7, #4]
 8005f8e:	2202      	movs	r2, #2
 8005f90:	f883 2045 	strb.w	r2, [r3, #69]	; 0x45
 8005f94:	e00b      	b.n	8005fae <HAL_TIM_IC_Start_IT+0x142>
 8005f96:	683b      	ldr	r3, [r7, #0]
 8005f98:	2b08      	cmp	r3, #8
 8005f9a:	d104      	bne.n	8005fa6 <HAL_TIM_IC_Start_IT+0x13a>
 8005f9c:	687b      	ldr	r3, [r7, #4]
 8005f9e:	2202      	movs	r2, #2
 8005fa0:	f883 2046 	strb.w	r2, [r3, #70]	; 0x46
 8005fa4:	e003      	b.n	8005fae <HAL_TIM_IC_Start_IT+0x142>
 8005fa6:	687b      	ldr	r3, [r7, #4]
 8005fa8:	2202      	movs	r2, #2
 8005faa:	f883 2047 	strb.w	r2, [r3, #71]	; 0x47

  switch (Channel)
 8005fae:	683b      	ldr	r3, [r7, #0]
 8005fb0:	2b0c      	cmp	r3, #12
 8005fb2:	d841      	bhi.n	8006038 <HAL_TIM_IC_Start_IT+0x1cc>
 8005fb4:	a201      	add	r2, pc, #4	; (adr r2, 8005fbc <HAL_TIM_IC_Start_IT+0x150>)
 8005fb6:	f852 f023 	ldr.w	pc, [r2, r3, lsl #2]
 8005fba:	bf00      	nop
 8005fbc:	08005ff1 	.word	0x08005ff1
 8005fc0:	08006039 	.word	0x08006039
 8005fc4:	08006039 	.word	0x08006039
 8005fc8:	08006039 	.word	0x08006039
 8005fcc:	08006003 	.word	0x08006003
 8005fd0:	08006039 	.word	0x08006039
 8005fd4:	08006039 	.word	0x08006039
 8005fd8:	08006039 	.word	0x08006039
 8005fdc:	08006015 	.word	0x08006015
 8005fe0:	08006039 	.word	0x08006039
 8005fe4:	08006039 	.word	0x08006039
 8005fe8:	08006039 	.word	0x08006039
 8005fec:	08006027 	.word	0x08006027
  {
    case TIM_CHANNEL_1:
    {
      /* Enable the TIM Capture/Compare 1 interrupt */
      __HAL_TIM_ENABLE_IT(htim, TIM_IT_CC1);
 8005ff0:	687b      	ldr	r3, [r7, #4]
 8005ff2:	681b      	ldr	r3, [r3, #0]
 8005ff4:	68da      	ldr	r2, [r3, #12]
 8005ff6:	687b      	ldr	r3, [r7, #4]
 8005ff8:	681b      	ldr	r3, [r3, #0]
 8005ffa:	f042 0202 	orr.w	r2, r2, #2
 8005ffe:	60da      	str	r2, [r3, #12]
      break;
 8006000:	e01d      	b.n	800603e <HAL_TIM_IC_Start_IT+0x1d2>
    }

    case TIM_CHANNEL_2:
    {
      /* Enable the TIM Capture/Compare 2 interrupt */
      __HAL_TIM_ENABLE_IT(htim, TIM_IT_CC2);
 8006002:	687b      	ldr	r3, [r7, #4]
 8006004:	681b      	ldr	r3, [r3, #0]
 8006006:	68da      	ldr	r2, [r3, #12]
 8006008:	687b      	ldr	r3, [r7, #4]
 800600a:	681b      	ldr	r3, [r3, #0]
 800600c:	f042 0204 	orr.w	r2, r2, #4
 8006010:	60da      	str	r2, [r3, #12]
      break;
 8006012:	e014      	b.n	800603e <HAL_TIM_IC_Start_IT+0x1d2>
    }

    case TIM_CHANNEL_3:
    {
      /* Enable the TIM Capture/Compare 3 interrupt */
      __HAL_TIM_ENABLE_IT(htim, TIM_IT_CC3);
 8006014:	687b      	ldr	r3, [r7, #4]
 8006016:	681b      	ldr	r3, [r3, #0]
 8006018:	68da      	ldr	r2, [r3, #12]
 800601a:	687b      	ldr	r3, [r7, #4]
 800601c:	681b      	ldr	r3, [r3, #0]
 800601e:	f042 0208 	orr.w	r2, r2, #8
 8006022:	60da      	str	r2, [r3, #12]
      break;
 8006024:	e00b      	b.n	800603e <HAL_TIM_IC_Start_IT+0x1d2>
    }

    case TIM_CHANNEL_4:
    {
      /* Enable the TIM Capture/Compare 4 interrupt */
      __HAL_TIM_ENABLE_IT(htim, TIM_IT_CC4);
 8006026:	687b      	ldr	r3, [r7, #4]
 8006028:	681b      	ldr	r3, [r3, #0]
 800602a:	68da      	ldr	r2, [r3, #12]
 800602c:	687b      	ldr	r3, [r7, #4]
 800602e:	681b      	ldr	r3, [r3, #0]
 8006030:	f042 0210 	orr.w	r2, r2, #16
 8006034:	60da      	str	r2, [r3, #12]
      break;
 8006036:	e002      	b.n	800603e <HAL_TIM_IC_Start_IT+0x1d2>
    }

    default:
      status = HAL_ERROR;
 8006038:	2301      	movs	r3, #1
 800603a:	73fb      	strb	r3, [r7, #15]
      break;
 800603c:	bf00      	nop
  }

  if (status == HAL_OK)
 800603e:	7bfb      	ldrb	r3, [r7, #15]
 8006040:	2b00      	cmp	r3, #0
 8006042:	d144      	bne.n	80060ce <HAL_TIM_IC_Start_IT+0x262>
  {
    /* Enable the Input Capture channel */
    TIM_CCxChannelCmd(htim->Instance, Channel, TIM_CCx_ENABLE);
 8006044:	687b      	ldr	r3, [r7, #4]
 8006046:	681b      	ldr	r3, [r3, #0]
 8006048:	2201      	movs	r2, #1
 800604a:	6839      	ldr	r1, [r7, #0]
 800604c:	4618      	mov	r0, r3
 800604e:	f000 fd87 	bl	8006b60 <TIM_CCxChannelCmd>

    /* Enable the Peripheral, except in trigger mode where enable is automatically done with trigger */
    if (IS_TIM_SLAVE_INSTANCE(htim->Instance))
 8006052:	687b      	ldr	r3, [r7, #4]
 8006054:	681b      	ldr	r3, [r3, #0]
 8006056:	4a20      	ldr	r2, [pc, #128]	; (80060d8 <HAL_TIM_IC_Start_IT+0x26c>)
 8006058:	4293      	cmp	r3, r2
 800605a:	d018      	beq.n	800608e <HAL_TIM_IC_Start_IT+0x222>
 800605c:	687b      	ldr	r3, [r7, #4]
 800605e:	681b      	ldr	r3, [r3, #0]
 8006060:	f1b3 4f80 	cmp.w	r3, #1073741824	; 0x40000000
 8006064:	d013      	beq.n	800608e <HAL_TIM_IC_Start_IT+0x222>
 8006066:	687b      	ldr	r3, [r7, #4]
 8006068:	681b      	ldr	r3, [r3, #0]
 800606a:	4a1c      	ldr	r2, [pc, #112]	; (80060dc <HAL_TIM_IC_Start_IT+0x270>)
 800606c:	4293      	cmp	r3, r2
 800606e:	d00e      	beq.n	800608e <HAL_TIM_IC_Start_IT+0x222>
 8006070:	687b      	ldr	r3, [r7, #4]
 8006072:	681b      	ldr	r3, [r3, #0]
 8006074:	4a1a      	ldr	r2, [pc, #104]	; (80060e0 <HAL_TIM_IC_Start_IT+0x274>)
 8006076:	4293      	cmp	r3, r2
 8006078:	d009      	beq.n	800608e <HAL_TIM_IC_Start_IT+0x222>
 800607a:	687b      	ldr	r3, [r7, #4]
 800607c:	681b      	ldr	r3, [r3, #0]
 800607e:	4a19      	ldr	r2, [pc, #100]	; (80060e4 <HAL_TIM_IC_Start_IT+0x278>)
 8006080:	4293      	cmp	r3, r2
 8006082:	d004      	beq.n	800608e <HAL_TIM_IC_Start_IT+0x222>
 8006084:	687b      	ldr	r3, [r7, #4]
 8006086:	681b      	ldr	r3, [r3, #0]
 8006088:	4a17      	ldr	r2, [pc, #92]	; (80060e8 <HAL_TIM_IC_Start_IT+0x27c>)
 800608a:	4293      	cmp	r3, r2
 800608c:	d115      	bne.n	80060ba <HAL_TIM_IC_Start_IT+0x24e>
    {
      tmpsmcr = htim->Instance->SMCR & TIM_SMCR_SMS;
 800608e:	687b      	ldr	r3, [r7, #4]
 8006090:	681b      	ldr	r3, [r3, #0]
 8006092:	689a      	ldr	r2, [r3, #8]
 8006094:	4b15      	ldr	r3, [pc, #84]	; (80060ec <HAL_TIM_IC_Start_IT+0x280>)
 8006096:	4013      	ands	r3, r2
 8006098:	60bb      	str	r3, [r7, #8]
      if (!IS_TIM_SLAVEMODE_TRIGGER_ENABLED(tmpsmcr))
 800609a:	68bb      	ldr	r3, [r7, #8]
 800609c:	2b06      	cmp	r3, #6
 800609e:	d015      	beq.n	80060cc <HAL_TIM_IC_Start_IT+0x260>
 80060a0:	68bb      	ldr	r3, [r7, #8]
 80060a2:	f5b3 3f80 	cmp.w	r3, #65536	; 0x10000
 80060a6:	d011      	beq.n	80060cc <HAL_TIM_IC_Start_IT+0x260>
      {
        __HAL_TIM_ENABLE(htim);
 80060a8:	687b      	ldr	r3, [r7, #4]
 80060aa:	681b      	ldr	r3, [r3, #0]
 80060ac:	681a      	ldr	r2, [r3, #0]
 80060ae:	687b      	ldr	r3, [r7, #4]
 80060b0:	681b      	ldr	r3, [r3, #0]
 80060b2:	f042 0201 	orr.w	r2, r2, #1
 80060b6:	601a      	str	r2, [r3, #0]
      if (!IS_TIM_SLAVEMODE_TRIGGER_ENABLED(tmpsmcr))
 80060b8:	e008      	b.n	80060cc <HAL_TIM_IC_Start_IT+0x260>
      }
    }
    else
    {
      __HAL_TIM_ENABLE(htim);
 80060ba:	687b      	ldr	r3, [r7, #4]
 80060bc:	681b      	ldr	r3, [r3, #0]
 80060be:	681a      	ldr	r2, [r3, #0]
 80060c0:	687b      	ldr	r3, [r7, #4]
 80060c2:	681b      	ldr	r3, [r3, #0]
 80060c4:	f042 0201 	orr.w	r2, r2, #1
 80060c8:	601a      	str	r2, [r3, #0]
 80060ca:	e000      	b.n	80060ce <HAL_TIM_IC_Start_IT+0x262>
      if (!IS_TIM_SLAVEMODE_TRIGGER_ENABLED(tmpsmcr))
 80060cc:	bf00      	nop
    }
  }

  /* Return function status */
  return status;
 80060ce:	7bfb      	ldrb	r3, [r7, #15]
}
 80060d0:	4618      	mov	r0, r3
 80060d2:	3710      	adds	r7, #16
 80060d4:	46bd      	mov	sp, r7
 80060d6:	bd80      	pop	{r7, pc}
 80060d8:	40012c00 	.word	0x40012c00
 80060dc:	40000400 	.word	0x40000400
 80060e0:	40000800 	.word	0x40000800
 80060e4:	40013400 	.word	0x40013400
 80060e8:	40014000 	.word	0x40014000
 80060ec:	00010007 	.word	0x00010007

080060f0 <HAL_TIM_IRQHandler>:
  * @brief  This function handles TIM interrupts requests.
  * @param  htim TIM  handle
  * @retval None
  */
void HAL_TIM_IRQHandler(TIM_HandleTypeDef *htim)
{
 80060f0:	b580      	push	{r7, lr}
 80060f2:	b082      	sub	sp, #8
 80060f4:	af00      	add	r7, sp, #0
 80060f6:	6078      	str	r0, [r7, #4]
  /* Capture compare 1 event */
  if (__HAL_TIM_GET_FLAG(htim, TIM_FLAG_CC1) != RESET)
 80060f8:	687b      	ldr	r3, [r7, #4]
 80060fa:	681b      	ldr	r3, [r3, #0]
 80060fc:	691b      	ldr	r3, [r3, #16]
 80060fe:	f003 0302 	and.w	r3, r3, #2
 8006102:	2b02      	cmp	r3, #2
 8006104:	d122      	bne.n	800614c <HAL_TIM_IRQHandler+0x5c>
  {
    if (__HAL_TIM_GET_IT_SOURCE(htim, TIM_IT_CC1) != RESET)
 8006106:	687b      	ldr	r3, [r7, #4]
 8006108:	681b      	ldr	r3, [r3, #0]
 800610a:	68db      	ldr	r3, [r3, #12]
 800610c:	f003 0302 	and.w	r3, r3, #2
 8006110:	2b02      	cmp	r3, #2
 8006112:	d11b      	bne.n	800614c <HAL_TIM_IRQHandler+0x5c>
    {
      {
        __HAL_TIM_CLEAR_IT(htim, TIM_IT_CC1);
 8006114:	687b      	ldr	r3, [r7, #4]
 8006116:	681b      	ldr	r3, [r3, #0]
 8006118:	f06f 0202 	mvn.w	r2, #2
 800611c:	611a      	str	r2, [r3, #16]
        htim->Channel = HAL_TIM_ACTIVE_CHANNEL_1;
 800611e:	687b      	ldr	r3, [r7, #4]
 8006120:	2201      	movs	r2, #1
 8006122:	771a      	strb	r2, [r3, #28]

        /* Input capture event */
        if ((htim->Instance->CCMR1 & TIM_CCMR1_CC1S) != 0x00U)
 8006124:	687b      	ldr	r3, [r7, #4]
 8006126:	681b      	ldr	r3, [r3, #0]
 8006128:	699b      	ldr	r3, [r3, #24]
 800612a:	f003 0303 	and.w	r3, r3, #3
 800612e:	2b00      	cmp	r3, #0
 8006130:	d003      	beq.n	800613a <HAL_TIM_IRQHandler+0x4a>
        {
#if (USE_HAL_TIM_REGISTER_CALLBACKS == 1)
          htim->IC_CaptureCallback(htim);
#else
          HAL_TIM_IC_CaptureCallback(htim);
 8006132:	6878      	ldr	r0, [r7, #4]
 8006134:	f7fa fdca 	bl	8000ccc <HAL_TIM_IC_CaptureCallback>
 8006138:	e005      	b.n	8006146 <HAL_TIM_IRQHandler+0x56>
        {
#if (USE_HAL_TIM_REGISTER_CALLBACKS == 1)
          htim->OC_DelayElapsedCallback(htim);
          htim->PWM_PulseFinishedCallback(htim);
#else
          HAL_TIM_OC_DelayElapsedCallback(htim);
 800613a:	6878      	ldr	r0, [r7, #4]
 800613c:	f000 faaa 	bl	8006694 <HAL_TIM_OC_DelayElapsedCallback>
          HAL_TIM_PWM_PulseFinishedCallback(htim);
 8006140:	6878      	ldr	r0, [r7, #4]
 8006142:	f000 fab1 	bl	80066a8 <HAL_TIM_PWM_PulseFinishedCallback>
#endif /* USE_HAL_TIM_REGISTER_CALLBACKS */
        }
        htim->Channel = HAL_TIM_ACTIVE_CHANNEL_CLEARED;
 8006146:	687b      	ldr	r3, [r7, #4]
 8006148:	2200      	movs	r2, #0
 800614a:	771a      	strb	r2, [r3, #28]
      }
    }
  }
  /* Capture compare 2 event */
  if (__HAL_TIM_GET_FLAG(htim, TIM_FLAG_CC2) != RESET)
 800614c:	687b      	ldr	r3, [r7, #4]
 800614e:	681b      	ldr	r3, [r3, #0]
 8006150:	691b      	ldr	r3, [r3, #16]
 8006152:	f003 0304 	and.w	r3, r3, #4
 8006156:	2b04      	cmp	r3, #4
 8006158:	d122      	bne.n	80061a0 <HAL_TIM_IRQHandler+0xb0>
  {
    if (__HAL_TIM_GET_IT_SOURCE(htim, TIM_IT_CC2) != RESET)
 800615a:	687b      	ldr	r3, [r7, #4]
 800615c:	681b      	ldr	r3, [r3, #0]
 800615e:	68db      	ldr	r3, [r3, #12]
 8006160:	f003 0304 	and.w	r3, r3, #4
 8006164:	2b04      	cmp	r3, #4
 8006166:	d11b      	bne.n	80061a0 <HAL_TIM_IRQHandler+0xb0>
    {
      __HAL_TIM_CLEAR_IT(htim, TIM_IT_CC2);
 8006168:	687b      	ldr	r3, [r7, #4]
 800616a:	681b      	ldr	r3, [r3, #0]
 800616c:	f06f 0204 	mvn.w	r2, #4
 8006170:	611a      	str	r2, [r3, #16]
      htim->Channel = HAL_TIM_ACTIVE_CHANNEL_2;
 8006172:	687b      	ldr	r3, [r7, #4]
 8006174:	2202      	movs	r2, #2
 8006176:	771a      	strb	r2, [r3, #28]
      /* Input capture event */
      if ((htim->Instance->CCMR1 & TIM_CCMR1_CC2S) != 0x00U)
 8006178:	687b      	ldr	r3, [r7, #4]
 800617a:	681b      	ldr	r3, [r3, #0]
 800617c:	699b      	ldr	r3, [r3, #24]
 800617e:	f403 7340 	and.w	r3, r3, #768	; 0x300
 8006182:	2b00      	cmp	r3, #0
 8006184:	d003      	beq.n	800618e <HAL_TIM_IRQHandler+0x9e>
      {
#if (USE_HAL_TIM_REGISTER_CALLBACKS == 1)
        htim->IC_CaptureCallback(htim);
#else
        HAL_TIM_IC_CaptureCallback(htim);
 8006186:	6878      	ldr	r0, [r7, #4]
 8006188:	f7fa fda0 	bl	8000ccc <HAL_TIM_IC_CaptureCallback>
 800618c:	e005      	b.n	800619a <HAL_TIM_IRQHandler+0xaa>
      {
#if (USE_HAL_TIM_REGISTER_CALLBACKS == 1)
        htim->OC_DelayElapsedCallback(htim);
        htim->PWM_PulseFinishedCallback(htim);
#else
        HAL_TIM_OC_DelayElapsedCallback(htim);
 800618e:	6878      	ldr	r0, [r7, #4]
 8006190:	f000 fa80 	bl	8006694 <HAL_TIM_OC_DelayElapsedCallback>
        HAL_TIM_PWM_PulseFinishedCallback(htim);
 8006194:	6878      	ldr	r0, [r7, #4]
 8006196:	f000 fa87 	bl	80066a8 <HAL_TIM_PWM_PulseFinishedCallback>
#endif /* USE_HAL_TIM_REGISTER_CALLBACKS */
      }
      htim->Channel = HAL_TIM_ACTIVE_CHANNEL_CLEARED;
 800619a:	687b      	ldr	r3, [r7, #4]
 800619c:	2200      	movs	r2, #0
 800619e:	771a      	strb	r2, [r3, #28]
    }
  }
  /* Capture compare 3 event */
  if (__HAL_TIM_GET_FLAG(htim, TIM_FLAG_CC3) != RESET)
 80061a0:	687b      	ldr	r3, [r7, #4]
 80061a2:	681b      	ldr	r3, [r3, #0]
 80061a4:	691b      	ldr	r3, [r3, #16]
 80061a6:	f003 0308 	and.w	r3, r3, #8
 80061aa:	2b08      	cmp	r3, #8
 80061ac:	d122      	bne.n	80061f4 <HAL_TIM_IRQHandler+0x104>
  {
    if (__HAL_TIM_GET_IT_SOURCE(htim, TIM_IT_CC3) != RESET)
 80061ae:	687b      	ldr	r3, [r7, #4]
 80061b0:	681b      	ldr	r3, [r3, #0]
 80061b2:	68db      	ldr	r3, [r3, #12]
 80061b4:	f003 0308 	and.w	r3, r3, #8
 80061b8:	2b08      	cmp	r3, #8
 80061ba:	d11b      	bne.n	80061f4 <HAL_TIM_IRQHandler+0x104>
    {
      __HAL_TIM_CLEAR_IT(htim, TIM_IT_CC3);
 80061bc:	687b      	ldr	r3, [r7, #4]
 80061be:	681b      	ldr	r3, [r3, #0]
 80061c0:	f06f 0208 	mvn.w	r2, #8
 80061c4:	611a      	str	r2, [r3, #16]
      htim->Channel = HAL_TIM_ACTIVE_CHANNEL_3;
 80061c6:	687b      	ldr	r3, [r7, #4]
 80061c8:	2204      	movs	r2, #4
 80061ca:	771a      	strb	r2, [r3, #28]
      /* Input capture event */
      if ((htim->Instance->CCMR2 & TIM_CCMR2_CC3S) != 0x00U)
 80061cc:	687b      	ldr	r3, [r7, #4]
 80061ce:	681b      	ldr	r3, [r3, #0]
 80061d0:	69db      	ldr	r3, [r3, #28]
 80061d2:	f003 0303 	and.w	r3, r3, #3
 80061d6:	2b00      	cmp	r3, #0
 80061d8:	d003      	beq.n	80061e2 <HAL_TIM_IRQHandler+0xf2>
      {
#if (USE_HAL_TIM_REGISTER_CALLBACKS == 1)
        htim->IC_CaptureCallback(htim);
#else
        HAL_TIM_IC_CaptureCallback(htim);
 80061da:	6878      	ldr	r0, [r7, #4]
 80061dc:	f7fa fd76 	bl	8000ccc <HAL_TIM_IC_CaptureCallback>
 80061e0:	e005      	b.n	80061ee <HAL_TIM_IRQHandler+0xfe>
      {
#if (USE_HAL_TIM_REGISTER_CALLBACKS == 1)
        htim->OC_DelayElapsedCallback(htim);
        htim->PWM_PulseFinishedCallback(htim);
#else
        HAL_TIM_OC_DelayElapsedCallback(htim);
 80061e2:	6878      	ldr	r0, [r7, #4]
 80061e4:	f000 fa56 	bl	8006694 <HAL_TIM_OC_DelayElapsedCallback>
        HAL_TIM_PWM_PulseFinishedCallback(htim);
 80061e8:	6878      	ldr	r0, [r7, #4]
 80061ea:	f000 fa5d 	bl	80066a8 <HAL_TIM_PWM_PulseFinishedCallback>
#endif /* USE_HAL_TIM_REGISTER_CALLBACKS */
      }
      htim->Channel = HAL_TIM_ACTIVE_CHANNEL_CLEARED;
 80061ee:	687b      	ldr	r3, [r7, #4]
 80061f0:	2200      	movs	r2, #0
 80061f2:	771a      	strb	r2, [r3, #28]
    }
  }
  /* Capture compare 4 event */
  if (__HAL_TIM_GET_FLAG(htim, TIM_FLAG_CC4) != RESET)
 80061f4:	687b      	ldr	r3, [r7, #4]
 80061f6:	681b      	ldr	r3, [r3, #0]
 80061f8:	691b      	ldr	r3, [r3, #16]
 80061fa:	f003 0310 	and.w	r3, r3, #16
 80061fe:	2b10      	cmp	r3, #16
 8006200:	d122      	bne.n	8006248 <HAL_TIM_IRQHandler+0x158>
  {
    if (__HAL_TIM_GET_IT_SOURCE(htim, TIM_IT_CC4) != RESET)
 8006202:	687b      	ldr	r3, [r7, #4]
 8006204:	681b      	ldr	r3, [r3, #0]
 8006206:	68db      	ldr	r3, [r3, #12]
 8006208:	f003 0310 	and.w	r3, r3, #16
 800620c:	2b10      	cmp	r3, #16
 800620e:	d11b      	bne.n	8006248 <HAL_TIM_IRQHandler+0x158>
    {
      __HAL_TIM_CLEAR_IT(htim, TIM_IT_CC4);
 8006210:	687b      	ldr	r3, [r7, #4]
 8006212:	681b      	ldr	r3, [r3, #0]
 8006214:	f06f 0210 	mvn.w	r2, #16
 8006218:	611a      	str	r2, [r3, #16]
      htim->Channel = HAL_TIM_ACTIVE_CHANNEL_4;
 800621a:	687b      	ldr	r3, [r7, #4]
 800621c:	2208      	movs	r2, #8
 800621e:	771a      	strb	r2, [r3, #28]
      /* Input capture event */
      if ((htim->Instance->CCMR2 & TIM_CCMR2_CC4S) != 0x00U)
 8006220:	687b      	ldr	r3, [r7, #4]
 8006222:	681b      	ldr	r3, [r3, #0]
 8006224:	69db      	ldr	r3, [r3, #28]
 8006226:	f403 7340 	and.w	r3, r3, #768	; 0x300
 800622a:	2b00      	cmp	r3, #0
 800622c:	d003      	beq.n	8006236 <HAL_TIM_IRQHandler+0x146>
      {
#if (USE_HAL_TIM_REGISTER_CALLBACKS == 1)
        htim->IC_CaptureCallback(htim);
#else
        HAL_TIM_IC_CaptureCallback(htim);
 800622e:	6878      	ldr	r0, [r7, #4]
 8006230:	f7fa fd4c 	bl	8000ccc <HAL_TIM_IC_CaptureCallback>
 8006234:	e005      	b.n	8006242 <HAL_TIM_IRQHandler+0x152>
      {
#if (USE_HAL_TIM_REGISTER_CALLBACKS == 1)
        htim->OC_DelayElapsedCallback(htim);
        htim->PWM_PulseFinishedCallback(htim);
#else
        HAL_TIM_OC_DelayElapsedCallback(htim);
 8006236:	6878      	ldr	r0, [r7, #4]
 8006238:	f000 fa2c 	bl	8006694 <HAL_TIM_OC_DelayElapsedCallback>
        HAL_TIM_PWM_PulseFinishedCallback(htim);
 800623c:	6878      	ldr	r0, [r7, #4]
 800623e:	f000 fa33 	bl	80066a8 <HAL_TIM_PWM_PulseFinishedCallback>
#endif /* USE_HAL_TIM_REGISTER_CALLBACKS */
      }
      htim->Channel = HAL_TIM_ACTIVE_CHANNEL_CLEARED;
 8006242:	687b      	ldr	r3, [r7, #4]
 8006244:	2200      	movs	r2, #0
 8006246:	771a      	strb	r2, [r3, #28]
    }
  }
  /* TIM Update event */
  if (__HAL_TIM_GET_FLAG(htim, TIM_FLAG_UPDATE) != RESET)
 8006248:	687b      	ldr	r3, [r7, #4]
 800624a:	681b      	ldr	r3, [r3, #0]
 800624c:	691b      	ldr	r3, [r3, #16]
 800624e:	f003 0301 	and.w	r3, r3, #1
 8006252:	2b01      	cmp	r3, #1
 8006254:	d10e      	bne.n	8006274 <HAL_TIM_IRQHandler+0x184>
  {
    if (__HAL_TIM_GET_IT_SOURCE(htim, TIM_IT_UPDATE) != RESET)
 8006256:	687b      	ldr	r3, [r7, #4]
 8006258:	681b      	ldr	r3, [r3, #0]
 800625a:	68db      	ldr	r3, [r3, #12]
 800625c:	f003 0301 	and.w	r3, r3, #1
 8006260:	2b01      	cmp	r3, #1
 8006262:	d107      	bne.n	8006274 <HAL_TIM_IRQHandler+0x184>
    {
      __HAL_TIM_CLEAR_IT(htim, TIM_IT_UPDATE);
 8006264:	687b      	ldr	r3, [r7, #4]
 8006266:	681b      	ldr	r3, [r3, #0]
 8006268:	f06f 0201 	mvn.w	r2, #1
 800626c:	611a      	str	r2, [r3, #16]
#if (USE_HAL_TIM_REGISTER_CALLBACKS == 1)
      htim->PeriodElapsedCallback(htim);
#else
      HAL_TIM_PeriodElapsedCallback(htim);
 800626e:	6878      	ldr	r0, [r7, #4]
 8006270:	f000 fa06 	bl	8006680 <HAL_TIM_PeriodElapsedCallback>
#endif /* USE_HAL_TIM_REGISTER_CALLBACKS */
    }
  }
  /* TIM Break input event */
  if (__HAL_TIM_GET_FLAG(htim, TIM_FLAG_BREAK) != RESET)
 8006274:	687b      	ldr	r3, [r7, #4]
 8006276:	681b      	ldr	r3, [r3, #0]
 8006278:	691b      	ldr	r3, [r3, #16]
 800627a:	f003 0380 	and.w	r3, r3, #128	; 0x80
 800627e:	2b80      	cmp	r3, #128	; 0x80
 8006280:	d10e      	bne.n	80062a0 <HAL_TIM_IRQHandler+0x1b0>
  {
    if (__HAL_TIM_GET_IT_SOURCE(htim, TIM_IT_BREAK) != RESET)
 8006282:	687b      	ldr	r3, [r7, #4]
 8006284:	681b      	ldr	r3, [r3, #0]
 8006286:	68db      	ldr	r3, [r3, #12]
 8006288:	f003 0380 	and.w	r3, r3, #128	; 0x80
 800628c:	2b80      	cmp	r3, #128	; 0x80
 800628e:	d107      	bne.n	80062a0 <HAL_TIM_IRQHandler+0x1b0>
    {
      __HAL_TIM_CLEAR_IT(htim, TIM_IT_BREAK);
 8006290:	687b      	ldr	r3, [r7, #4]
 8006292:	681b      	ldr	r3, [r3, #0]
 8006294:	f06f 0280 	mvn.w	r2, #128	; 0x80
 8006298:	611a      	str	r2, [r3, #16]
#if (USE_HAL_TIM_REGISTER_CALLBACKS == 1)
      htim->BreakCallback(htim);
#else
      HAL_TIMEx_BreakCallback(htim);
 800629a:	6878      	ldr	r0, [r7, #4]
 800629c:	f000 fd10 	bl	8006cc0 <HAL_TIMEx_BreakCallback>
#endif /* USE_HAL_TIM_REGISTER_CALLBACKS */
    }
  }
#if defined(TIM_BDTR_BK2E)
  /* TIM Break2 input event */
  if (__HAL_TIM_GET_FLAG(htim, TIM_FLAG_BREAK2) != RESET)
 80062a0:	687b      	ldr	r3, [r7, #4]
 80062a2:	681b      	ldr	r3, [r3, #0]
 80062a4:	691b      	ldr	r3, [r3, #16]
 80062a6:	f403 7380 	and.w	r3, r3, #256	; 0x100
 80062aa:	f5b3 7f80 	cmp.w	r3, #256	; 0x100
 80062ae:	d10e      	bne.n	80062ce <HAL_TIM_IRQHandler+0x1de>
  {
    if (__HAL_TIM_GET_IT_SOURCE(htim, TIM_IT_BREAK) != RESET)
 80062b0:	687b      	ldr	r3, [r7, #4]
 80062b2:	681b      	ldr	r3, [r3, #0]
 80062b4:	68db      	ldr	r3, [r3, #12]
 80062b6:	f003 0380 	and.w	r3, r3, #128	; 0x80
 80062ba:	2b80      	cmp	r3, #128	; 0x80
 80062bc:	d107      	bne.n	80062ce <HAL_TIM_IRQHandler+0x1de>
    {
      __HAL_TIM_CLEAR_FLAG(htim, TIM_FLAG_BREAK2);
 80062be:	687b      	ldr	r3, [r7, #4]
 80062c0:	681b      	ldr	r3, [r3, #0]
 80062c2:	f46f 7280 	mvn.w	r2, #256	; 0x100
 80062c6:	611a      	str	r2, [r3, #16]
#if (USE_HAL_TIM_REGISTER_CALLBACKS == 1)
      htim->Break2Callback(htim);
#else
      HAL_TIMEx_Break2Callback(htim);
 80062c8:	6878      	ldr	r0, [r7, #4]
 80062ca:	f000 fd03 	bl	8006cd4 <HAL_TIMEx_Break2Callback>
#endif /* USE_HAL_TIM_REGISTER_CALLBACKS */
    }
  }
#endif /* TIM_BDTR_BK2E */
  /* TIM Trigger detection event */
  if (__HAL_TIM_GET_FLAG(htim, TIM_FLAG_TRIGGER) != RESET)
 80062ce:	687b      	ldr	r3, [r7, #4]
 80062d0:	681b      	ldr	r3, [r3, #0]
 80062d2:	691b      	ldr	r3, [r3, #16]
 80062d4:	f003 0340 	and.w	r3, r3, #64	; 0x40
 80062d8:	2b40      	cmp	r3, #64	; 0x40
 80062da:	d10e      	bne.n	80062fa <HAL_TIM_IRQHandler+0x20a>
  {
    if (__HAL_TIM_GET_IT_SOURCE(htim, TIM_IT_TRIGGER) != RESET)
 80062dc:	687b      	ldr	r3, [r7, #4]
 80062de:	681b      	ldr	r3, [r3, #0]
 80062e0:	68db      	ldr	r3, [r3, #12]
 80062e2:	f003 0340 	and.w	r3, r3, #64	; 0x40
 80062e6:	2b40      	cmp	r3, #64	; 0x40
 80062e8:	d107      	bne.n	80062fa <HAL_TIM_IRQHandler+0x20a>
    {
      __HAL_TIM_CLEAR_IT(htim, TIM_IT_TRIGGER);
 80062ea:	687b      	ldr	r3, [r7, #4]
 80062ec:	681b      	ldr	r3, [r3, #0]
 80062ee:	f06f 0240 	mvn.w	r2, #64	; 0x40
 80062f2:	611a      	str	r2, [r3, #16]
#if (USE_HAL_TIM_REGISTER_CALLBACKS == 1)
      htim->TriggerCallback(htim);
#else
      HAL_TIM_TriggerCallback(htim);
 80062f4:	6878      	ldr	r0, [r7, #4]
 80062f6:	f000 f9e1 	bl	80066bc <HAL_TIM_TriggerCallback>
#endif /* USE_HAL_TIM_REGISTER_CALLBACKS */
    }
  }
  /* TIM commutation event */
  if (__HAL_TIM_GET_FLAG(htim, TIM_FLAG_COM) != RESET)
 80062fa:	687b      	ldr	r3, [r7, #4]
 80062fc:	681b      	ldr	r3, [r3, #0]
 80062fe:	691b      	ldr	r3, [r3, #16]
 8006300:	f003 0320 	and.w	r3, r3, #32
 8006304:	2b20      	cmp	r3, #32
 8006306:	d10e      	bne.n	8006326 <HAL_TIM_IRQHandler+0x236>
  {
    if (__HAL_TIM_GET_IT_SOURCE(htim, TIM_IT_COM) != RESET)
 8006308:	687b      	ldr	r3, [r7, #4]
 800630a:	681b      	ldr	r3, [r3, #0]
 800630c:	68db      	ldr	r3, [r3, #12]
 800630e:	f003 0320 	and.w	r3, r3, #32
 8006312:	2b20      	cmp	r3, #32
 8006314:	d107      	bne.n	8006326 <HAL_TIM_IRQHandler+0x236>
    {
      __HAL_TIM_CLEAR_IT(htim, TIM_FLAG_COM);
 8006316:	687b      	ldr	r3, [r7, #4]
 8006318:	681b      	ldr	r3, [r3, #0]
 800631a:	f06f 0220 	mvn.w	r2, #32
 800631e:	611a      	str	r2, [r3, #16]
#if (USE_HAL_TIM_REGISTER_CALLBACKS == 1)
      htim->CommutationCallback(htim);
#else
      HAL_TIMEx_CommutCallback(htim);
 8006320:	6878      	ldr	r0, [r7, #4]
 8006322:	f000 fcc3 	bl	8006cac <HAL_TIMEx_CommutCallback>
#endif /* USE_HAL_TIM_REGISTER_CALLBACKS */
    }
  }
}
 8006326:	bf00      	nop
 8006328:	3708      	adds	r7, #8
 800632a:	46bd      	mov	sp, r7
 800632c:	bd80      	pop	{r7, pc}

0800632e <HAL_TIM_IC_ConfigChannel>:
  *            @arg TIM_CHANNEL_3: TIM Channel 3 selected
  *            @arg TIM_CHANNEL_4: TIM Channel 4 selected
  * @retval HAL status
  */
HAL_StatusTypeDef HAL_TIM_IC_ConfigChannel(TIM_HandleTypeDef *htim, const TIM_IC_InitTypeDef *sConfig, uint32_t Channel)
{
 800632e:	b580      	push	{r7, lr}
 8006330:	b086      	sub	sp, #24
 8006332:	af00      	add	r7, sp, #0
 8006334:	60f8      	str	r0, [r7, #12]
 8006336:	60b9      	str	r1, [r7, #8]
 8006338:	607a      	str	r2, [r7, #4]
  HAL_StatusTypeDef status = HAL_OK;
 800633a:	2300      	movs	r3, #0
 800633c:	75fb      	strb	r3, [r7, #23]
  assert_param(IS_TIM_IC_SELECTION(sConfig->ICSelection));
  assert_param(IS_TIM_IC_PRESCALER(sConfig->ICPrescaler));
  assert_param(IS_TIM_IC_FILTER(sConfig->ICFilter));

  /* Process Locked */
  __HAL_LOCK(htim);
 800633e:	68fb      	ldr	r3, [r7, #12]
 8006340:	f893 303c 	ldrb.w	r3, [r3, #60]	; 0x3c
 8006344:	2b01      	cmp	r3, #1
 8006346:	d101      	bne.n	800634c <HAL_TIM_IC_ConfigChannel+0x1e>
 8006348:	2302      	movs	r3, #2
 800634a:	e088      	b.n	800645e <HAL_TIM_IC_ConfigChannel+0x130>
 800634c:	68fb      	ldr	r3, [r7, #12]
 800634e:	2201      	movs	r2, #1
 8006350:	f883 203c 	strb.w	r2, [r3, #60]	; 0x3c

  if (Channel == TIM_CHANNEL_1)
 8006354:	687b      	ldr	r3, [r7, #4]
 8006356:	2b00      	cmp	r3, #0
 8006358:	d11b      	bne.n	8006392 <HAL_TIM_IC_ConfigChannel+0x64>
  {
    /* TI1 Configuration */
    TIM_TI1_SetConfig(htim->Instance,
 800635a:	68fb      	ldr	r3, [r7, #12]
 800635c:	6818      	ldr	r0, [r3, #0]
 800635e:	68bb      	ldr	r3, [r7, #8]
 8006360:	6819      	ldr	r1, [r3, #0]
 8006362:	68bb      	ldr	r3, [r7, #8]
 8006364:	685a      	ldr	r2, [r3, #4]
 8006366:	68bb      	ldr	r3, [r7, #8]
 8006368:	68db      	ldr	r3, [r3, #12]
 800636a:	f000 fa41 	bl	80067f0 <TIM_TI1_SetConfig>
                      sConfig->ICPolarity,
                      sConfig->ICSelection,
                      sConfig->ICFilter);

    /* Reset the IC1PSC Bits */
    htim->Instance->CCMR1 &= ~TIM_CCMR1_IC1PSC;
 800636e:	68fb      	ldr	r3, [r7, #12]
 8006370:	681b      	ldr	r3, [r3, #0]
 8006372:	699a      	ldr	r2, [r3, #24]
 8006374:	68fb      	ldr	r3, [r7, #12]
 8006376:	681b      	ldr	r3, [r3, #0]
 8006378:	f022 020c 	bic.w	r2, r2, #12
 800637c:	619a      	str	r2, [r3, #24]

    /* Set the IC1PSC value */
    htim->Instance->CCMR1 |= sConfig->ICPrescaler;
 800637e:	68fb      	ldr	r3, [r7, #12]
 8006380:	681b      	ldr	r3, [r3, #0]
 8006382:	6999      	ldr	r1, [r3, #24]
 8006384:	68bb      	ldr	r3, [r7, #8]
 8006386:	689a      	ldr	r2, [r3, #8]
 8006388:	68fb      	ldr	r3, [r7, #12]
 800638a:	681b      	ldr	r3, [r3, #0]
 800638c:	430a      	orrs	r2, r1
 800638e:	619a      	str	r2, [r3, #24]
 8006390:	e060      	b.n	8006454 <HAL_TIM_IC_ConfigChannel+0x126>
  }
  else if (Channel == TIM_CHANNEL_2)
 8006392:	687b      	ldr	r3, [r7, #4]
 8006394:	2b04      	cmp	r3, #4
 8006396:	d11c      	bne.n	80063d2 <HAL_TIM_IC_ConfigChannel+0xa4>
  {
    /* TI2 Configuration */
    assert_param(IS_TIM_CC2_INSTANCE(htim->Instance));

    TIM_TI2_SetConfig(htim->Instance,
 8006398:	68fb      	ldr	r3, [r7, #12]
 800639a:	6818      	ldr	r0, [r3, #0]
 800639c:	68bb      	ldr	r3, [r7, #8]
 800639e:	6819      	ldr	r1, [r3, #0]
 80063a0:	68bb      	ldr	r3, [r7, #8]
 80063a2:	685a      	ldr	r2, [r3, #4]
 80063a4:	68bb      	ldr	r3, [r7, #8]
 80063a6:	68db      	ldr	r3, [r3, #12]
 80063a8:	f000 fab9 	bl	800691e <TIM_TI2_SetConfig>
                      sConfig->ICPolarity,
                      sConfig->ICSelection,
                      sConfig->ICFilter);

    /* Reset the IC2PSC Bits */
    htim->Instance->CCMR1 &= ~TIM_CCMR1_IC2PSC;
 80063ac:	68fb      	ldr	r3, [r7, #12]
 80063ae:	681b      	ldr	r3, [r3, #0]
 80063b0:	699a      	ldr	r2, [r3, #24]
 80063b2:	68fb      	ldr	r3, [r7, #12]
 80063b4:	681b      	ldr	r3, [r3, #0]
 80063b6:	f422 6240 	bic.w	r2, r2, #3072	; 0xc00
 80063ba:	619a      	str	r2, [r3, #24]

    /* Set the IC2PSC value */
    htim->Instance->CCMR1 |= (sConfig->ICPrescaler << 8U);
 80063bc:	68fb      	ldr	r3, [r7, #12]
 80063be:	681b      	ldr	r3, [r3, #0]
 80063c0:	6999      	ldr	r1, [r3, #24]
 80063c2:	68bb      	ldr	r3, [r7, #8]
 80063c4:	689b      	ldr	r3, [r3, #8]
 80063c6:	021a      	lsls	r2, r3, #8
 80063c8:	68fb      	ldr	r3, [r7, #12]
 80063ca:	681b      	ldr	r3, [r3, #0]
 80063cc:	430a      	orrs	r2, r1
 80063ce:	619a      	str	r2, [r3, #24]
 80063d0:	e040      	b.n	8006454 <HAL_TIM_IC_ConfigChannel+0x126>
  }
  else if (Channel == TIM_CHANNEL_3)
 80063d2:	687b      	ldr	r3, [r7, #4]
 80063d4:	2b08      	cmp	r3, #8
 80063d6:	d11b      	bne.n	8006410 <HAL_TIM_IC_ConfigChannel+0xe2>
  {
    /* TI3 Configuration */
    assert_param(IS_TIM_CC3_INSTANCE(htim->Instance));

    TIM_TI3_SetConfig(htim->Instance,
 80063d8:	68fb      	ldr	r3, [r7, #12]
 80063da:	6818      	ldr	r0, [r3, #0]
 80063dc:	68bb      	ldr	r3, [r7, #8]
 80063de:	6819      	ldr	r1, [r3, #0]
 80063e0:	68bb      	ldr	r3, [r7, #8]
 80063e2:	685a      	ldr	r2, [r3, #4]
 80063e4:	68bb      	ldr	r3, [r7, #8]
 80063e6:	68db      	ldr	r3, [r3, #12]
 80063e8:	f000 fb06 	bl	80069f8 <TIM_TI3_SetConfig>
                      sConfig->ICPolarity,
                      sConfig->ICSelection,
                      sConfig->ICFilter);

    /* Reset the IC3PSC Bits */
    htim->Instance->CCMR2 &= ~TIM_CCMR2_IC3PSC;
 80063ec:	68fb      	ldr	r3, [r7, #12]
 80063ee:	681b      	ldr	r3, [r3, #0]
 80063f0:	69da      	ldr	r2, [r3, #28]
 80063f2:	68fb      	ldr	r3, [r7, #12]
 80063f4:	681b      	ldr	r3, [r3, #0]
 80063f6:	f022 020c 	bic.w	r2, r2, #12
 80063fa:	61da      	str	r2, [r3, #28]

    /* Set the IC3PSC value */
    htim->Instance->CCMR2 |= sConfig->ICPrescaler;
 80063fc:	68fb      	ldr	r3, [r7, #12]
 80063fe:	681b      	ldr	r3, [r3, #0]
 8006400:	69d9      	ldr	r1, [r3, #28]
 8006402:	68bb      	ldr	r3, [r7, #8]
 8006404:	689a      	ldr	r2, [r3, #8]
 8006406:	68fb      	ldr	r3, [r7, #12]
 8006408:	681b      	ldr	r3, [r3, #0]
 800640a:	430a      	orrs	r2, r1
 800640c:	61da      	str	r2, [r3, #28]
 800640e:	e021      	b.n	8006454 <HAL_TIM_IC_ConfigChannel+0x126>
  }
  else if (Channel == TIM_CHANNEL_4)
 8006410:	687b      	ldr	r3, [r7, #4]
 8006412:	2b0c      	cmp	r3, #12
 8006414:	d11c      	bne.n	8006450 <HAL_TIM_IC_ConfigChannel+0x122>
  {
    /* TI4 Configuration */
    assert_param(IS_TIM_CC4_INSTANCE(htim->Instance));

    TIM_TI4_SetConfig(htim->Instance,
 8006416:	68fb      	ldr	r3, [r7, #12]
 8006418:	6818      	ldr	r0, [r3, #0]
 800641a:	68bb      	ldr	r3, [r7, #8]
 800641c:	6819      	ldr	r1, [r3, #0]
 800641e:	68bb      	ldr	r3, [r7, #8]
 8006420:	685a      	ldr	r2, [r3, #4]
 8006422:	68bb      	ldr	r3, [r7, #8]
 8006424:	68db      	ldr	r3, [r3, #12]
 8006426:	f000 fb23 	bl	8006a70 <TIM_TI4_SetConfig>
                      sConfig->ICPolarity,
                      sConfig->ICSelection,
                      sConfig->ICFilter);

    /* Reset the IC4PSC Bits */
    htim->Instance->CCMR2 &= ~TIM_CCMR2_IC4PSC;
 800642a:	68fb      	ldr	r3, [r7, #12]
 800642c:	681b      	ldr	r3, [r3, #0]
 800642e:	69da      	ldr	r2, [r3, #28]
 8006430:	68fb      	ldr	r3, [r7, #12]
 8006432:	681b      	ldr	r3, [r3, #0]
 8006434:	f422 6240 	bic.w	r2, r2, #3072	; 0xc00
 8006438:	61da      	str	r2, [r3, #28]

    /* Set the IC4PSC value */
    htim->Instance->CCMR2 |= (sConfig->ICPrescaler << 8U);
 800643a:	68fb      	ldr	r3, [r7, #12]
 800643c:	681b      	ldr	r3, [r3, #0]
 800643e:	69d9      	ldr	r1, [r3, #28]
 8006440:	68bb      	ldr	r3, [r7, #8]
 8006442:	689b      	ldr	r3, [r3, #8]
 8006444:	021a      	lsls	r2, r3, #8
 8006446:	68fb      	ldr	r3, [r7, #12]
 8006448:	681b      	ldr	r3, [r3, #0]
 800644a:	430a      	orrs	r2, r1
 800644c:	61da      	str	r2, [r3, #28]
 800644e:	e001      	b.n	8006454 <HAL_TIM_IC_ConfigChannel+0x126>
  }
  else
  {
    status = HAL_ERROR;
 8006450:	2301      	movs	r3, #1
 8006452:	75fb      	strb	r3, [r7, #23]
  }

  __HAL_UNLOCK(htim);
 8006454:	68fb      	ldr	r3, [r7, #12]
 8006456:	2200      	movs	r2, #0
 8006458:	f883 203c 	strb.w	r2, [r3, #60]	; 0x3c

  return status;
 800645c:	7dfb      	ldrb	r3, [r7, #23]
}
 800645e:	4618      	mov	r0, r3
 8006460:	3718      	adds	r7, #24
 8006462:	46bd      	mov	sp, r7
 8006464:	bd80      	pop	{r7, pc}

08006466 <HAL_TIM_ConfigClockSource>:
  * @param  sClockSourceConfig pointer to a TIM_ClockConfigTypeDef structure that
  *         contains the clock source information for the TIM peripheral.
  * @retval HAL status
  */
HAL_StatusTypeDef HAL_TIM_ConfigClockSource(TIM_HandleTypeDef *htim, const TIM_ClockConfigTypeDef *sClockSourceConfig)
{
 8006466:	b580      	push	{r7, lr}
 8006468:	b084      	sub	sp, #16
 800646a:	af00      	add	r7, sp, #0
 800646c:	6078      	str	r0, [r7, #4]
 800646e:	6039      	str	r1, [r7, #0]
  HAL_StatusTypeDef status = HAL_OK;
 8006470:	2300      	movs	r3, #0
 8006472:	73fb      	strb	r3, [r7, #15]
  uint32_t tmpsmcr;

  /* Process Locked */
  __HAL_LOCK(htim);
 8006474:	687b      	ldr	r3, [r7, #4]
 8006476:	f893 303c 	ldrb.w	r3, [r3, #60]	; 0x3c
 800647a:	2b01      	cmp	r3, #1
 800647c:	d101      	bne.n	8006482 <HAL_TIM_ConfigClockSource+0x1c>
 800647e:	2302      	movs	r3, #2
 8006480:	e0b6      	b.n	80065f0 <HAL_TIM_ConfigClockSource+0x18a>
 8006482:	687b      	ldr	r3, [r7, #4]
 8006484:	2201      	movs	r2, #1
 8006486:	f883 203c 	strb.w	r2, [r3, #60]	; 0x3c

  htim->State = HAL_TIM_STATE_BUSY;
 800648a:	687b      	ldr	r3, [r7, #4]
 800648c:	2202      	movs	r2, #2
 800648e:	f883 203d 	strb.w	r2, [r3, #61]	; 0x3d

  /* Check the parameters */
  assert_param(IS_TIM_CLOCKSOURCE(sClockSourceConfig->ClockSource));

  /* Reset the SMS, TS, ECE, ETPS and ETRF bits */
  tmpsmcr = htim->Instance->SMCR;
 8006492:	687b      	ldr	r3, [r7, #4]
 8006494:	681b      	ldr	r3, [r3, #0]
 8006496:	689b      	ldr	r3, [r3, #8]
 8006498:	60bb      	str	r3, [r7, #8]
  tmpsmcr &= ~(TIM_SMCR_SMS | TIM_SMCR_TS);
 800649a:	68bb      	ldr	r3, [r7, #8]
 800649c:	f423 3380 	bic.w	r3, r3, #65536	; 0x10000
 80064a0:	f023 0377 	bic.w	r3, r3, #119	; 0x77
 80064a4:	60bb      	str	r3, [r7, #8]
  tmpsmcr &= ~(TIM_SMCR_ETF | TIM_SMCR_ETPS | TIM_SMCR_ECE | TIM_SMCR_ETP);
 80064a6:	68bb      	ldr	r3, [r7, #8]
 80064a8:	f423 437f 	bic.w	r3, r3, #65280	; 0xff00
 80064ac:	60bb      	str	r3, [r7, #8]
  htim->Instance->SMCR = tmpsmcr;
 80064ae:	687b      	ldr	r3, [r7, #4]
 80064b0:	681b      	ldr	r3, [r3, #0]
 80064b2:	68ba      	ldr	r2, [r7, #8]
 80064b4:	609a      	str	r2, [r3, #8]

  switch (sClockSourceConfig->ClockSource)
 80064b6:	683b      	ldr	r3, [r7, #0]
 80064b8:	681b      	ldr	r3, [r3, #0]
 80064ba:	f5b3 5f00 	cmp.w	r3, #8192	; 0x2000
 80064be:	d03e      	beq.n	800653e <HAL_TIM_ConfigClockSource+0xd8>
 80064c0:	f5b3 5f00 	cmp.w	r3, #8192	; 0x2000
 80064c4:	f200 8087 	bhi.w	80065d6 <HAL_TIM_ConfigClockSource+0x170>
 80064c8:	f5b3 5f80 	cmp.w	r3, #4096	; 0x1000
 80064cc:	f000 8086 	beq.w	80065dc <HAL_TIM_ConfigClockSource+0x176>
 80064d0:	f5b3 5f80 	cmp.w	r3, #4096	; 0x1000
 80064d4:	d87f      	bhi.n	80065d6 <HAL_TIM_ConfigClockSource+0x170>
 80064d6:	2b70      	cmp	r3, #112	; 0x70
 80064d8:	d01a      	beq.n	8006510 <HAL_TIM_ConfigClockSource+0xaa>
 80064da:	2b70      	cmp	r3, #112	; 0x70
 80064dc:	d87b      	bhi.n	80065d6 <HAL_TIM_ConfigClockSource+0x170>
 80064de:	2b60      	cmp	r3, #96	; 0x60
 80064e0:	d050      	beq.n	8006584 <HAL_TIM_ConfigClockSource+0x11e>
 80064e2:	2b60      	cmp	r3, #96	; 0x60
 80064e4:	d877      	bhi.n	80065d6 <HAL_TIM_ConfigClockSource+0x170>
 80064e6:	2b50      	cmp	r3, #80	; 0x50
 80064e8:	d03c      	beq.n	8006564 <HAL_TIM_ConfigClockSource+0xfe>
 80064ea:	2b50      	cmp	r3, #80	; 0x50
 80064ec:	d873      	bhi.n	80065d6 <HAL_TIM_ConfigClockSource+0x170>
 80064ee:	2b40      	cmp	r3, #64	; 0x40
 80064f0:	d058      	beq.n	80065a4 <HAL_TIM_ConfigClockSource+0x13e>
 80064f2:	2b40      	cmp	r3, #64	; 0x40
 80064f4:	d86f      	bhi.n	80065d6 <HAL_TIM_ConfigClockSource+0x170>
 80064f6:	2b30      	cmp	r3, #48	; 0x30
 80064f8:	d064      	beq.n	80065c4 <HAL_TIM_ConfigClockSource+0x15e>
 80064fa:	2b30      	cmp	r3, #48	; 0x30
 80064fc:	d86b      	bhi.n	80065d6 <HAL_TIM_ConfigClockSource+0x170>
 80064fe:	2b20      	cmp	r3, #32
 8006500:	d060      	beq.n	80065c4 <HAL_TIM_ConfigClockSource+0x15e>
 8006502:	2b20      	cmp	r3, #32
 8006504:	d867      	bhi.n	80065d6 <HAL_TIM_ConfigClockSource+0x170>
 8006506:	2b00      	cmp	r3, #0
 8006508:	d05c      	beq.n	80065c4 <HAL_TIM_ConfigClockSource+0x15e>
 800650a:	2b10      	cmp	r3, #16
 800650c:	d05a      	beq.n	80065c4 <HAL_TIM_ConfigClockSource+0x15e>
 800650e:	e062      	b.n	80065d6 <HAL_TIM_ConfigClockSource+0x170>
      assert_param(IS_TIM_CLOCKPRESCALER(sClockSourceConfig->ClockPrescaler));
      assert_param(IS_TIM_CLOCKPOLARITY(sClockSourceConfig->ClockPolarity));
      assert_param(IS_TIM_CLOCKFILTER(sClockSourceConfig->ClockFilter));

      /* Configure the ETR Clock source */
      TIM_ETR_SetConfig(htim->Instance,
 8006510:	687b      	ldr	r3, [r7, #4]
 8006512:	6818      	ldr	r0, [r3, #0]
 8006514:	683b      	ldr	r3, [r7, #0]
 8006516:	6899      	ldr	r1, [r3, #8]
 8006518:	683b      	ldr	r3, [r7, #0]
 800651a:	685a      	ldr	r2, [r3, #4]
 800651c:	683b      	ldr	r3, [r7, #0]
 800651e:	68db      	ldr	r3, [r3, #12]
 8006520:	f000 fafe 	bl	8006b20 <TIM_ETR_SetConfig>
                        sClockSourceConfig->ClockPrescaler,
                        sClockSourceConfig->ClockPolarity,
                        sClockSourceConfig->ClockFilter);

      /* Select the External clock mode1 and the ETRF trigger */
      tmpsmcr = htim->Instance->SMCR;
 8006524:	687b      	ldr	r3, [r7, #4]
 8006526:	681b      	ldr	r3, [r3, #0]
 8006528:	689b      	ldr	r3, [r3, #8]
 800652a:	60bb      	str	r3, [r7, #8]
      tmpsmcr |= (TIM_SLAVEMODE_EXTERNAL1 | TIM_CLOCKSOURCE_ETRMODE1);
 800652c:	68bb      	ldr	r3, [r7, #8]
 800652e:	f043 0377 	orr.w	r3, r3, #119	; 0x77
 8006532:	60bb      	str	r3, [r7, #8]
      /* Write to TIMx SMCR */
      htim->Instance->SMCR = tmpsmcr;
 8006534:	687b      	ldr	r3, [r7, #4]
 8006536:	681b      	ldr	r3, [r3, #0]
 8006538:	68ba      	ldr	r2, [r7, #8]
 800653a:	609a      	str	r2, [r3, #8]
      break;
 800653c:	e04f      	b.n	80065de <HAL_TIM_ConfigClockSource+0x178>
      assert_param(IS_TIM_CLOCKPRESCALER(sClockSourceConfig->ClockPrescaler));
      assert_param(IS_TIM_CLOCKPOLARITY(sClockSourceConfig->ClockPolarity));
      assert_param(IS_TIM_CLOCKFILTER(sClockSourceConfig->ClockFilter));

      /* Configure the ETR Clock source */
      TIM_ETR_SetConfig(htim->Instance,
 800653e:	687b      	ldr	r3, [r7, #4]
 8006540:	6818      	ldr	r0, [r3, #0]
 8006542:	683b      	ldr	r3, [r7, #0]
 8006544:	6899      	ldr	r1, [r3, #8]
 8006546:	683b      	ldr	r3, [r7, #0]
 8006548:	685a      	ldr	r2, [r3, #4]
 800654a:	683b      	ldr	r3, [r7, #0]
 800654c:	68db      	ldr	r3, [r3, #12]
 800654e:	f000 fae7 	bl	8006b20 <TIM_ETR_SetConfig>
                        sClockSourceConfig->ClockPrescaler,
                        sClockSourceConfig->ClockPolarity,
                        sClockSourceConfig->ClockFilter);
      /* Enable the External clock mode2 */
      htim->Instance->SMCR |= TIM_SMCR_ECE;
 8006552:	687b      	ldr	r3, [r7, #4]
 8006554:	681b      	ldr	r3, [r3, #0]
 8006556:	689a      	ldr	r2, [r3, #8]
 8006558:	687b      	ldr	r3, [r7, #4]
 800655a:	681b      	ldr	r3, [r3, #0]
 800655c:	f442 4280 	orr.w	r2, r2, #16384	; 0x4000
 8006560:	609a      	str	r2, [r3, #8]
      break;
 8006562:	e03c      	b.n	80065de <HAL_TIM_ConfigClockSource+0x178>

      /* Check TI1 input conditioning related parameters */
      assert_param(IS_TIM_CLOCKPOLARITY(sClockSourceConfig->ClockPolarity));
      assert_param(IS_TIM_CLOCKFILTER(sClockSourceConfig->ClockFilter));

      TIM_TI1_ConfigInputStage(htim->Instance,
 8006564:	687b      	ldr	r3, [r7, #4]
 8006566:	6818      	ldr	r0, [r3, #0]
 8006568:	683b      	ldr	r3, [r7, #0]
 800656a:	6859      	ldr	r1, [r3, #4]
 800656c:	683b      	ldr	r3, [r7, #0]
 800656e:	68db      	ldr	r3, [r3, #12]
 8006570:	461a      	mov	r2, r3
 8006572:	f000 f9a5 	bl	80068c0 <TIM_TI1_ConfigInputStage>
                               sClockSourceConfig->ClockPolarity,
                               sClockSourceConfig->ClockFilter);
      TIM_ITRx_SetConfig(htim->Instance, TIM_CLOCKSOURCE_TI1);
 8006576:	687b      	ldr	r3, [r7, #4]
 8006578:	681b      	ldr	r3, [r3, #0]
 800657a:	2150      	movs	r1, #80	; 0x50
 800657c:	4618      	mov	r0, r3
 800657e:	f000 fab4 	bl	8006aea <TIM_ITRx_SetConfig>
      break;
 8006582:	e02c      	b.n	80065de <HAL_TIM_ConfigClockSource+0x178>

      /* Check TI2 input conditioning related parameters */
      assert_param(IS_TIM_CLOCKPOLARITY(sClockSourceConfig->ClockPolarity));
      assert_param(IS_TIM_CLOCKFILTER(sClockSourceConfig->ClockFilter));

      TIM_TI2_ConfigInputStage(htim->Instance,
 8006584:	687b      	ldr	r3, [r7, #4]
 8006586:	6818      	ldr	r0, [r3, #0]
 8006588:	683b      	ldr	r3, [r7, #0]
 800658a:	6859      	ldr	r1, [r3, #4]
 800658c:	683b      	ldr	r3, [r7, #0]
 800658e:	68db      	ldr	r3, [r3, #12]
 8006590:	461a      	mov	r2, r3
 8006592:	f000 fa01 	bl	8006998 <TIM_TI2_ConfigInputStage>
                               sClockSourceConfig->ClockPolarity,
                               sClockSourceConfig->ClockFilter);
      TIM_ITRx_SetConfig(htim->Instance, TIM_CLOCKSOURCE_TI2);
 8006596:	687b      	ldr	r3, [r7, #4]
 8006598:	681b      	ldr	r3, [r3, #0]
 800659a:	2160      	movs	r1, #96	; 0x60
 800659c:	4618      	mov	r0, r3
 800659e:	f000 faa4 	bl	8006aea <TIM_ITRx_SetConfig>
      break;
 80065a2:	e01c      	b.n	80065de <HAL_TIM_ConfigClockSource+0x178>

      /* Check TI1 input conditioning related parameters */
      assert_param(IS_TIM_CLOCKPOLARITY(sClockSourceConfig->ClockPolarity));
      assert_param(IS_TIM_CLOCKFILTER(sClockSourceConfig->ClockFilter));

      TIM_TI1_ConfigInputStage(htim->Instance,
 80065a4:	687b      	ldr	r3, [r7, #4]
 80065a6:	6818      	ldr	r0, [r3, #0]
 80065a8:	683b      	ldr	r3, [r7, #0]
 80065aa:	6859      	ldr	r1, [r3, #4]
 80065ac:	683b      	ldr	r3, [r7, #0]
 80065ae:	68db      	ldr	r3, [r3, #12]
 80065b0:	461a      	mov	r2, r3
 80065b2:	f000 f985 	bl	80068c0 <TIM_TI1_ConfigInputStage>
                               sClockSourceConfig->ClockPolarity,
                               sClockSourceConfig->ClockFilter);
      TIM_ITRx_SetConfig(htim->Instance, TIM_CLOCKSOURCE_TI1ED);
 80065b6:	687b      	ldr	r3, [r7, #4]
 80065b8:	681b      	ldr	r3, [r3, #0]
 80065ba:	2140      	movs	r1, #64	; 0x40
 80065bc:	4618      	mov	r0, r3
 80065be:	f000 fa94 	bl	8006aea <TIM_ITRx_SetConfig>
      break;
 80065c2:	e00c      	b.n	80065de <HAL_TIM_ConfigClockSource+0x178>
    case TIM_CLOCKSOURCE_ITR3:
    {
      /* Check whether or not the timer instance supports internal trigger input */
      assert_param(IS_TIM_CLOCKSOURCE_ITRX_INSTANCE(htim->Instance));

      TIM_ITRx_SetConfig(htim->Instance, sClockSourceConfig->ClockSource);
 80065c4:	687b      	ldr	r3, [r7, #4]
 80065c6:	681a      	ldr	r2, [r3, #0]
 80065c8:	683b      	ldr	r3, [r7, #0]
 80065ca:	681b      	ldr	r3, [r3, #0]
 80065cc:	4619      	mov	r1, r3
 80065ce:	4610      	mov	r0, r2
 80065d0:	f000 fa8b 	bl	8006aea <TIM_ITRx_SetConfig>
      break;
 80065d4:	e003      	b.n	80065de <HAL_TIM_ConfigClockSource+0x178>
    }

    default:
      status = HAL_ERROR;
 80065d6:	2301      	movs	r3, #1
 80065d8:	73fb      	strb	r3, [r7, #15]
      break;
 80065da:	e000      	b.n	80065de <HAL_TIM_ConfigClockSource+0x178>
      break;
 80065dc:	bf00      	nop
  }
  htim->State = HAL_TIM_STATE_READY;
 80065de:	687b      	ldr	r3, [r7, #4]
 80065e0:	2201      	movs	r2, #1
 80065e2:	f883 203d 	strb.w	r2, [r3, #61]	; 0x3d

  __HAL_UNLOCK(htim);
 80065e6:	687b      	ldr	r3, [r7, #4]
 80065e8:	2200      	movs	r2, #0
 80065ea:	f883 203c 	strb.w	r2, [r3, #60]	; 0x3c

  return status;
 80065ee:	7bfb      	ldrb	r3, [r7, #15]
}
 80065f0:	4618      	mov	r0, r3
 80065f2:	3710      	adds	r7, #16
 80065f4:	46bd      	mov	sp, r7
 80065f6:	bd80      	pop	{r7, pc}

080065f8 <HAL_TIM_ReadCapturedValue>:
  *            @arg TIM_CHANNEL_3: TIM Channel 3 selected
  *            @arg TIM_CHANNEL_4: TIM Channel 4 selected
  * @retval Captured value
  */
uint32_t HAL_TIM_ReadCapturedValue(const TIM_HandleTypeDef *htim, uint32_t Channel)
{
 80065f8:	b480      	push	{r7}
 80065fa:	b085      	sub	sp, #20
 80065fc:	af00      	add	r7, sp, #0
 80065fe:	6078      	str	r0, [r7, #4]
 8006600:	6039      	str	r1, [r7, #0]
  uint32_t tmpreg = 0U;
 8006602:	2300      	movs	r3, #0
 8006604:	60fb      	str	r3, [r7, #12]

  switch (Channel)
 8006606:	683b      	ldr	r3, [r7, #0]
 8006608:	2b0c      	cmp	r3, #12
 800660a:	d831      	bhi.n	8006670 <HAL_TIM_ReadCapturedValue+0x78>
 800660c:	a201      	add	r2, pc, #4	; (adr r2, 8006614 <HAL_TIM_ReadCapturedValue+0x1c>)
 800660e:	f852 f023 	ldr.w	pc, [r2, r3, lsl #2]
 8006612:	bf00      	nop
 8006614:	08006649 	.word	0x08006649
 8006618:	08006671 	.word	0x08006671
 800661c:	08006671 	.word	0x08006671
 8006620:	08006671 	.word	0x08006671
 8006624:	08006653 	.word	0x08006653
 8006628:	08006671 	.word	0x08006671
 800662c:	08006671 	.word	0x08006671
 8006630:	08006671 	.word	0x08006671
 8006634:	0800665d 	.word	0x0800665d
 8006638:	08006671 	.word	0x08006671
 800663c:	08006671 	.word	0x08006671
 8006640:	08006671 	.word	0x08006671
 8006644:	08006667 	.word	0x08006667
    {
      /* Check the parameters */
      assert_param(IS_TIM_CC1_INSTANCE(htim->Instance));

      /* Return the capture 1 value */
      tmpreg =  htim->Instance->CCR1;
 8006648:	687b      	ldr	r3, [r7, #4]
 800664a:	681b      	ldr	r3, [r3, #0]
 800664c:	6b5b      	ldr	r3, [r3, #52]	; 0x34
 800664e:	60fb      	str	r3, [r7, #12]

      break;
 8006650:	e00f      	b.n	8006672 <HAL_TIM_ReadCapturedValue+0x7a>
    {
      /* Check the parameters */
      assert_param(IS_TIM_CC2_INSTANCE(htim->Instance));

      /* Return the capture 2 value */
      tmpreg =   htim->Instance->CCR2;
 8006652:	687b      	ldr	r3, [r7, #4]
 8006654:	681b      	ldr	r3, [r3, #0]
 8006656:	6b9b      	ldr	r3, [r3, #56]	; 0x38
 8006658:	60fb      	str	r3, [r7, #12]

      break;
 800665a:	e00a      	b.n	8006672 <HAL_TIM_ReadCapturedValue+0x7a>
    {
      /* Check the parameters */
      assert_param(IS_TIM_CC3_INSTANCE(htim->Instance));

      /* Return the capture 3 value */
      tmpreg =   htim->Instance->CCR3;
 800665c:	687b      	ldr	r3, [r7, #4]
 800665e:	681b      	ldr	r3, [r3, #0]
 8006660:	6bdb      	ldr	r3, [r3, #60]	; 0x3c
 8006662:	60fb      	str	r3, [r7, #12]

      break;
 8006664:	e005      	b.n	8006672 <HAL_TIM_ReadCapturedValue+0x7a>
    {
      /* Check the parameters */
      assert_param(IS_TIM_CC4_INSTANCE(htim->Instance));

      /* Return the capture 4 value */
      tmpreg =   htim->Instance->CCR4;
 8006666:	687b      	ldr	r3, [r7, #4]
 8006668:	681b      	ldr	r3, [r3, #0]
 800666a:	6c1b      	ldr	r3, [r3, #64]	; 0x40
 800666c:	60fb      	str	r3, [r7, #12]

      break;
 800666e:	e000      	b.n	8006672 <HAL_TIM_ReadCapturedValue+0x7a>
    }

    default:
      break;
 8006670:	bf00      	nop
  }

  return tmpreg;
 8006672:	68fb      	ldr	r3, [r7, #12]
}
 8006674:	4618      	mov	r0, r3
 8006676:	3714      	adds	r7, #20
 8006678:	46bd      	mov	sp, r7
 800667a:	f85d 7b04 	ldr.w	r7, [sp], #4
 800667e:	4770      	bx	lr

08006680 <HAL_TIM_PeriodElapsedCallback>:
  * @brief  Period elapsed callback in non-blocking mode
  * @param  htim TIM handle
  * @retval None
  */
__weak void HAL_TIM_PeriodElapsedCallback(TIM_HandleTypeDef *htim)
{
 8006680:	b480      	push	{r7}
 8006682:	b083      	sub	sp, #12
 8006684:	af00      	add	r7, sp, #0
 8006686:	6078      	str	r0, [r7, #4]
  UNUSED(htim);

  /* NOTE : This function should not be modified, when the callback is needed,
            the HAL_TIM_PeriodElapsedCallback could be implemented in the user file
   */
}
 8006688:	bf00      	nop
 800668a:	370c      	adds	r7, #12
 800668c:	46bd      	mov	sp, r7
 800668e:	f85d 7b04 	ldr.w	r7, [sp], #4
 8006692:	4770      	bx	lr

08006694 <HAL_TIM_OC_DelayElapsedCallback>:
  * @brief  Output Compare callback in non-blocking mode
  * @param  htim TIM OC handle
  * @retval None
  */
__weak void HAL_TIM_OC_DelayElapsedCallback(TIM_HandleTypeDef *htim)
{
 8006694:	b480      	push	{r7}
 8006696:	b083      	sub	sp, #12
 8006698:	af00      	add	r7, sp, #0
 800669a:	6078      	str	r0, [r7, #4]
  UNUSED(htim);

  /* NOTE : This function should not be modified, when the callback is needed,
            the HAL_TIM_OC_DelayElapsedCallback could be implemented in the user file
   */
}
 800669c:	bf00      	nop
 800669e:	370c      	adds	r7, #12
 80066a0:	46bd      	mov	sp, r7
 80066a2:	f85d 7b04 	ldr.w	r7, [sp], #4
 80066a6:	4770      	bx	lr

080066a8 <HAL_TIM_PWM_PulseFinishedCallback>:
  * @brief  PWM Pulse finished callback in non-blocking mode
  * @param  htim TIM handle
  * @retval None
  */
__weak void HAL_TIM_PWM_PulseFinishedCallback(TIM_HandleTypeDef *htim)
{
 80066a8:	b480      	push	{r7}
 80066aa:	b083      	sub	sp, #12
 80066ac:	af00      	add	r7, sp, #0
 80066ae:	6078      	str	r0, [r7, #4]
  UNUSED(htim);

  /* NOTE : This function should not be modified, when the callback is needed,
            the HAL_TIM_PWM_PulseFinishedCallback could be implemented in the user file
   */
}
 80066b0:	bf00      	nop
 80066b2:	370c      	adds	r7, #12
 80066b4:	46bd      	mov	sp, r7
 80066b6:	f85d 7b04 	ldr.w	r7, [sp], #4
 80066ba:	4770      	bx	lr

080066bc <HAL_TIM_TriggerCallback>:
  * @brief  Hall Trigger detection callback in non-blocking mode
  * @param  htim TIM handle
  * @retval None
  */
__weak void HAL_TIM_TriggerCallback(TIM_HandleTypeDef *htim)
{
 80066bc:	b480      	push	{r7}
 80066be:	b083      	sub	sp, #12
 80066c0:	af00      	add	r7, sp, #0
 80066c2:	6078      	str	r0, [r7, #4]
  UNUSED(htim);

  /* NOTE : This function should not be modified, when the callback is needed,
            the HAL_TIM_TriggerCallback could be implemented in the user file
   */
}
 80066c4:	bf00      	nop
 80066c6:	370c      	adds	r7, #12
 80066c8:	46bd      	mov	sp, r7
 80066ca:	f85d 7b04 	ldr.w	r7, [sp], #4
 80066ce:	4770      	bx	lr

080066d0 <TIM_Base_SetConfig>:
  * @param  TIMx TIM peripheral
  * @param  Structure TIM Base configuration structure
  * @retval None
  */
void TIM_Base_SetConfig(TIM_TypeDef *TIMx, const TIM_Base_InitTypeDef *Structure)
{
 80066d0:	b480      	push	{r7}
 80066d2:	b085      	sub	sp, #20
 80066d4:	af00      	add	r7, sp, #0
 80066d6:	6078      	str	r0, [r7, #4]
 80066d8:	6039      	str	r1, [r7, #0]
  uint32_t tmpcr1;
  tmpcr1 = TIMx->CR1;
 80066da:	687b      	ldr	r3, [r7, #4]
 80066dc:	681b      	ldr	r3, [r3, #0]
 80066de:	60fb      	str	r3, [r7, #12]

  /* Set TIM Time Base Unit parameters ---------------------------------------*/
  if (IS_TIM_COUNTER_MODE_SELECT_INSTANCE(TIMx))
 80066e0:	687b      	ldr	r3, [r7, #4]
 80066e2:	4a3c      	ldr	r2, [pc, #240]	; (80067d4 <TIM_Base_SetConfig+0x104>)
 80066e4:	4293      	cmp	r3, r2
 80066e6:	d00f      	beq.n	8006708 <TIM_Base_SetConfig+0x38>
 80066e8:	687b      	ldr	r3, [r7, #4]
 80066ea:	f1b3 4f80 	cmp.w	r3, #1073741824	; 0x40000000
 80066ee:	d00b      	beq.n	8006708 <TIM_Base_SetConfig+0x38>
 80066f0:	687b      	ldr	r3, [r7, #4]
 80066f2:	4a39      	ldr	r2, [pc, #228]	; (80067d8 <TIM_Base_SetConfig+0x108>)
 80066f4:	4293      	cmp	r3, r2
 80066f6:	d007      	beq.n	8006708 <TIM_Base_SetConfig+0x38>
 80066f8:	687b      	ldr	r3, [r7, #4]
 80066fa:	4a38      	ldr	r2, [pc, #224]	; (80067dc <TIM_Base_SetConfig+0x10c>)
 80066fc:	4293      	cmp	r3, r2
 80066fe:	d003      	beq.n	8006708 <TIM_Base_SetConfig+0x38>
 8006700:	687b      	ldr	r3, [r7, #4]
 8006702:	4a37      	ldr	r2, [pc, #220]	; (80067e0 <TIM_Base_SetConfig+0x110>)
 8006704:	4293      	cmp	r3, r2
 8006706:	d108      	bne.n	800671a <TIM_Base_SetConfig+0x4a>
  {
    /* Select the Counter Mode */
    tmpcr1 &= ~(TIM_CR1_DIR | TIM_CR1_CMS);
 8006708:	68fb      	ldr	r3, [r7, #12]
 800670a:	f023 0370 	bic.w	r3, r3, #112	; 0x70
 800670e:	60fb      	str	r3, [r7, #12]
    tmpcr1 |= Structure->CounterMode;
 8006710:	683b      	ldr	r3, [r7, #0]
 8006712:	685b      	ldr	r3, [r3, #4]
 8006714:	68fa      	ldr	r2, [r7, #12]
 8006716:	4313      	orrs	r3, r2
 8006718:	60fb      	str	r3, [r7, #12]
  }

  if (IS_TIM_CLOCK_DIVISION_INSTANCE(TIMx))
 800671a:	687b      	ldr	r3, [r7, #4]
 800671c:	4a2d      	ldr	r2, [pc, #180]	; (80067d4 <TIM_Base_SetConfig+0x104>)
 800671e:	4293      	cmp	r3, r2
 8006720:	d01b      	beq.n	800675a <TIM_Base_SetConfig+0x8a>
 8006722:	687b      	ldr	r3, [r7, #4]
 8006724:	f1b3 4f80 	cmp.w	r3, #1073741824	; 0x40000000
 8006728:	d017      	beq.n	800675a <TIM_Base_SetConfig+0x8a>
 800672a:	687b      	ldr	r3, [r7, #4]
 800672c:	4a2a      	ldr	r2, [pc, #168]	; (80067d8 <TIM_Base_SetConfig+0x108>)
 800672e:	4293      	cmp	r3, r2
 8006730:	d013      	beq.n	800675a <TIM_Base_SetConfig+0x8a>
 8006732:	687b      	ldr	r3, [r7, #4]
 8006734:	4a29      	ldr	r2, [pc, #164]	; (80067dc <TIM_Base_SetConfig+0x10c>)
 8006736:	4293      	cmp	r3, r2
 8006738:	d00f      	beq.n	800675a <TIM_Base_SetConfig+0x8a>
 800673a:	687b      	ldr	r3, [r7, #4]
 800673c:	4a28      	ldr	r2, [pc, #160]	; (80067e0 <TIM_Base_SetConfig+0x110>)
 800673e:	4293      	cmp	r3, r2
 8006740:	d00b      	beq.n	800675a <TIM_Base_SetConfig+0x8a>
 8006742:	687b      	ldr	r3, [r7, #4]
 8006744:	4a27      	ldr	r2, [pc, #156]	; (80067e4 <TIM_Base_SetConfig+0x114>)
 8006746:	4293      	cmp	r3, r2
 8006748:	d007      	beq.n	800675a <TIM_Base_SetConfig+0x8a>
 800674a:	687b      	ldr	r3, [r7, #4]
 800674c:	4a26      	ldr	r2, [pc, #152]	; (80067e8 <TIM_Base_SetConfig+0x118>)
 800674e:	4293      	cmp	r3, r2
 8006750:	d003      	beq.n	800675a <TIM_Base_SetConfig+0x8a>
 8006752:	687b      	ldr	r3, [r7, #4]
 8006754:	4a25      	ldr	r2, [pc, #148]	; (80067ec <TIM_Base_SetConfig+0x11c>)
 8006756:	4293      	cmp	r3, r2
 8006758:	d108      	bne.n	800676c <TIM_Base_SetConfig+0x9c>
  {
    /* Set the clock division */
    tmpcr1 &= ~TIM_CR1_CKD;
 800675a:	68fb      	ldr	r3, [r7, #12]
 800675c:	f423 7340 	bic.w	r3, r3, #768	; 0x300
 8006760:	60fb      	str	r3, [r7, #12]
    tmpcr1 |= (uint32_t)Structure->ClockDivision;
 8006762:	683b      	ldr	r3, [r7, #0]
 8006764:	68db      	ldr	r3, [r3, #12]
 8006766:	68fa      	ldr	r2, [r7, #12]
 8006768:	4313      	orrs	r3, r2
 800676a:	60fb      	str	r3, [r7, #12]
  }

  /* Set the auto-reload preload */
  MODIFY_REG(tmpcr1, TIM_CR1_ARPE, Structure->AutoReloadPreload);
 800676c:	68fb      	ldr	r3, [r7, #12]
 800676e:	f023 0280 	bic.w	r2, r3, #128	; 0x80
 8006772:	683b      	ldr	r3, [r7, #0]
 8006774:	695b      	ldr	r3, [r3, #20]
 8006776:	4313      	orrs	r3, r2
 8006778:	60fb      	str	r3, [r7, #12]

  TIMx->CR1 = tmpcr1;
 800677a:	687b      	ldr	r3, [r7, #4]
 800677c:	68fa      	ldr	r2, [r7, #12]
 800677e:	601a      	str	r2, [r3, #0]

  /* Set the Autoreload value */
  TIMx->ARR = (uint32_t)Structure->Period ;
 8006780:	683b      	ldr	r3, [r7, #0]
 8006782:	689a      	ldr	r2, [r3, #8]
 8006784:	687b      	ldr	r3, [r7, #4]
 8006786:	62da      	str	r2, [r3, #44]	; 0x2c

  /* Set the Prescaler value */
  TIMx->PSC = Structure->Prescaler;
 8006788:	683b      	ldr	r3, [r7, #0]
 800678a:	681a      	ldr	r2, [r3, #0]
 800678c:	687b      	ldr	r3, [r7, #4]
 800678e:	629a      	str	r2, [r3, #40]	; 0x28

  if (IS_TIM_REPETITION_COUNTER_INSTANCE(TIMx))
 8006790:	687b      	ldr	r3, [r7, #4]
 8006792:	4a10      	ldr	r2, [pc, #64]	; (80067d4 <TIM_Base_SetConfig+0x104>)
 8006794:	4293      	cmp	r3, r2
 8006796:	d00f      	beq.n	80067b8 <TIM_Base_SetConfig+0xe8>
 8006798:	687b      	ldr	r3, [r7, #4]
 800679a:	4a11      	ldr	r2, [pc, #68]	; (80067e0 <TIM_Base_SetConfig+0x110>)
 800679c:	4293      	cmp	r3, r2
 800679e:	d00b      	beq.n	80067b8 <TIM_Base_SetConfig+0xe8>
 80067a0:	687b      	ldr	r3, [r7, #4]
 80067a2:	4a10      	ldr	r2, [pc, #64]	; (80067e4 <TIM_Base_SetConfig+0x114>)
 80067a4:	4293      	cmp	r3, r2
 80067a6:	d007      	beq.n	80067b8 <TIM_Base_SetConfig+0xe8>
 80067a8:	687b      	ldr	r3, [r7, #4]
 80067aa:	4a0f      	ldr	r2, [pc, #60]	; (80067e8 <TIM_Base_SetConfig+0x118>)
 80067ac:	4293      	cmp	r3, r2
 80067ae:	d003      	beq.n	80067b8 <TIM_Base_SetConfig+0xe8>
 80067b0:	687b      	ldr	r3, [r7, #4]
 80067b2:	4a0e      	ldr	r2, [pc, #56]	; (80067ec <TIM_Base_SetConfig+0x11c>)
 80067b4:	4293      	cmp	r3, r2
 80067b6:	d103      	bne.n	80067c0 <TIM_Base_SetConfig+0xf0>
  {
    /* Set the Repetition Counter value */
    TIMx->RCR = Structure->RepetitionCounter;
 80067b8:	683b      	ldr	r3, [r7, #0]
 80067ba:	691a      	ldr	r2, [r3, #16]
 80067bc:	687b      	ldr	r3, [r7, #4]
 80067be:	631a      	str	r2, [r3, #48]	; 0x30
  }

  /* Generate an update event to reload the Prescaler
     and the repetition counter (only for advanced timer) value immediately */
  TIMx->EGR = TIM_EGR_UG;
 80067c0:	687b      	ldr	r3, [r7, #4]
 80067c2:	2201      	movs	r2, #1
 80067c4:	615a      	str	r2, [r3, #20]
}
 80067c6:	bf00      	nop
 80067c8:	3714      	adds	r7, #20
 80067ca:	46bd      	mov	sp, r7
 80067cc:	f85d 7b04 	ldr.w	r7, [sp], #4
 80067d0:	4770      	bx	lr
 80067d2:	bf00      	nop
 80067d4:	40012c00 	.word	0x40012c00
 80067d8:	40000400 	.word	0x40000400
 80067dc:	40000800 	.word	0x40000800
 80067e0:	40013400 	.word	0x40013400
 80067e4:	40014000 	.word	0x40014000
 80067e8:	40014400 	.word	0x40014400
 80067ec:	40014800 	.word	0x40014800

080067f0 <TIM_TI1_SetConfig>:
  *       (on channel2 path) is used as the input signal. Therefore CCMR1 must be
  *        protected against un-initialized filter and polarity values.
  */
void TIM_TI1_SetConfig(TIM_TypeDef *TIMx, uint32_t TIM_ICPolarity, uint32_t TIM_ICSelection,
                       uint32_t TIM_ICFilter)
{
 80067f0:	b480      	push	{r7}
 80067f2:	b087      	sub	sp, #28
 80067f4:	af00      	add	r7, sp, #0
 80067f6:	60f8      	str	r0, [r7, #12]
 80067f8:	60b9      	str	r1, [r7, #8]
 80067fa:	607a      	str	r2, [r7, #4]
 80067fc:	603b      	str	r3, [r7, #0]
  uint32_t tmpccmr1;
  uint32_t tmpccer;

  /* Disable the Channel 1: Reset the CC1E Bit */
  TIMx->CCER &= ~TIM_CCER_CC1E;
 80067fe:	68fb      	ldr	r3, [r7, #12]
 8006800:	6a1b      	ldr	r3, [r3, #32]
 8006802:	f023 0201 	bic.w	r2, r3, #1
 8006806:	68fb      	ldr	r3, [r7, #12]
 8006808:	621a      	str	r2, [r3, #32]
  tmpccmr1 = TIMx->CCMR1;
 800680a:	68fb      	ldr	r3, [r7, #12]
 800680c:	699b      	ldr	r3, [r3, #24]
 800680e:	617b      	str	r3, [r7, #20]
  tmpccer = TIMx->CCER;
 8006810:	68fb      	ldr	r3, [r7, #12]
 8006812:	6a1b      	ldr	r3, [r3, #32]
 8006814:	613b      	str	r3, [r7, #16]

  /* Select the Input */
  if (IS_TIM_CC2_INSTANCE(TIMx) != RESET)
 8006816:	68fb      	ldr	r3, [r7, #12]
 8006818:	4a24      	ldr	r2, [pc, #144]	; (80068ac <TIM_TI1_SetConfig+0xbc>)
 800681a:	4293      	cmp	r3, r2
 800681c:	d013      	beq.n	8006846 <TIM_TI1_SetConfig+0x56>
 800681e:	68fb      	ldr	r3, [r7, #12]
 8006820:	f1b3 4f80 	cmp.w	r3, #1073741824	; 0x40000000
 8006824:	d00f      	beq.n	8006846 <TIM_TI1_SetConfig+0x56>
 8006826:	68fb      	ldr	r3, [r7, #12]
 8006828:	4a21      	ldr	r2, [pc, #132]	; (80068b0 <TIM_TI1_SetConfig+0xc0>)
 800682a:	4293      	cmp	r3, r2
 800682c:	d00b      	beq.n	8006846 <TIM_TI1_SetConfig+0x56>
 800682e:	68fb      	ldr	r3, [r7, #12]
 8006830:	4a20      	ldr	r2, [pc, #128]	; (80068b4 <TIM_TI1_SetConfig+0xc4>)
 8006832:	4293      	cmp	r3, r2
 8006834:	d007      	beq.n	8006846 <TIM_TI1_SetConfig+0x56>
 8006836:	68fb      	ldr	r3, [r7, #12]
 8006838:	4a1f      	ldr	r2, [pc, #124]	; (80068b8 <TIM_TI1_SetConfig+0xc8>)
 800683a:	4293      	cmp	r3, r2
 800683c:	d003      	beq.n	8006846 <TIM_TI1_SetConfig+0x56>
 800683e:	68fb      	ldr	r3, [r7, #12]
 8006840:	4a1e      	ldr	r2, [pc, #120]	; (80068bc <TIM_TI1_SetConfig+0xcc>)
 8006842:	4293      	cmp	r3, r2
 8006844:	d101      	bne.n	800684a <TIM_TI1_SetConfig+0x5a>
 8006846:	2301      	movs	r3, #1
 8006848:	e000      	b.n	800684c <TIM_TI1_SetConfig+0x5c>
 800684a:	2300      	movs	r3, #0
 800684c:	2b00      	cmp	r3, #0
 800684e:	d008      	beq.n	8006862 <TIM_TI1_SetConfig+0x72>
  {
    tmpccmr1 &= ~TIM_CCMR1_CC1S;
 8006850:	697b      	ldr	r3, [r7, #20]
 8006852:	f023 0303 	bic.w	r3, r3, #3
 8006856:	617b      	str	r3, [r7, #20]
    tmpccmr1 |= TIM_ICSelection;
 8006858:	697a      	ldr	r2, [r7, #20]
 800685a:	687b      	ldr	r3, [r7, #4]
 800685c:	4313      	orrs	r3, r2
 800685e:	617b      	str	r3, [r7, #20]
 8006860:	e003      	b.n	800686a <TIM_TI1_SetConfig+0x7a>
  }
  else
  {
    tmpccmr1 |= TIM_CCMR1_CC1S_0;
 8006862:	697b      	ldr	r3, [r7, #20]
 8006864:	f043 0301 	orr.w	r3, r3, #1
 8006868:	617b      	str	r3, [r7, #20]
  }

  /* Set the filter */
  tmpccmr1 &= ~TIM_CCMR1_IC1F;
 800686a:	697b      	ldr	r3, [r7, #20]
 800686c:	f023 03f0 	bic.w	r3, r3, #240	; 0xf0
 8006870:	617b      	str	r3, [r7, #20]
  tmpccmr1 |= ((TIM_ICFilter << 4U) & TIM_CCMR1_IC1F);
 8006872:	683b      	ldr	r3, [r7, #0]
 8006874:	011b      	lsls	r3, r3, #4
 8006876:	b2db      	uxtb	r3, r3
 8006878:	697a      	ldr	r2, [r7, #20]
 800687a:	4313      	orrs	r3, r2
 800687c:	617b      	str	r3, [r7, #20]

  /* Select the Polarity and set the CC1E Bit */
  tmpccer &= ~(TIM_CCER_CC1P | TIM_CCER_CC1NP);
 800687e:	693b      	ldr	r3, [r7, #16]
 8006880:	f023 030a 	bic.w	r3, r3, #10
 8006884:	613b      	str	r3, [r7, #16]
  tmpccer |= (TIM_ICPolarity & (TIM_CCER_CC1P | TIM_CCER_CC1NP));
 8006886:	68bb      	ldr	r3, [r7, #8]
 8006888:	f003 030a 	and.w	r3, r3, #10
 800688c:	693a      	ldr	r2, [r7, #16]
 800688e:	4313      	orrs	r3, r2
 8006890:	613b      	str	r3, [r7, #16]

  /* Write to TIMx CCMR1 and CCER registers */
  TIMx->CCMR1 = tmpccmr1;
 8006892:	68fb      	ldr	r3, [r7, #12]
 8006894:	697a      	ldr	r2, [r7, #20]
 8006896:	619a      	str	r2, [r3, #24]
  TIMx->CCER = tmpccer;
 8006898:	68fb      	ldr	r3, [r7, #12]
 800689a:	693a      	ldr	r2, [r7, #16]
 800689c:	621a      	str	r2, [r3, #32]
}
 800689e:	bf00      	nop
 80068a0:	371c      	adds	r7, #28
 80068a2:	46bd      	mov	sp, r7
 80068a4:	f85d 7b04 	ldr.w	r7, [sp], #4
 80068a8:	4770      	bx	lr
 80068aa:	bf00      	nop
 80068ac:	40012c00 	.word	0x40012c00
 80068b0:	40000400 	.word	0x40000400
 80068b4:	40000800 	.word	0x40000800
 80068b8:	40013400 	.word	0x40013400
 80068bc:	40014000 	.word	0x40014000

080068c0 <TIM_TI1_ConfigInputStage>:
  * @param  TIM_ICFilter Specifies the Input Capture Filter.
  *          This parameter must be a value between 0x00 and 0x0F.
  * @retval None
  */
static void TIM_TI1_ConfigInputStage(TIM_TypeDef *TIMx, uint32_t TIM_ICPolarity, uint32_t TIM_ICFilter)
{
 80068c0:	b480      	push	{r7}
 80068c2:	b087      	sub	sp, #28
 80068c4:	af00      	add	r7, sp, #0
 80068c6:	60f8      	str	r0, [r7, #12]
 80068c8:	60b9      	str	r1, [r7, #8]
 80068ca:	607a      	str	r2, [r7, #4]
  uint32_t tmpccmr1;
  uint32_t tmpccer;

  /* Disable the Channel 1: Reset the CC1E Bit */
  tmpccer = TIMx->CCER;
 80068cc:	68fb      	ldr	r3, [r7, #12]
 80068ce:	6a1b      	ldr	r3, [r3, #32]
 80068d0:	617b      	str	r3, [r7, #20]
  TIMx->CCER &= ~TIM_CCER_CC1E;
 80068d2:	68fb      	ldr	r3, [r7, #12]
 80068d4:	6a1b      	ldr	r3, [r3, #32]
 80068d6:	f023 0201 	bic.w	r2, r3, #1
 80068da:	68fb      	ldr	r3, [r7, #12]
 80068dc:	621a      	str	r2, [r3, #32]
  tmpccmr1 = TIMx->CCMR1;
 80068de:	68fb      	ldr	r3, [r7, #12]
 80068e0:	699b      	ldr	r3, [r3, #24]
 80068e2:	613b      	str	r3, [r7, #16]

  /* Set the filter */
  tmpccmr1 &= ~TIM_CCMR1_IC1F;
 80068e4:	693b      	ldr	r3, [r7, #16]
 80068e6:	f023 03f0 	bic.w	r3, r3, #240	; 0xf0
 80068ea:	613b      	str	r3, [r7, #16]
  tmpccmr1 |= (TIM_ICFilter << 4U);
 80068ec:	687b      	ldr	r3, [r7, #4]
 80068ee:	011b      	lsls	r3, r3, #4
 80068f0:	693a      	ldr	r2, [r7, #16]
 80068f2:	4313      	orrs	r3, r2
 80068f4:	613b      	str	r3, [r7, #16]

  /* Select the Polarity and set the CC1E Bit */
  tmpccer &= ~(TIM_CCER_CC1P | TIM_CCER_CC1NP);
 80068f6:	697b      	ldr	r3, [r7, #20]
 80068f8:	f023 030a 	bic.w	r3, r3, #10
 80068fc:	617b      	str	r3, [r7, #20]
  tmpccer |= TIM_ICPolarity;
 80068fe:	697a      	ldr	r2, [r7, #20]
 8006900:	68bb      	ldr	r3, [r7, #8]
 8006902:	4313      	orrs	r3, r2
 8006904:	617b      	str	r3, [r7, #20]

  /* Write to TIMx CCMR1 and CCER registers */
  TIMx->CCMR1 = tmpccmr1;
 8006906:	68fb      	ldr	r3, [r7, #12]
 8006908:	693a      	ldr	r2, [r7, #16]
 800690a:	619a      	str	r2, [r3, #24]
  TIMx->CCER = tmpccer;
 800690c:	68fb      	ldr	r3, [r7, #12]
 800690e:	697a      	ldr	r2, [r7, #20]
 8006910:	621a      	str	r2, [r3, #32]
}
 8006912:	bf00      	nop
 8006914:	371c      	adds	r7, #28
 8006916:	46bd      	mov	sp, r7
 8006918:	f85d 7b04 	ldr.w	r7, [sp], #4
 800691c:	4770      	bx	lr

0800691e <TIM_TI2_SetConfig>:
  *       (on channel1 path) is used as the input signal. Therefore CCMR1 must be
  *        protected against un-initialized filter and polarity values.
  */
static void TIM_TI2_SetConfig(TIM_TypeDef *TIMx, uint32_t TIM_ICPolarity, uint32_t TIM_ICSelection,
                              uint32_t TIM_ICFilter)
{
 800691e:	b480      	push	{r7}
 8006920:	b087      	sub	sp, #28
 8006922:	af00      	add	r7, sp, #0
 8006924:	60f8      	str	r0, [r7, #12]
 8006926:	60b9      	str	r1, [r7, #8]
 8006928:	607a      	str	r2, [r7, #4]
 800692a:	603b      	str	r3, [r7, #0]
  uint32_t tmpccmr1;
  uint32_t tmpccer;

  /* Disable the Channel 2: Reset the CC2E Bit */
  TIMx->CCER &= ~TIM_CCER_CC2E;
 800692c:	68fb      	ldr	r3, [r7, #12]
 800692e:	6a1b      	ldr	r3, [r3, #32]
 8006930:	f023 0210 	bic.w	r2, r3, #16
 8006934:	68fb      	ldr	r3, [r7, #12]
 8006936:	621a      	str	r2, [r3, #32]
  tmpccmr1 = TIMx->CCMR1;
 8006938:	68fb      	ldr	r3, [r7, #12]
 800693a:	699b      	ldr	r3, [r3, #24]
 800693c:	617b      	str	r3, [r7, #20]
  tmpccer = TIMx->CCER;
 800693e:	68fb      	ldr	r3, [r7, #12]
 8006940:	6a1b      	ldr	r3, [r3, #32]
 8006942:	613b      	str	r3, [r7, #16]

  /* Select the Input */
  tmpccmr1 &= ~TIM_CCMR1_CC2S;
 8006944:	697b      	ldr	r3, [r7, #20]
 8006946:	f423 7340 	bic.w	r3, r3, #768	; 0x300
 800694a:	617b      	str	r3, [r7, #20]
  tmpccmr1 |= (TIM_ICSelection << 8U);
 800694c:	687b      	ldr	r3, [r7, #4]
 800694e:	021b      	lsls	r3, r3, #8
 8006950:	697a      	ldr	r2, [r7, #20]
 8006952:	4313      	orrs	r3, r2
 8006954:	617b      	str	r3, [r7, #20]

  /* Set the filter */
  tmpccmr1 &= ~TIM_CCMR1_IC2F;
 8006956:	697b      	ldr	r3, [r7, #20]
 8006958:	f423 4370 	bic.w	r3, r3, #61440	; 0xf000
 800695c:	617b      	str	r3, [r7, #20]
  tmpccmr1 |= ((TIM_ICFilter << 12U) & TIM_CCMR1_IC2F);
 800695e:	683b      	ldr	r3, [r7, #0]
 8006960:	031b      	lsls	r3, r3, #12
 8006962:	b29b      	uxth	r3, r3
 8006964:	697a      	ldr	r2, [r7, #20]
 8006966:	4313      	orrs	r3, r2
 8006968:	617b      	str	r3, [r7, #20]

  /* Select the Polarity and set the CC2E Bit */
  tmpccer &= ~(TIM_CCER_CC2P | TIM_CCER_CC2NP);
 800696a:	693b      	ldr	r3, [r7, #16]
 800696c:	f023 03a0 	bic.w	r3, r3, #160	; 0xa0
 8006970:	613b      	str	r3, [r7, #16]
  tmpccer |= ((TIM_ICPolarity << 4U) & (TIM_CCER_CC2P | TIM_CCER_CC2NP));
 8006972:	68bb      	ldr	r3, [r7, #8]
 8006974:	011b      	lsls	r3, r3, #4
 8006976:	f003 03a0 	and.w	r3, r3, #160	; 0xa0
 800697a:	693a      	ldr	r2, [r7, #16]
 800697c:	4313      	orrs	r3, r2
 800697e:	613b      	str	r3, [r7, #16]

  /* Write to TIMx CCMR1 and CCER registers */
  TIMx->CCMR1 = tmpccmr1 ;
 8006980:	68fb      	ldr	r3, [r7, #12]
 8006982:	697a      	ldr	r2, [r7, #20]
 8006984:	619a      	str	r2, [r3, #24]
  TIMx->CCER = tmpccer;
 8006986:	68fb      	ldr	r3, [r7, #12]
 8006988:	693a      	ldr	r2, [r7, #16]
 800698a:	621a      	str	r2, [r3, #32]
}
 800698c:	bf00      	nop
 800698e:	371c      	adds	r7, #28
 8006990:	46bd      	mov	sp, r7
 8006992:	f85d 7b04 	ldr.w	r7, [sp], #4
 8006996:	4770      	bx	lr

08006998 <TIM_TI2_ConfigInputStage>:
  * @param  TIM_ICFilter Specifies the Input Capture Filter.
  *          This parameter must be a value between 0x00 and 0x0F.
  * @retval None
  */
static void TIM_TI2_ConfigInputStage(TIM_TypeDef *TIMx, uint32_t TIM_ICPolarity, uint32_t TIM_ICFilter)
{
 8006998:	b480      	push	{r7}
 800699a:	b087      	sub	sp, #28
 800699c:	af00      	add	r7, sp, #0
 800699e:	60f8      	str	r0, [r7, #12]
 80069a0:	60b9      	str	r1, [r7, #8]
 80069a2:	607a      	str	r2, [r7, #4]
  uint32_t tmpccmr1;
  uint32_t tmpccer;

  /* Disable the Channel 2: Reset the CC2E Bit */
  TIMx->CCER &= ~TIM_CCER_CC2E;
 80069a4:	68fb      	ldr	r3, [r7, #12]
 80069a6:	6a1b      	ldr	r3, [r3, #32]
 80069a8:	f023 0210 	bic.w	r2, r3, #16
 80069ac:	68fb      	ldr	r3, [r7, #12]
 80069ae:	621a      	str	r2, [r3, #32]
  tmpccmr1 = TIMx->CCMR1;
 80069b0:	68fb      	ldr	r3, [r7, #12]
 80069b2:	699b      	ldr	r3, [r3, #24]
 80069b4:	617b      	str	r3, [r7, #20]
  tmpccer = TIMx->CCER;
 80069b6:	68fb      	ldr	r3, [r7, #12]
 80069b8:	6a1b      	ldr	r3, [r3, #32]
 80069ba:	613b      	str	r3, [r7, #16]

  /* Set the filter */
  tmpccmr1 &= ~TIM_CCMR1_IC2F;
 80069bc:	697b      	ldr	r3, [r7, #20]
 80069be:	f423 4370 	bic.w	r3, r3, #61440	; 0xf000
 80069c2:	617b      	str	r3, [r7, #20]
  tmpccmr1 |= (TIM_ICFilter << 12U);
 80069c4:	687b      	ldr	r3, [r7, #4]
 80069c6:	031b      	lsls	r3, r3, #12
 80069c8:	697a      	ldr	r2, [r7, #20]
 80069ca:	4313      	orrs	r3, r2
 80069cc:	617b      	str	r3, [r7, #20]

  /* Select the Polarity and set the CC2E Bit */
  tmpccer &= ~(TIM_CCER_CC2P | TIM_CCER_CC2NP);
 80069ce:	693b      	ldr	r3, [r7, #16]
 80069d0:	f023 03a0 	bic.w	r3, r3, #160	; 0xa0
 80069d4:	613b      	str	r3, [r7, #16]
  tmpccer |= (TIM_ICPolarity << 4U);
 80069d6:	68bb      	ldr	r3, [r7, #8]
 80069d8:	011b      	lsls	r3, r3, #4
 80069da:	693a      	ldr	r2, [r7, #16]
 80069dc:	4313      	orrs	r3, r2
 80069de:	613b      	str	r3, [r7, #16]

  /* Write to TIMx CCMR1 and CCER registers */
  TIMx->CCMR1 = tmpccmr1 ;
 80069e0:	68fb      	ldr	r3, [r7, #12]
 80069e2:	697a      	ldr	r2, [r7, #20]
 80069e4:	619a      	str	r2, [r3, #24]
  TIMx->CCER = tmpccer;
 80069e6:	68fb      	ldr	r3, [r7, #12]
 80069e8:	693a      	ldr	r2, [r7, #16]
 80069ea:	621a      	str	r2, [r3, #32]
}
 80069ec:	bf00      	nop
 80069ee:	371c      	adds	r7, #28
 80069f0:	46bd      	mov	sp, r7
 80069f2:	f85d 7b04 	ldr.w	r7, [sp], #4
 80069f6:	4770      	bx	lr

080069f8 <TIM_TI3_SetConfig>:
  *       (on channel1 path) is used as the input signal. Therefore CCMR2 must be
  *        protected against un-initialized filter and polarity values.
  */
static void TIM_TI3_SetConfig(TIM_TypeDef *TIMx, uint32_t TIM_ICPolarity, uint32_t TIM_ICSelection,
                              uint32_t TIM_ICFilter)
{
 80069f8:	b480      	push	{r7}
 80069fa:	b087      	sub	sp, #28
 80069fc:	af00      	add	r7, sp, #0
 80069fe:	60f8      	str	r0, [r7, #12]
 8006a00:	60b9      	str	r1, [r7, #8]
 8006a02:	607a      	str	r2, [r7, #4]
 8006a04:	603b      	str	r3, [r7, #0]
  uint32_t tmpccmr2;
  uint32_t tmpccer;

  /* Disable the Channel 3: Reset the CC3E Bit */
  TIMx->CCER &= ~TIM_CCER_CC3E;
 8006a06:	68fb      	ldr	r3, [r7, #12]
 8006a08:	6a1b      	ldr	r3, [r3, #32]
 8006a0a:	f423 7280 	bic.w	r2, r3, #256	; 0x100
 8006a0e:	68fb      	ldr	r3, [r7, #12]
 8006a10:	621a      	str	r2, [r3, #32]
  tmpccmr2 = TIMx->CCMR2;
 8006a12:	68fb      	ldr	r3, [r7, #12]
 8006a14:	69db      	ldr	r3, [r3, #28]
 8006a16:	617b      	str	r3, [r7, #20]
  tmpccer = TIMx->CCER;
 8006a18:	68fb      	ldr	r3, [r7, #12]
 8006a1a:	6a1b      	ldr	r3, [r3, #32]
 8006a1c:	613b      	str	r3, [r7, #16]

  /* Select the Input */
  tmpccmr2 &= ~TIM_CCMR2_CC3S;
 8006a1e:	697b      	ldr	r3, [r7, #20]
 8006a20:	f023 0303 	bic.w	r3, r3, #3
 8006a24:	617b      	str	r3, [r7, #20]
  tmpccmr2 |= TIM_ICSelection;
 8006a26:	697a      	ldr	r2, [r7, #20]
 8006a28:	687b      	ldr	r3, [r7, #4]
 8006a2a:	4313      	orrs	r3, r2
 8006a2c:	617b      	str	r3, [r7, #20]

  /* Set the filter */
  tmpccmr2 &= ~TIM_CCMR2_IC3F;
 8006a2e:	697b      	ldr	r3, [r7, #20]
 8006a30:	f023 03f0 	bic.w	r3, r3, #240	; 0xf0
 8006a34:	617b      	str	r3, [r7, #20]
  tmpccmr2 |= ((TIM_ICFilter << 4U) & TIM_CCMR2_IC3F);
 8006a36:	683b      	ldr	r3, [r7, #0]
 8006a38:	011b      	lsls	r3, r3, #4
 8006a3a:	b2db      	uxtb	r3, r3
 8006a3c:	697a      	ldr	r2, [r7, #20]
 8006a3e:	4313      	orrs	r3, r2
 8006a40:	617b      	str	r3, [r7, #20]

  /* Select the Polarity and set the CC3E Bit */
  tmpccer &= ~(TIM_CCER_CC3P | TIM_CCER_CC3NP);
 8006a42:	693b      	ldr	r3, [r7, #16]
 8006a44:	f423 6320 	bic.w	r3, r3, #2560	; 0xa00
 8006a48:	613b      	str	r3, [r7, #16]
  tmpccer |= ((TIM_ICPolarity << 8U) & (TIM_CCER_CC3P | TIM_CCER_CC3NP));
 8006a4a:	68bb      	ldr	r3, [r7, #8]
 8006a4c:	021b      	lsls	r3, r3, #8
 8006a4e:	f403 6320 	and.w	r3, r3, #2560	; 0xa00
 8006a52:	693a      	ldr	r2, [r7, #16]
 8006a54:	4313      	orrs	r3, r2
 8006a56:	613b      	str	r3, [r7, #16]

  /* Write to TIMx CCMR2 and CCER registers */
  TIMx->CCMR2 = tmpccmr2;
 8006a58:	68fb      	ldr	r3, [r7, #12]
 8006a5a:	697a      	ldr	r2, [r7, #20]
 8006a5c:	61da      	str	r2, [r3, #28]
  TIMx->CCER = tmpccer;
 8006a5e:	68fb      	ldr	r3, [r7, #12]
 8006a60:	693a      	ldr	r2, [r7, #16]
 8006a62:	621a      	str	r2, [r3, #32]
}
 8006a64:	bf00      	nop
 8006a66:	371c      	adds	r7, #28
 8006a68:	46bd      	mov	sp, r7
 8006a6a:	f85d 7b04 	ldr.w	r7, [sp], #4
 8006a6e:	4770      	bx	lr

08006a70 <TIM_TI4_SetConfig>:
  *        protected against un-initialized filter and polarity values.
  * @retval None
  */
static void TIM_TI4_SetConfig(TIM_TypeDef *TIMx, uint32_t TIM_ICPolarity, uint32_t TIM_ICSelection,
                              uint32_t TIM_ICFilter)
{
 8006a70:	b480      	push	{r7}
 8006a72:	b087      	sub	sp, #28
 8006a74:	af00      	add	r7, sp, #0
 8006a76:	60f8      	str	r0, [r7, #12]
 8006a78:	60b9      	str	r1, [r7, #8]
 8006a7a:	607a      	str	r2, [r7, #4]
 8006a7c:	603b      	str	r3, [r7, #0]
  uint32_t tmpccmr2;
  uint32_t tmpccer;

  /* Disable the Channel 4: Reset the CC4E Bit */
  TIMx->CCER &= ~TIM_CCER_CC4E;
 8006a7e:	68fb      	ldr	r3, [r7, #12]
 8006a80:	6a1b      	ldr	r3, [r3, #32]
 8006a82:	f423 5280 	bic.w	r2, r3, #4096	; 0x1000
 8006a86:	68fb      	ldr	r3, [r7, #12]
 8006a88:	621a      	str	r2, [r3, #32]
  tmpccmr2 = TIMx->CCMR2;
 8006a8a:	68fb      	ldr	r3, [r7, #12]
 8006a8c:	69db      	ldr	r3, [r3, #28]
 8006a8e:	617b      	str	r3, [r7, #20]
  tmpccer = TIMx->CCER;
 8006a90:	68fb      	ldr	r3, [r7, #12]
 8006a92:	6a1b      	ldr	r3, [r3, #32]
 8006a94:	613b      	str	r3, [r7, #16]

  /* Select the Input */
  tmpccmr2 &= ~TIM_CCMR2_CC4S;
 8006a96:	697b      	ldr	r3, [r7, #20]
 8006a98:	f423 7340 	bic.w	r3, r3, #768	; 0x300
 8006a9c:	617b      	str	r3, [r7, #20]
  tmpccmr2 |= (TIM_ICSelection << 8U);
 8006a9e:	687b      	ldr	r3, [r7, #4]
 8006aa0:	021b      	lsls	r3, r3, #8
 8006aa2:	697a      	ldr	r2, [r7, #20]
 8006aa4:	4313      	orrs	r3, r2
 8006aa6:	617b      	str	r3, [r7, #20]

  /* Set the filter */
  tmpccmr2 &= ~TIM_CCMR2_IC4F;
 8006aa8:	697b      	ldr	r3, [r7, #20]
 8006aaa:	f423 4370 	bic.w	r3, r3, #61440	; 0xf000
 8006aae:	617b      	str	r3, [r7, #20]
  tmpccmr2 |= ((TIM_ICFilter << 12U) & TIM_CCMR2_IC4F);
 8006ab0:	683b      	ldr	r3, [r7, #0]
 8006ab2:	031b      	lsls	r3, r3, #12
 8006ab4:	b29b      	uxth	r3, r3
 8006ab6:	697a      	ldr	r2, [r7, #20]
 8006ab8:	4313      	orrs	r3, r2
 8006aba:	617b      	str	r3, [r7, #20]

  /* Select the Polarity and set the CC4E Bit */
  tmpccer &= ~(TIM_CCER_CC4P | TIM_CCER_CC4NP);
 8006abc:	693b      	ldr	r3, [r7, #16]
 8006abe:	f423 4320 	bic.w	r3, r3, #40960	; 0xa000
 8006ac2:	613b      	str	r3, [r7, #16]
  tmpccer |= ((TIM_ICPolarity << 12U) & (TIM_CCER_CC4P | TIM_CCER_CC4NP));
 8006ac4:	68bb      	ldr	r3, [r7, #8]
 8006ac6:	031b      	lsls	r3, r3, #12
 8006ac8:	f403 4320 	and.w	r3, r3, #40960	; 0xa000
 8006acc:	693a      	ldr	r2, [r7, #16]
 8006ace:	4313      	orrs	r3, r2
 8006ad0:	613b      	str	r3, [r7, #16]

  /* Write to TIMx CCMR2 and CCER registers */
  TIMx->CCMR2 = tmpccmr2;
 8006ad2:	68fb      	ldr	r3, [r7, #12]
 8006ad4:	697a      	ldr	r2, [r7, #20]
 8006ad6:	61da      	str	r2, [r3, #28]
  TIMx->CCER = tmpccer ;
 8006ad8:	68fb      	ldr	r3, [r7, #12]
 8006ada:	693a      	ldr	r2, [r7, #16]
 8006adc:	621a      	str	r2, [r3, #32]
}
 8006ade:	bf00      	nop
 8006ae0:	371c      	adds	r7, #28
 8006ae2:	46bd      	mov	sp, r7
 8006ae4:	f85d 7b04 	ldr.w	r7, [sp], #4
 8006ae8:	4770      	bx	lr

08006aea <TIM_ITRx_SetConfig>:
  *            @arg TIM_TS_TI2FP2: Filtered Timer Input 2
  *            @arg TIM_TS_ETRF: External Trigger input
  * @retval None
  */
static void TIM_ITRx_SetConfig(TIM_TypeDef *TIMx, uint32_t InputTriggerSource)
{
 8006aea:	b480      	push	{r7}
 8006aec:	b085      	sub	sp, #20
 8006aee:	af00      	add	r7, sp, #0
 8006af0:	6078      	str	r0, [r7, #4]
 8006af2:	6039      	str	r1, [r7, #0]
  uint32_t tmpsmcr;

  /* Get the TIMx SMCR register value */
  tmpsmcr = TIMx->SMCR;
 8006af4:	687b      	ldr	r3, [r7, #4]
 8006af6:	689b      	ldr	r3, [r3, #8]
 8006af8:	60fb      	str	r3, [r7, #12]
  /* Reset the TS Bits */
  tmpsmcr &= ~TIM_SMCR_TS;
 8006afa:	68fb      	ldr	r3, [r7, #12]
 8006afc:	f023 0370 	bic.w	r3, r3, #112	; 0x70
 8006b00:	60fb      	str	r3, [r7, #12]
  /* Set the Input Trigger source and the slave mode*/
  tmpsmcr |= (InputTriggerSource | TIM_SLAVEMODE_EXTERNAL1);
 8006b02:	683a      	ldr	r2, [r7, #0]
 8006b04:	68fb      	ldr	r3, [r7, #12]
 8006b06:	4313      	orrs	r3, r2
 8006b08:	f043 0307 	orr.w	r3, r3, #7
 8006b0c:	60fb      	str	r3, [r7, #12]
  /* Write to TIMx SMCR */
  TIMx->SMCR = tmpsmcr;
 8006b0e:	687b      	ldr	r3, [r7, #4]
 8006b10:	68fa      	ldr	r2, [r7, #12]
 8006b12:	609a      	str	r2, [r3, #8]
}
 8006b14:	bf00      	nop
 8006b16:	3714      	adds	r7, #20
 8006b18:	46bd      	mov	sp, r7
 8006b1a:	f85d 7b04 	ldr.w	r7, [sp], #4
 8006b1e:	4770      	bx	lr

08006b20 <TIM_ETR_SetConfig>:
  *          This parameter must be a value between 0x00 and 0x0F
  * @retval None
  */
void TIM_ETR_SetConfig(TIM_TypeDef *TIMx, uint32_t TIM_ExtTRGPrescaler,
                       uint32_t TIM_ExtTRGPolarity, uint32_t ExtTRGFilter)
{
 8006b20:	b480      	push	{r7}
 8006b22:	b087      	sub	sp, #28
 8006b24:	af00      	add	r7, sp, #0
 8006b26:	60f8      	str	r0, [r7, #12]
 8006b28:	60b9      	str	r1, [r7, #8]
 8006b2a:	607a      	str	r2, [r7, #4]
 8006b2c:	603b      	str	r3, [r7, #0]
  uint32_t tmpsmcr;

  tmpsmcr = TIMx->SMCR;
 8006b2e:	68fb      	ldr	r3, [r7, #12]
 8006b30:	689b      	ldr	r3, [r3, #8]
 8006b32:	617b      	str	r3, [r7, #20]

  /* Reset the ETR Bits */
  tmpsmcr &= ~(TIM_SMCR_ETF | TIM_SMCR_ETPS | TIM_SMCR_ECE | TIM_SMCR_ETP);
 8006b34:	697b      	ldr	r3, [r7, #20]
 8006b36:	f423 437f 	bic.w	r3, r3, #65280	; 0xff00
 8006b3a:	617b      	str	r3, [r7, #20]

  /* Set the Prescaler, the Filter value and the Polarity */
  tmpsmcr |= (uint32_t)(TIM_ExtTRGPrescaler | (TIM_ExtTRGPolarity | (ExtTRGFilter << 8U)));
 8006b3c:	683b      	ldr	r3, [r7, #0]
 8006b3e:	021a      	lsls	r2, r3, #8
 8006b40:	687b      	ldr	r3, [r7, #4]
 8006b42:	431a      	orrs	r2, r3
 8006b44:	68bb      	ldr	r3, [r7, #8]
 8006b46:	4313      	orrs	r3, r2
 8006b48:	697a      	ldr	r2, [r7, #20]
 8006b4a:	4313      	orrs	r3, r2
 8006b4c:	617b      	str	r3, [r7, #20]

  /* Write to TIMx SMCR */
  TIMx->SMCR = tmpsmcr;
 8006b4e:	68fb      	ldr	r3, [r7, #12]
 8006b50:	697a      	ldr	r2, [r7, #20]
 8006b52:	609a      	str	r2, [r3, #8]
}
 8006b54:	bf00      	nop
 8006b56:	371c      	adds	r7, #28
 8006b58:	46bd      	mov	sp, r7
 8006b5a:	f85d 7b04 	ldr.w	r7, [sp], #4
 8006b5e:	4770      	bx	lr

08006b60 <TIM_CCxChannelCmd>:
  * @param  ChannelState specifies the TIM Channel CCxE bit new state.
  *          This parameter can be: TIM_CCx_ENABLE or TIM_CCx_DISABLE.
  * @retval None
  */
void TIM_CCxChannelCmd(TIM_TypeDef *TIMx, uint32_t Channel, uint32_t ChannelState)
{
 8006b60:	b480      	push	{r7}
 8006b62:	b087      	sub	sp, #28
 8006b64:	af00      	add	r7, sp, #0
 8006b66:	60f8      	str	r0, [r7, #12]
 8006b68:	60b9      	str	r1, [r7, #8]
 8006b6a:	607a      	str	r2, [r7, #4]

  /* Check the parameters */
  assert_param(IS_TIM_CC1_INSTANCE(TIMx));
  assert_param(IS_TIM_CHANNELS(Channel));

  tmp = TIM_CCER_CC1E << (Channel & 0x1FU); /* 0x1FU = 31 bits max shift */
 8006b6c:	68bb      	ldr	r3, [r7, #8]
 8006b6e:	f003 031f 	and.w	r3, r3, #31
 8006b72:	2201      	movs	r2, #1
 8006b74:	fa02 f303 	lsl.w	r3, r2, r3
 8006b78:	617b      	str	r3, [r7, #20]

  /* Reset the CCxE Bit */
  TIMx->CCER &= ~tmp;
 8006b7a:	68fb      	ldr	r3, [r7, #12]
 8006b7c:	6a1a      	ldr	r2, [r3, #32]
 8006b7e:	697b      	ldr	r3, [r7, #20]
 8006b80:	43db      	mvns	r3, r3
 8006b82:	401a      	ands	r2, r3
 8006b84:	68fb      	ldr	r3, [r7, #12]
 8006b86:	621a      	str	r2, [r3, #32]

  /* Set or reset the CCxE Bit */
  TIMx->CCER |= (uint32_t)(ChannelState << (Channel & 0x1FU)); /* 0x1FU = 31 bits max shift */
 8006b88:	68fb      	ldr	r3, [r7, #12]
 8006b8a:	6a1a      	ldr	r2, [r3, #32]
 8006b8c:	68bb      	ldr	r3, [r7, #8]
 8006b8e:	f003 031f 	and.w	r3, r3, #31
 8006b92:	6879      	ldr	r1, [r7, #4]
 8006b94:	fa01 f303 	lsl.w	r3, r1, r3
 8006b98:	431a      	orrs	r2, r3
 8006b9a:	68fb      	ldr	r3, [r7, #12]
 8006b9c:	621a      	str	r2, [r3, #32]
}
 8006b9e:	bf00      	nop
 8006ba0:	371c      	adds	r7, #28
 8006ba2:	46bd      	mov	sp, r7
 8006ba4:	f85d 7b04 	ldr.w	r7, [sp], #4
 8006ba8:	4770      	bx	lr
	...

08006bac <HAL_TIMEx_MasterConfigSynchronization>:
  *         mode.
  * @retval HAL status
  */
HAL_StatusTypeDef HAL_TIMEx_MasterConfigSynchronization(TIM_HandleTypeDef *htim,
                                                        const TIM_MasterConfigTypeDef *sMasterConfig)
{
 8006bac:	b480      	push	{r7}
 8006bae:	b085      	sub	sp, #20
 8006bb0:	af00      	add	r7, sp, #0
 8006bb2:	6078      	str	r0, [r7, #4]
 8006bb4:	6039      	str	r1, [r7, #0]
  assert_param(IS_TIM_MASTER_INSTANCE(htim->Instance));
  assert_param(IS_TIM_TRGO_SOURCE(sMasterConfig->MasterOutputTrigger));
  assert_param(IS_TIM_MSM_STATE(sMasterConfig->MasterSlaveMode));

  /* Check input state */
  __HAL_LOCK(htim);
 8006bb6:	687b      	ldr	r3, [r7, #4]
 8006bb8:	f893 303c 	ldrb.w	r3, [r3, #60]	; 0x3c
 8006bbc:	2b01      	cmp	r3, #1
 8006bbe:	d101      	bne.n	8006bc4 <HAL_TIMEx_MasterConfigSynchronization+0x18>
 8006bc0:	2302      	movs	r3, #2
 8006bc2:	e063      	b.n	8006c8c <HAL_TIMEx_MasterConfigSynchronization+0xe0>
 8006bc4:	687b      	ldr	r3, [r7, #4]
 8006bc6:	2201      	movs	r2, #1
 8006bc8:	f883 203c 	strb.w	r2, [r3, #60]	; 0x3c

  /* Change the handler state */
  htim->State = HAL_TIM_STATE_BUSY;
 8006bcc:	687b      	ldr	r3, [r7, #4]
 8006bce:	2202      	movs	r2, #2
 8006bd0:	f883 203d 	strb.w	r2, [r3, #61]	; 0x3d

  /* Get the TIMx CR2 register value */
  tmpcr2 = htim->Instance->CR2;
 8006bd4:	687b      	ldr	r3, [r7, #4]
 8006bd6:	681b      	ldr	r3, [r3, #0]
 8006bd8:	685b      	ldr	r3, [r3, #4]
 8006bda:	60fb      	str	r3, [r7, #12]

  /* Get the TIMx SMCR register value */
  tmpsmcr = htim->Instance->SMCR;
 8006bdc:	687b      	ldr	r3, [r7, #4]
 8006bde:	681b      	ldr	r3, [r3, #0]
 8006be0:	689b      	ldr	r3, [r3, #8]
 8006be2:	60bb      	str	r3, [r7, #8]

#if defined(TIM_CR2_MMS2)
  /* If the timer supports ADC synchronization through TRGO2, set the master mode selection 2 */
  if (IS_TIM_TRGO2_INSTANCE(htim->Instance))
 8006be4:	687b      	ldr	r3, [r7, #4]
 8006be6:	681b      	ldr	r3, [r3, #0]
 8006be8:	4a2b      	ldr	r2, [pc, #172]	; (8006c98 <HAL_TIMEx_MasterConfigSynchronization+0xec>)
 8006bea:	4293      	cmp	r3, r2
 8006bec:	d004      	beq.n	8006bf8 <HAL_TIMEx_MasterConfigSynchronization+0x4c>
 8006bee:	687b      	ldr	r3, [r7, #4]
 8006bf0:	681b      	ldr	r3, [r3, #0]
 8006bf2:	4a2a      	ldr	r2, [pc, #168]	; (8006c9c <HAL_TIMEx_MasterConfigSynchronization+0xf0>)
 8006bf4:	4293      	cmp	r3, r2
 8006bf6:	d108      	bne.n	8006c0a <HAL_TIMEx_MasterConfigSynchronization+0x5e>
  {
    /* Check the parameters */
    assert_param(IS_TIM_TRGO2_SOURCE(sMasterConfig->MasterOutputTrigger2));

    /* Clear the MMS2 bits */
    tmpcr2 &= ~TIM_CR2_MMS2;
 8006bf8:	68fb      	ldr	r3, [r7, #12]
 8006bfa:	f423 0370 	bic.w	r3, r3, #15728640	; 0xf00000
 8006bfe:	60fb      	str	r3, [r7, #12]
    /* Select the TRGO2 source*/
    tmpcr2 |= sMasterConfig->MasterOutputTrigger2;
 8006c00:	683b      	ldr	r3, [r7, #0]
 8006c02:	685b      	ldr	r3, [r3, #4]
 8006c04:	68fa      	ldr	r2, [r7, #12]
 8006c06:	4313      	orrs	r3, r2
 8006c08:	60fb      	str	r3, [r7, #12]
  }
#endif /* TIM_CR2_MMS2 */

  /* Reset the MMS Bits */
  tmpcr2 &= ~TIM_CR2_MMS;
 8006c0a:	68fb      	ldr	r3, [r7, #12]
 8006c0c:	f023 0370 	bic.w	r3, r3, #112	; 0x70
 8006c10:	60fb      	str	r3, [r7, #12]
  /* Select the TRGO source */
  tmpcr2 |=  sMasterConfig->MasterOutputTrigger;
 8006c12:	683b      	ldr	r3, [r7, #0]
 8006c14:	681b      	ldr	r3, [r3, #0]
 8006c16:	68fa      	ldr	r2, [r7, #12]
 8006c18:	4313      	orrs	r3, r2
 8006c1a:	60fb      	str	r3, [r7, #12]

  /* Update TIMx CR2 */
  htim->Instance->CR2 = tmpcr2;
 8006c1c:	687b      	ldr	r3, [r7, #4]
 8006c1e:	681b      	ldr	r3, [r3, #0]
 8006c20:	68fa      	ldr	r2, [r7, #12]
 8006c22:	605a      	str	r2, [r3, #4]

  if (IS_TIM_SLAVE_INSTANCE(htim->Instance))
 8006c24:	687b      	ldr	r3, [r7, #4]
 8006c26:	681b      	ldr	r3, [r3, #0]
 8006c28:	4a1b      	ldr	r2, [pc, #108]	; (8006c98 <HAL_TIMEx_MasterConfigSynchronization+0xec>)
 8006c2a:	4293      	cmp	r3, r2
 8006c2c:	d018      	beq.n	8006c60 <HAL_TIMEx_MasterConfigSynchronization+0xb4>
 8006c2e:	687b      	ldr	r3, [r7, #4]
 8006c30:	681b      	ldr	r3, [r3, #0]
 8006c32:	f1b3 4f80 	cmp.w	r3, #1073741824	; 0x40000000
 8006c36:	d013      	beq.n	8006c60 <HAL_TIMEx_MasterConfigSynchronization+0xb4>
 8006c38:	687b      	ldr	r3, [r7, #4]
 8006c3a:	681b      	ldr	r3, [r3, #0]
 8006c3c:	4a18      	ldr	r2, [pc, #96]	; (8006ca0 <HAL_TIMEx_MasterConfigSynchronization+0xf4>)
 8006c3e:	4293      	cmp	r3, r2
 8006c40:	d00e      	beq.n	8006c60 <HAL_TIMEx_MasterConfigSynchronization+0xb4>
 8006c42:	687b      	ldr	r3, [r7, #4]
 8006c44:	681b      	ldr	r3, [r3, #0]
 8006c46:	4a17      	ldr	r2, [pc, #92]	; (8006ca4 <HAL_TIMEx_MasterConfigSynchronization+0xf8>)
 8006c48:	4293      	cmp	r3, r2
 8006c4a:	d009      	beq.n	8006c60 <HAL_TIMEx_MasterConfigSynchronization+0xb4>
 8006c4c:	687b      	ldr	r3, [r7, #4]
 8006c4e:	681b      	ldr	r3, [r3, #0]
 8006c50:	4a12      	ldr	r2, [pc, #72]	; (8006c9c <HAL_TIMEx_MasterConfigSynchronization+0xf0>)
 8006c52:	4293      	cmp	r3, r2
 8006c54:	d004      	beq.n	8006c60 <HAL_TIMEx_MasterConfigSynchronization+0xb4>
 8006c56:	687b      	ldr	r3, [r7, #4]
 8006c58:	681b      	ldr	r3, [r3, #0]
 8006c5a:	4a13      	ldr	r2, [pc, #76]	; (8006ca8 <HAL_TIMEx_MasterConfigSynchronization+0xfc>)
 8006c5c:	4293      	cmp	r3, r2
 8006c5e:	d10c      	bne.n	8006c7a <HAL_TIMEx_MasterConfigSynchronization+0xce>
  {
    /* Reset the MSM Bit */
    tmpsmcr &= ~TIM_SMCR_MSM;
 8006c60:	68bb      	ldr	r3, [r7, #8]
 8006c62:	f023 0380 	bic.w	r3, r3, #128	; 0x80
 8006c66:	60bb      	str	r3, [r7, #8]
    /* Set master mode */
    tmpsmcr |= sMasterConfig->MasterSlaveMode;
 8006c68:	683b      	ldr	r3, [r7, #0]
 8006c6a:	689b      	ldr	r3, [r3, #8]
 8006c6c:	68ba      	ldr	r2, [r7, #8]
 8006c6e:	4313      	orrs	r3, r2
 8006c70:	60bb      	str	r3, [r7, #8]

    /* Update TIMx SMCR */
    htim->Instance->SMCR = tmpsmcr;
 8006c72:	687b      	ldr	r3, [r7, #4]
 8006c74:	681b      	ldr	r3, [r3, #0]
 8006c76:	68ba      	ldr	r2, [r7, #8]
 8006c78:	609a      	str	r2, [r3, #8]
  }

  /* Change the htim state */
  htim->State = HAL_TIM_STATE_READY;
 8006c7a:	687b      	ldr	r3, [r7, #4]
 8006c7c:	2201      	movs	r2, #1
 8006c7e:	f883 203d 	strb.w	r2, [r3, #61]	; 0x3d

  __HAL_UNLOCK(htim);
 8006c82:	687b      	ldr	r3, [r7, #4]
 8006c84:	2200      	movs	r2, #0
 8006c86:	f883 203c 	strb.w	r2, [r3, #60]	; 0x3c

  return HAL_OK;
 8006c8a:	2300      	movs	r3, #0
}
 8006c8c:	4618      	mov	r0, r3
 8006c8e:	3714      	adds	r7, #20
 8006c90:	46bd      	mov	sp, r7
 8006c92:	f85d 7b04 	ldr.w	r7, [sp], #4
 8006c96:	4770      	bx	lr
 8006c98:	40012c00 	.word	0x40012c00
 8006c9c:	40013400 	.word	0x40013400
 8006ca0:	40000400 	.word	0x40000400
 8006ca4:	40000800 	.word	0x40000800
 8006ca8:	40014000 	.word	0x40014000

08006cac <HAL_TIMEx_CommutCallback>:
  * @brief  Hall commutation changed callback in non-blocking mode
  * @param  htim TIM handle
  * @retval None
  */
__weak void HAL_TIMEx_CommutCallback(TIM_HandleTypeDef *htim)
{
 8006cac:	b480      	push	{r7}
 8006cae:	b083      	sub	sp, #12
 8006cb0:	af00      	add	r7, sp, #0
 8006cb2:	6078      	str	r0, [r7, #4]
  UNUSED(htim);

  /* NOTE : This function should not be modified, when the callback is needed,
            the HAL_TIMEx_CommutCallback could be implemented in the user file
   */
}
 8006cb4:	bf00      	nop
 8006cb6:	370c      	adds	r7, #12
 8006cb8:	46bd      	mov	sp, r7
 8006cba:	f85d 7b04 	ldr.w	r7, [sp], #4
 8006cbe:	4770      	bx	lr

08006cc0 <HAL_TIMEx_BreakCallback>:
  * @brief  Hall Break detection callback in non-blocking mode
  * @param  htim TIM handle
  * @retval None
  */
__weak void HAL_TIMEx_BreakCallback(TIM_HandleTypeDef *htim)
{
 8006cc0:	b480      	push	{r7}
 8006cc2:	b083      	sub	sp, #12
 8006cc4:	af00      	add	r7, sp, #0
 8006cc6:	6078      	str	r0, [r7, #4]
  UNUSED(htim);

  /* NOTE : This function should not be modified, when the callback is needed,
            the HAL_TIMEx_BreakCallback could be implemented in the user file
   */
}
 8006cc8:	bf00      	nop
 8006cca:	370c      	adds	r7, #12
 8006ccc:	46bd      	mov	sp, r7
 8006cce:	f85d 7b04 	ldr.w	r7, [sp], #4
 8006cd2:	4770      	bx	lr

08006cd4 <HAL_TIMEx_Break2Callback>:
  * @brief  Hall Break2 detection callback in non blocking mode
  * @param  htim: TIM handle
  * @retval None
  */
__weak void HAL_TIMEx_Break2Callback(TIM_HandleTypeDef *htim)
{
 8006cd4:	b480      	push	{r7}
 8006cd6:	b083      	sub	sp, #12
 8006cd8:	af00      	add	r7, sp, #0
 8006cda:	6078      	str	r0, [r7, #4]
  UNUSED(htim);

  /* NOTE : This function Should not be modified, when the callback is needed,
            the HAL_TIMEx_Break2Callback could be implemented in the user file
   */
}
 8006cdc:	bf00      	nop
 8006cde:	370c      	adds	r7, #12
 8006ce0:	46bd      	mov	sp, r7
 8006ce2:	f85d 7b04 	ldr.w	r7, [sp], #4
 8006ce6:	4770      	bx	lr

08006ce8 <USB_DisableGlobalInt>:
  *         Disable the controller's Global Int in the AHB Config reg
  * @param  USBx Selected device
  * @retval HAL status
  */
HAL_StatusTypeDef USB_DisableGlobalInt(USB_TypeDef *USBx)
{
 8006ce8:	b480      	push	{r7}
 8006cea:	b085      	sub	sp, #20
 8006cec:	af00      	add	r7, sp, #0
 8006cee:	6078      	str	r0, [r7, #4]
  uint32_t winterruptmask;

  /* Set winterruptmask variable */
  winterruptmask = USB_CNTR_CTRM  | USB_CNTR_WKUPM |
 8006cf0:	f44f 433f 	mov.w	r3, #48896	; 0xbf00
 8006cf4:	60fb      	str	r3, [r7, #12]
                   USB_CNTR_SUSPM | USB_CNTR_ERRM |
                   USB_CNTR_SOFM | USB_CNTR_ESOFM |
                   USB_CNTR_RESETM;

  /* Clear interrupt mask */
  USBx->CNTR &= (uint16_t)(~winterruptmask);
 8006cf6:	687b      	ldr	r3, [r7, #4]
 8006cf8:	f8b3 3040 	ldrh.w	r3, [r3, #64]	; 0x40
 8006cfc:	b29a      	uxth	r2, r3
 8006cfe:	68fb      	ldr	r3, [r7, #12]
 8006d00:	b29b      	uxth	r3, r3
 8006d02:	43db      	mvns	r3, r3
 8006d04:	b29b      	uxth	r3, r3
 8006d06:	4013      	ands	r3, r2
 8006d08:	b29a      	uxth	r2, r3
 8006d0a:	687b      	ldr	r3, [r7, #4]
 8006d0c:	f8a3 2040 	strh.w	r2, [r3, #64]	; 0x40

  return HAL_OK;
 8006d10:	2300      	movs	r3, #0
}
 8006d12:	4618      	mov	r0, r3
 8006d14:	3714      	adds	r7, #20
 8006d16:	46bd      	mov	sp, r7
 8006d18:	f85d 7b04 	ldr.w	r7, [sp], #4
 8006d1c:	4770      	bx	lr

08006d1e <USB_DevInit>:
  * @param  cfg  pointer to a USB_CfgTypeDef structure that contains
  *         the configuration information for the specified USBx peripheral.
  * @retval HAL status
  */
HAL_StatusTypeDef USB_DevInit(USB_TypeDef *USBx, USB_CfgTypeDef cfg)
{
 8006d1e:	b084      	sub	sp, #16
 8006d20:	b480      	push	{r7}
 8006d22:	b083      	sub	sp, #12
 8006d24:	af00      	add	r7, sp, #0
 8006d26:	6078      	str	r0, [r7, #4]
 8006d28:	f107 0014 	add.w	r0, r7, #20
 8006d2c:	e880 000e 	stmia.w	r0, {r1, r2, r3}
  /* Prevent unused argument(s) compilation warning */
  UNUSED(cfg);

  /* Init Device */
  /* CNTR_FRES = 1 */
  USBx->CNTR = (uint16_t)USB_CNTR_FRES;
 8006d30:	687b      	ldr	r3, [r7, #4]
 8006d32:	2201      	movs	r2, #1
 8006d34:	f8a3 2040 	strh.w	r2, [r3, #64]	; 0x40

  /* CNTR_FRES = 0 */
  USBx->CNTR = 0U;
 8006d38:	687b      	ldr	r3, [r7, #4]
 8006d3a:	2200      	movs	r2, #0
 8006d3c:	f8a3 2040 	strh.w	r2, [r3, #64]	; 0x40

  /* Clear pending interrupts */
  USBx->ISTR = 0U;
 8006d40:	687b      	ldr	r3, [r7, #4]
 8006d42:	2200      	movs	r2, #0
 8006d44:	f8a3 2044 	strh.w	r2, [r3, #68]	; 0x44

  /*Set Btable Address*/
  USBx->BTABLE = BTABLE_ADDRESS;
 8006d48:	687b      	ldr	r3, [r7, #4]
 8006d4a:	2200      	movs	r2, #0
 8006d4c:	f8a3 2050 	strh.w	r2, [r3, #80]	; 0x50

  return HAL_OK;
 8006d50:	2300      	movs	r3, #0
}
 8006d52:	4618      	mov	r0, r3
 8006d54:	370c      	adds	r7, #12
 8006d56:	46bd      	mov	sp, r7
 8006d58:	f85d 7b04 	ldr.w	r7, [sp], #4
 8006d5c:	b004      	add	sp, #16
 8006d5e:	4770      	bx	lr

08006d60 <__errno>:
 8006d60:	4b01      	ldr	r3, [pc, #4]	; (8006d68 <__errno+0x8>)
 8006d62:	6818      	ldr	r0, [r3, #0]
 8006d64:	4770      	bx	lr
 8006d66:	bf00      	nop
 8006d68:	20000240 	.word	0x20000240

08006d6c <__libc_init_array>:
 8006d6c:	b570      	push	{r4, r5, r6, lr}
 8006d6e:	4d0d      	ldr	r5, [pc, #52]	; (8006da4 <__libc_init_array+0x38>)
 8006d70:	4c0d      	ldr	r4, [pc, #52]	; (8006da8 <__libc_init_array+0x3c>)
 8006d72:	1b64      	subs	r4, r4, r5
 8006d74:	10a4      	asrs	r4, r4, #2
 8006d76:	2600      	movs	r6, #0
 8006d78:	42a6      	cmp	r6, r4
 8006d7a:	d109      	bne.n	8006d90 <__libc_init_array+0x24>
 8006d7c:	4d0b      	ldr	r5, [pc, #44]	; (8006dac <__libc_init_array+0x40>)
 8006d7e:	4c0c      	ldr	r4, [pc, #48]	; (8006db0 <__libc_init_array+0x44>)
 8006d80:	f004 ff6c 	bl	800bc5c <_init>
 8006d84:	1b64      	subs	r4, r4, r5
 8006d86:	10a4      	asrs	r4, r4, #2
 8006d88:	2600      	movs	r6, #0
 8006d8a:	42a6      	cmp	r6, r4
 8006d8c:	d105      	bne.n	8006d9a <__libc_init_array+0x2e>
 8006d8e:	bd70      	pop	{r4, r5, r6, pc}
 8006d90:	f855 3b04 	ldr.w	r3, [r5], #4
 8006d94:	4798      	blx	r3
 8006d96:	3601      	adds	r6, #1
 8006d98:	e7ee      	b.n	8006d78 <__libc_init_array+0xc>
 8006d9a:	f855 3b04 	ldr.w	r3, [r5], #4
 8006d9e:	4798      	blx	r3
 8006da0:	3601      	adds	r6, #1
 8006da2:	e7f2      	b.n	8006d8a <__libc_init_array+0x1e>
 8006da4:	0800c510 	.word	0x0800c510
 8006da8:	0800c510 	.word	0x0800c510
 8006dac:	0800c510 	.word	0x0800c510
 8006db0:	0800c514 	.word	0x0800c514

08006db4 <memset>:
 8006db4:	4402      	add	r2, r0
 8006db6:	4603      	mov	r3, r0
 8006db8:	4293      	cmp	r3, r2
 8006dba:	d100      	bne.n	8006dbe <memset+0xa>
 8006dbc:	4770      	bx	lr
 8006dbe:	f803 1b01 	strb.w	r1, [r3], #1
 8006dc2:	e7f9      	b.n	8006db8 <memset+0x4>

08006dc4 <__cvt>:
 8006dc4:	e92d 47ff 	stmdb	sp!, {r0, r1, r2, r3, r4, r5, r6, r7, r8, r9, sl, lr}
 8006dc8:	ec55 4b10 	vmov	r4, r5, d0
 8006dcc:	2d00      	cmp	r5, #0
 8006dce:	460e      	mov	r6, r1
 8006dd0:	4619      	mov	r1, r3
 8006dd2:	462b      	mov	r3, r5
 8006dd4:	bfbb      	ittet	lt
 8006dd6:	f105 4300 	addlt.w	r3, r5, #2147483648	; 0x80000000
 8006dda:	461d      	movlt	r5, r3
 8006ddc:	2300      	movge	r3, #0
 8006dde:	232d      	movlt	r3, #45	; 0x2d
 8006de0:	700b      	strb	r3, [r1, #0]
 8006de2:	9b0d      	ldr	r3, [sp, #52]	; 0x34
 8006de4:	f8dd a030 	ldr.w	sl, [sp, #48]	; 0x30
 8006de8:	4691      	mov	r9, r2
 8006dea:	f023 0820 	bic.w	r8, r3, #32
 8006dee:	bfbc      	itt	lt
 8006df0:	4622      	movlt	r2, r4
 8006df2:	4614      	movlt	r4, r2
 8006df4:	f1b8 0f46 	cmp.w	r8, #70	; 0x46
 8006df8:	d005      	beq.n	8006e06 <__cvt+0x42>
 8006dfa:	f1b8 0f45 	cmp.w	r8, #69	; 0x45
 8006dfe:	d100      	bne.n	8006e02 <__cvt+0x3e>
 8006e00:	3601      	adds	r6, #1
 8006e02:	2102      	movs	r1, #2
 8006e04:	e000      	b.n	8006e08 <__cvt+0x44>
 8006e06:	2103      	movs	r1, #3
 8006e08:	ab03      	add	r3, sp, #12
 8006e0a:	9301      	str	r3, [sp, #4]
 8006e0c:	ab02      	add	r3, sp, #8
 8006e0e:	9300      	str	r3, [sp, #0]
 8006e10:	ec45 4b10 	vmov	d0, r4, r5
 8006e14:	4653      	mov	r3, sl
 8006e16:	4632      	mov	r2, r6
 8006e18:	f000 fcea 	bl	80077f0 <_dtoa_r>
 8006e1c:	f1b8 0f47 	cmp.w	r8, #71	; 0x47
 8006e20:	4607      	mov	r7, r0
 8006e22:	d102      	bne.n	8006e2a <__cvt+0x66>
 8006e24:	f019 0f01 	tst.w	r9, #1
 8006e28:	d022      	beq.n	8006e70 <__cvt+0xac>
 8006e2a:	f1b8 0f46 	cmp.w	r8, #70	; 0x46
 8006e2e:	eb07 0906 	add.w	r9, r7, r6
 8006e32:	d110      	bne.n	8006e56 <__cvt+0x92>
 8006e34:	783b      	ldrb	r3, [r7, #0]
 8006e36:	2b30      	cmp	r3, #48	; 0x30
 8006e38:	d10a      	bne.n	8006e50 <__cvt+0x8c>
 8006e3a:	2200      	movs	r2, #0
 8006e3c:	2300      	movs	r3, #0
 8006e3e:	4620      	mov	r0, r4
 8006e40:	4629      	mov	r1, r5
 8006e42:	f7f9 fe41 	bl	8000ac8 <__aeabi_dcmpeq>
 8006e46:	b918      	cbnz	r0, 8006e50 <__cvt+0x8c>
 8006e48:	f1c6 0601 	rsb	r6, r6, #1
 8006e4c:	f8ca 6000 	str.w	r6, [sl]
 8006e50:	f8da 3000 	ldr.w	r3, [sl]
 8006e54:	4499      	add	r9, r3
 8006e56:	2200      	movs	r2, #0
 8006e58:	2300      	movs	r3, #0
 8006e5a:	4620      	mov	r0, r4
 8006e5c:	4629      	mov	r1, r5
 8006e5e:	f7f9 fe33 	bl	8000ac8 <__aeabi_dcmpeq>
 8006e62:	b108      	cbz	r0, 8006e68 <__cvt+0xa4>
 8006e64:	f8cd 900c 	str.w	r9, [sp, #12]
 8006e68:	2230      	movs	r2, #48	; 0x30
 8006e6a:	9b03      	ldr	r3, [sp, #12]
 8006e6c:	454b      	cmp	r3, r9
 8006e6e:	d307      	bcc.n	8006e80 <__cvt+0xbc>
 8006e70:	9b03      	ldr	r3, [sp, #12]
 8006e72:	9a0e      	ldr	r2, [sp, #56]	; 0x38
 8006e74:	1bdb      	subs	r3, r3, r7
 8006e76:	4638      	mov	r0, r7
 8006e78:	6013      	str	r3, [r2, #0]
 8006e7a:	b004      	add	sp, #16
 8006e7c:	e8bd 87f0 	ldmia.w	sp!, {r4, r5, r6, r7, r8, r9, sl, pc}
 8006e80:	1c59      	adds	r1, r3, #1
 8006e82:	9103      	str	r1, [sp, #12]
 8006e84:	701a      	strb	r2, [r3, #0]
 8006e86:	e7f0      	b.n	8006e6a <__cvt+0xa6>

08006e88 <__exponent>:
 8006e88:	b5f7      	push	{r0, r1, r2, r4, r5, r6, r7, lr}
 8006e8a:	4603      	mov	r3, r0
 8006e8c:	2900      	cmp	r1, #0
 8006e8e:	bfb8      	it	lt
 8006e90:	4249      	neglt	r1, r1
 8006e92:	f803 2b02 	strb.w	r2, [r3], #2
 8006e96:	bfb4      	ite	lt
 8006e98:	222d      	movlt	r2, #45	; 0x2d
 8006e9a:	222b      	movge	r2, #43	; 0x2b
 8006e9c:	2909      	cmp	r1, #9
 8006e9e:	7042      	strb	r2, [r0, #1]
 8006ea0:	dd2a      	ble.n	8006ef8 <__exponent+0x70>
 8006ea2:	f10d 0407 	add.w	r4, sp, #7
 8006ea6:	46a4      	mov	ip, r4
 8006ea8:	270a      	movs	r7, #10
 8006eaa:	46a6      	mov	lr, r4
 8006eac:	460a      	mov	r2, r1
 8006eae:	fb91 f6f7 	sdiv	r6, r1, r7
 8006eb2:	fb07 1516 	mls	r5, r7, r6, r1
 8006eb6:	3530      	adds	r5, #48	; 0x30
 8006eb8:	2a63      	cmp	r2, #99	; 0x63
 8006eba:	f104 34ff 	add.w	r4, r4, #4294967295
 8006ebe:	f80e 5c01 	strb.w	r5, [lr, #-1]
 8006ec2:	4631      	mov	r1, r6
 8006ec4:	dcf1      	bgt.n	8006eaa <__exponent+0x22>
 8006ec6:	3130      	adds	r1, #48	; 0x30
 8006ec8:	f1ae 0502 	sub.w	r5, lr, #2
 8006ecc:	f804 1c01 	strb.w	r1, [r4, #-1]
 8006ed0:	1c44      	adds	r4, r0, #1
 8006ed2:	4629      	mov	r1, r5
 8006ed4:	4561      	cmp	r1, ip
 8006ed6:	d30a      	bcc.n	8006eee <__exponent+0x66>
 8006ed8:	f10d 0209 	add.w	r2, sp, #9
 8006edc:	eba2 020e 	sub.w	r2, r2, lr
 8006ee0:	4565      	cmp	r5, ip
 8006ee2:	bf88      	it	hi
 8006ee4:	2200      	movhi	r2, #0
 8006ee6:	4413      	add	r3, r2
 8006ee8:	1a18      	subs	r0, r3, r0
 8006eea:	b003      	add	sp, #12
 8006eec:	bdf0      	pop	{r4, r5, r6, r7, pc}
 8006eee:	f811 2b01 	ldrb.w	r2, [r1], #1
 8006ef2:	f804 2f01 	strb.w	r2, [r4, #1]!
 8006ef6:	e7ed      	b.n	8006ed4 <__exponent+0x4c>
 8006ef8:	2330      	movs	r3, #48	; 0x30
 8006efa:	3130      	adds	r1, #48	; 0x30
 8006efc:	7083      	strb	r3, [r0, #2]
 8006efe:	70c1      	strb	r1, [r0, #3]
 8006f00:	1d03      	adds	r3, r0, #4
 8006f02:	e7f1      	b.n	8006ee8 <__exponent+0x60>

08006f04 <_printf_float>:
 8006f04:	e92d 4ff0 	stmdb	sp!, {r4, r5, r6, r7, r8, r9, sl, fp, lr}
 8006f08:	ed2d 8b02 	vpush	{d8}
 8006f0c:	b08d      	sub	sp, #52	; 0x34
 8006f0e:	460c      	mov	r4, r1
 8006f10:	f8dd 8060 	ldr.w	r8, [sp, #96]	; 0x60
 8006f14:	4616      	mov	r6, r2
 8006f16:	461f      	mov	r7, r3
 8006f18:	4605      	mov	r5, r0
 8006f1a:	f001 fa57 	bl	80083cc <_localeconv_r>
 8006f1e:	f8d0 a000 	ldr.w	sl, [r0]
 8006f22:	4650      	mov	r0, sl
 8006f24:	f7f9 f954 	bl	80001d0 <strlen>
 8006f28:	2300      	movs	r3, #0
 8006f2a:	930a      	str	r3, [sp, #40]	; 0x28
 8006f2c:	6823      	ldr	r3, [r4, #0]
 8006f2e:	9305      	str	r3, [sp, #20]
 8006f30:	f8d8 3000 	ldr.w	r3, [r8]
 8006f34:	f894 b018 	ldrb.w	fp, [r4, #24]
 8006f38:	3307      	adds	r3, #7
 8006f3a:	f023 0307 	bic.w	r3, r3, #7
 8006f3e:	f103 0208 	add.w	r2, r3, #8
 8006f42:	f8c8 2000 	str.w	r2, [r8]
 8006f46:	e9d3 2300 	ldrd	r2, r3, [r3]
 8006f4a:	e9c4 2312 	strd	r2, r3, [r4, #72]	; 0x48
 8006f4e:	e9d4 8912 	ldrd	r8, r9, [r4, #72]	; 0x48
 8006f52:	f029 4300 	bic.w	r3, r9, #2147483648	; 0x80000000
 8006f56:	9307      	str	r3, [sp, #28]
 8006f58:	f8cd 8018 	str.w	r8, [sp, #24]
 8006f5c:	ee08 0a10 	vmov	s16, r0
 8006f60:	4b9f      	ldr	r3, [pc, #636]	; (80071e0 <_printf_float+0x2dc>)
 8006f62:	e9dd 0106 	ldrd	r0, r1, [sp, #24]
 8006f66:	f04f 32ff 	mov.w	r2, #4294967295
 8006f6a:	f7f9 fddf 	bl	8000b2c <__aeabi_dcmpun>
 8006f6e:	bb88      	cbnz	r0, 8006fd4 <_printf_float+0xd0>
 8006f70:	e9dd 0106 	ldrd	r0, r1, [sp, #24]
 8006f74:	4b9a      	ldr	r3, [pc, #616]	; (80071e0 <_printf_float+0x2dc>)
 8006f76:	f04f 32ff 	mov.w	r2, #4294967295
 8006f7a:	f7f9 fdb9 	bl	8000af0 <__aeabi_dcmple>
 8006f7e:	bb48      	cbnz	r0, 8006fd4 <_printf_float+0xd0>
 8006f80:	2200      	movs	r2, #0
 8006f82:	2300      	movs	r3, #0
 8006f84:	4640      	mov	r0, r8
 8006f86:	4649      	mov	r1, r9
 8006f88:	f7f9 fda8 	bl	8000adc <__aeabi_dcmplt>
 8006f8c:	b110      	cbz	r0, 8006f94 <_printf_float+0x90>
 8006f8e:	232d      	movs	r3, #45	; 0x2d
 8006f90:	f884 3043 	strb.w	r3, [r4, #67]	; 0x43
 8006f94:	4b93      	ldr	r3, [pc, #588]	; (80071e4 <_printf_float+0x2e0>)
 8006f96:	4894      	ldr	r0, [pc, #592]	; (80071e8 <_printf_float+0x2e4>)
 8006f98:	f1bb 0f47 	cmp.w	fp, #71	; 0x47
 8006f9c:	bf94      	ite	ls
 8006f9e:	4698      	movls	r8, r3
 8006fa0:	4680      	movhi	r8, r0
 8006fa2:	2303      	movs	r3, #3
 8006fa4:	6123      	str	r3, [r4, #16]
 8006fa6:	9b05      	ldr	r3, [sp, #20]
 8006fa8:	f023 0204 	bic.w	r2, r3, #4
 8006fac:	6022      	str	r2, [r4, #0]
 8006fae:	f04f 0900 	mov.w	r9, #0
 8006fb2:	9700      	str	r7, [sp, #0]
 8006fb4:	4633      	mov	r3, r6
 8006fb6:	aa0b      	add	r2, sp, #44	; 0x2c
 8006fb8:	4621      	mov	r1, r4
 8006fba:	4628      	mov	r0, r5
 8006fbc:	f000 f9d8 	bl	8007370 <_printf_common>
 8006fc0:	3001      	adds	r0, #1
 8006fc2:	f040 8090 	bne.w	80070e6 <_printf_float+0x1e2>
 8006fc6:	f04f 30ff 	mov.w	r0, #4294967295
 8006fca:	b00d      	add	sp, #52	; 0x34
 8006fcc:	ecbd 8b02 	vpop	{d8}
 8006fd0:	e8bd 8ff0 	ldmia.w	sp!, {r4, r5, r6, r7, r8, r9, sl, fp, pc}
 8006fd4:	4642      	mov	r2, r8
 8006fd6:	464b      	mov	r3, r9
 8006fd8:	4640      	mov	r0, r8
 8006fda:	4649      	mov	r1, r9
 8006fdc:	f7f9 fda6 	bl	8000b2c <__aeabi_dcmpun>
 8006fe0:	b140      	cbz	r0, 8006ff4 <_printf_float+0xf0>
 8006fe2:	464b      	mov	r3, r9
 8006fe4:	2b00      	cmp	r3, #0
 8006fe6:	bfbc      	itt	lt
 8006fe8:	232d      	movlt	r3, #45	; 0x2d
 8006fea:	f884 3043 	strblt.w	r3, [r4, #67]	; 0x43
 8006fee:	487f      	ldr	r0, [pc, #508]	; (80071ec <_printf_float+0x2e8>)
 8006ff0:	4b7f      	ldr	r3, [pc, #508]	; (80071f0 <_printf_float+0x2ec>)
 8006ff2:	e7d1      	b.n	8006f98 <_printf_float+0x94>
 8006ff4:	6863      	ldr	r3, [r4, #4]
 8006ff6:	f00b 02df 	and.w	r2, fp, #223	; 0xdf
 8006ffa:	9206      	str	r2, [sp, #24]
 8006ffc:	1c5a      	adds	r2, r3, #1
 8006ffe:	d13f      	bne.n	8007080 <_printf_float+0x17c>
 8007000:	2306      	movs	r3, #6
 8007002:	6063      	str	r3, [r4, #4]
 8007004:	9b05      	ldr	r3, [sp, #20]
 8007006:	6861      	ldr	r1, [r4, #4]
 8007008:	f443 6280 	orr.w	r2, r3, #1024	; 0x400
 800700c:	2300      	movs	r3, #0
 800700e:	9303      	str	r3, [sp, #12]
 8007010:	ab0a      	add	r3, sp, #40	; 0x28
 8007012:	e9cd b301 	strd	fp, r3, [sp, #4]
 8007016:	ab09      	add	r3, sp, #36	; 0x24
 8007018:	ec49 8b10 	vmov	d0, r8, r9
 800701c:	9300      	str	r3, [sp, #0]
 800701e:	6022      	str	r2, [r4, #0]
 8007020:	f10d 0323 	add.w	r3, sp, #35	; 0x23
 8007024:	4628      	mov	r0, r5
 8007026:	f7ff fecd 	bl	8006dc4 <__cvt>
 800702a:	9b06      	ldr	r3, [sp, #24]
 800702c:	9909      	ldr	r1, [sp, #36]	; 0x24
 800702e:	2b47      	cmp	r3, #71	; 0x47
 8007030:	4680      	mov	r8, r0
 8007032:	d108      	bne.n	8007046 <_printf_float+0x142>
 8007034:	1cc8      	adds	r0, r1, #3
 8007036:	db02      	blt.n	800703e <_printf_float+0x13a>
 8007038:	6863      	ldr	r3, [r4, #4]
 800703a:	4299      	cmp	r1, r3
 800703c:	dd41      	ble.n	80070c2 <_printf_float+0x1be>
 800703e:	f1ab 0b02 	sub.w	fp, fp, #2
 8007042:	fa5f fb8b 	uxtb.w	fp, fp
 8007046:	f1bb 0f65 	cmp.w	fp, #101	; 0x65
 800704a:	d820      	bhi.n	800708e <_printf_float+0x18a>
 800704c:	3901      	subs	r1, #1
 800704e:	465a      	mov	r2, fp
 8007050:	f104 0050 	add.w	r0, r4, #80	; 0x50
 8007054:	9109      	str	r1, [sp, #36]	; 0x24
 8007056:	f7ff ff17 	bl	8006e88 <__exponent>
 800705a:	9a0a      	ldr	r2, [sp, #40]	; 0x28
 800705c:	1813      	adds	r3, r2, r0
 800705e:	2a01      	cmp	r2, #1
 8007060:	4681      	mov	r9, r0
 8007062:	6123      	str	r3, [r4, #16]
 8007064:	dc02      	bgt.n	800706c <_printf_float+0x168>
 8007066:	6822      	ldr	r2, [r4, #0]
 8007068:	07d2      	lsls	r2, r2, #31
 800706a:	d501      	bpl.n	8007070 <_printf_float+0x16c>
 800706c:	3301      	adds	r3, #1
 800706e:	6123      	str	r3, [r4, #16]
 8007070:	f89d 3023 	ldrb.w	r3, [sp, #35]	; 0x23
 8007074:	2b00      	cmp	r3, #0
 8007076:	d09c      	beq.n	8006fb2 <_printf_float+0xae>
 8007078:	232d      	movs	r3, #45	; 0x2d
 800707a:	f884 3043 	strb.w	r3, [r4, #67]	; 0x43
 800707e:	e798      	b.n	8006fb2 <_printf_float+0xae>
 8007080:	9a06      	ldr	r2, [sp, #24]
 8007082:	2a47      	cmp	r2, #71	; 0x47
 8007084:	d1be      	bne.n	8007004 <_printf_float+0x100>
 8007086:	2b00      	cmp	r3, #0
 8007088:	d1bc      	bne.n	8007004 <_printf_float+0x100>
 800708a:	2301      	movs	r3, #1
 800708c:	e7b9      	b.n	8007002 <_printf_float+0xfe>
 800708e:	f1bb 0f66 	cmp.w	fp, #102	; 0x66
 8007092:	d118      	bne.n	80070c6 <_printf_float+0x1c2>
 8007094:	2900      	cmp	r1, #0
 8007096:	6863      	ldr	r3, [r4, #4]
 8007098:	dd0b      	ble.n	80070b2 <_printf_float+0x1ae>
 800709a:	6121      	str	r1, [r4, #16]
 800709c:	b913      	cbnz	r3, 80070a4 <_printf_float+0x1a0>
 800709e:	6822      	ldr	r2, [r4, #0]
 80070a0:	07d0      	lsls	r0, r2, #31
 80070a2:	d502      	bpl.n	80070aa <_printf_float+0x1a6>
 80070a4:	3301      	adds	r3, #1
 80070a6:	440b      	add	r3, r1
 80070a8:	6123      	str	r3, [r4, #16]
 80070aa:	65a1      	str	r1, [r4, #88]	; 0x58
 80070ac:	f04f 0900 	mov.w	r9, #0
 80070b0:	e7de      	b.n	8007070 <_printf_float+0x16c>
 80070b2:	b913      	cbnz	r3, 80070ba <_printf_float+0x1b6>
 80070b4:	6822      	ldr	r2, [r4, #0]
 80070b6:	07d2      	lsls	r2, r2, #31
 80070b8:	d501      	bpl.n	80070be <_printf_float+0x1ba>
 80070ba:	3302      	adds	r3, #2
 80070bc:	e7f4      	b.n	80070a8 <_printf_float+0x1a4>
 80070be:	2301      	movs	r3, #1
 80070c0:	e7f2      	b.n	80070a8 <_printf_float+0x1a4>
 80070c2:	f04f 0b67 	mov.w	fp, #103	; 0x67
 80070c6:	9b0a      	ldr	r3, [sp, #40]	; 0x28
 80070c8:	4299      	cmp	r1, r3
 80070ca:	db05      	blt.n	80070d8 <_printf_float+0x1d4>
 80070cc:	6823      	ldr	r3, [r4, #0]
 80070ce:	6121      	str	r1, [r4, #16]
 80070d0:	07d8      	lsls	r0, r3, #31
 80070d2:	d5ea      	bpl.n	80070aa <_printf_float+0x1a6>
 80070d4:	1c4b      	adds	r3, r1, #1
 80070d6:	e7e7      	b.n	80070a8 <_printf_float+0x1a4>
 80070d8:	2900      	cmp	r1, #0
 80070da:	bfd4      	ite	le
 80070dc:	f1c1 0202 	rsble	r2, r1, #2
 80070e0:	2201      	movgt	r2, #1
 80070e2:	4413      	add	r3, r2
 80070e4:	e7e0      	b.n	80070a8 <_printf_float+0x1a4>
 80070e6:	6823      	ldr	r3, [r4, #0]
 80070e8:	055a      	lsls	r2, r3, #21
 80070ea:	d407      	bmi.n	80070fc <_printf_float+0x1f8>
 80070ec:	6923      	ldr	r3, [r4, #16]
 80070ee:	4642      	mov	r2, r8
 80070f0:	4631      	mov	r1, r6
 80070f2:	4628      	mov	r0, r5
 80070f4:	47b8      	blx	r7
 80070f6:	3001      	adds	r0, #1
 80070f8:	d12c      	bne.n	8007154 <_printf_float+0x250>
 80070fa:	e764      	b.n	8006fc6 <_printf_float+0xc2>
 80070fc:	f1bb 0f65 	cmp.w	fp, #101	; 0x65
 8007100:	f240 80e0 	bls.w	80072c4 <_printf_float+0x3c0>
 8007104:	e9d4 0112 	ldrd	r0, r1, [r4, #72]	; 0x48
 8007108:	2200      	movs	r2, #0
 800710a:	2300      	movs	r3, #0
 800710c:	f7f9 fcdc 	bl	8000ac8 <__aeabi_dcmpeq>
 8007110:	2800      	cmp	r0, #0
 8007112:	d034      	beq.n	800717e <_printf_float+0x27a>
 8007114:	4a37      	ldr	r2, [pc, #220]	; (80071f4 <_printf_float+0x2f0>)
 8007116:	2301      	movs	r3, #1
 8007118:	4631      	mov	r1, r6
 800711a:	4628      	mov	r0, r5
 800711c:	47b8      	blx	r7
 800711e:	3001      	adds	r0, #1
 8007120:	f43f af51 	beq.w	8006fc6 <_printf_float+0xc2>
 8007124:	e9dd 2309 	ldrd	r2, r3, [sp, #36]	; 0x24
 8007128:	429a      	cmp	r2, r3
 800712a:	db02      	blt.n	8007132 <_printf_float+0x22e>
 800712c:	6823      	ldr	r3, [r4, #0]
 800712e:	07d8      	lsls	r0, r3, #31
 8007130:	d510      	bpl.n	8007154 <_printf_float+0x250>
 8007132:	ee18 3a10 	vmov	r3, s16
 8007136:	4652      	mov	r2, sl
 8007138:	4631      	mov	r1, r6
 800713a:	4628      	mov	r0, r5
 800713c:	47b8      	blx	r7
 800713e:	3001      	adds	r0, #1
 8007140:	f43f af41 	beq.w	8006fc6 <_printf_float+0xc2>
 8007144:	f04f 0800 	mov.w	r8, #0
 8007148:	f104 091a 	add.w	r9, r4, #26
 800714c:	9b0a      	ldr	r3, [sp, #40]	; 0x28
 800714e:	3b01      	subs	r3, #1
 8007150:	4543      	cmp	r3, r8
 8007152:	dc09      	bgt.n	8007168 <_printf_float+0x264>
 8007154:	6823      	ldr	r3, [r4, #0]
 8007156:	079b      	lsls	r3, r3, #30
 8007158:	f100 8105 	bmi.w	8007366 <_printf_float+0x462>
 800715c:	68e0      	ldr	r0, [r4, #12]
 800715e:	9b0b      	ldr	r3, [sp, #44]	; 0x2c
 8007160:	4298      	cmp	r0, r3
 8007162:	bfb8      	it	lt
 8007164:	4618      	movlt	r0, r3
 8007166:	e730      	b.n	8006fca <_printf_float+0xc6>
 8007168:	2301      	movs	r3, #1
 800716a:	464a      	mov	r2, r9
 800716c:	4631      	mov	r1, r6
 800716e:	4628      	mov	r0, r5
 8007170:	47b8      	blx	r7
 8007172:	3001      	adds	r0, #1
 8007174:	f43f af27 	beq.w	8006fc6 <_printf_float+0xc2>
 8007178:	f108 0801 	add.w	r8, r8, #1
 800717c:	e7e6      	b.n	800714c <_printf_float+0x248>
 800717e:	9b09      	ldr	r3, [sp, #36]	; 0x24
 8007180:	2b00      	cmp	r3, #0
 8007182:	dc39      	bgt.n	80071f8 <_printf_float+0x2f4>
 8007184:	4a1b      	ldr	r2, [pc, #108]	; (80071f4 <_printf_float+0x2f0>)
 8007186:	2301      	movs	r3, #1
 8007188:	4631      	mov	r1, r6
 800718a:	4628      	mov	r0, r5
 800718c:	47b8      	blx	r7
 800718e:	3001      	adds	r0, #1
 8007190:	f43f af19 	beq.w	8006fc6 <_printf_float+0xc2>
 8007194:	e9dd 2309 	ldrd	r2, r3, [sp, #36]	; 0x24
 8007198:	4313      	orrs	r3, r2
 800719a:	d102      	bne.n	80071a2 <_printf_float+0x29e>
 800719c:	6823      	ldr	r3, [r4, #0]
 800719e:	07d9      	lsls	r1, r3, #31
 80071a0:	d5d8      	bpl.n	8007154 <_printf_float+0x250>
 80071a2:	ee18 3a10 	vmov	r3, s16
 80071a6:	4652      	mov	r2, sl
 80071a8:	4631      	mov	r1, r6
 80071aa:	4628      	mov	r0, r5
 80071ac:	47b8      	blx	r7
 80071ae:	3001      	adds	r0, #1
 80071b0:	f43f af09 	beq.w	8006fc6 <_printf_float+0xc2>
 80071b4:	f04f 0900 	mov.w	r9, #0
 80071b8:	f104 0a1a 	add.w	sl, r4, #26
 80071bc:	9b09      	ldr	r3, [sp, #36]	; 0x24
 80071be:	425b      	negs	r3, r3
 80071c0:	454b      	cmp	r3, r9
 80071c2:	dc01      	bgt.n	80071c8 <_printf_float+0x2c4>
 80071c4:	9b0a      	ldr	r3, [sp, #40]	; 0x28
 80071c6:	e792      	b.n	80070ee <_printf_float+0x1ea>
 80071c8:	2301      	movs	r3, #1
 80071ca:	4652      	mov	r2, sl
 80071cc:	4631      	mov	r1, r6
 80071ce:	4628      	mov	r0, r5
 80071d0:	47b8      	blx	r7
 80071d2:	3001      	adds	r0, #1
 80071d4:	f43f aef7 	beq.w	8006fc6 <_printf_float+0xc2>
 80071d8:	f109 0901 	add.w	r9, r9, #1
 80071dc:	e7ee      	b.n	80071bc <_printf_float+0x2b8>
 80071de:	bf00      	nop
 80071e0:	7fefffff 	.word	0x7fefffff
 80071e4:	0800bcd4 	.word	0x0800bcd4
 80071e8:	0800bcd8 	.word	0x0800bcd8
 80071ec:	0800bce0 	.word	0x0800bce0
 80071f0:	0800bcdc 	.word	0x0800bcdc
 80071f4:	0800bce4 	.word	0x0800bce4
 80071f8:	9a0a      	ldr	r2, [sp, #40]	; 0x28
 80071fa:	6da3      	ldr	r3, [r4, #88]	; 0x58
 80071fc:	429a      	cmp	r2, r3
 80071fe:	bfa8      	it	ge
 8007200:	461a      	movge	r2, r3
 8007202:	2a00      	cmp	r2, #0
 8007204:	4691      	mov	r9, r2
 8007206:	dc37      	bgt.n	8007278 <_printf_float+0x374>
 8007208:	f04f 0b00 	mov.w	fp, #0
 800720c:	ea29 79e9 	bic.w	r9, r9, r9, asr #31
 8007210:	f104 021a 	add.w	r2, r4, #26
 8007214:	6da3      	ldr	r3, [r4, #88]	; 0x58
 8007216:	9305      	str	r3, [sp, #20]
 8007218:	eba3 0309 	sub.w	r3, r3, r9
 800721c:	455b      	cmp	r3, fp
 800721e:	dc33      	bgt.n	8007288 <_printf_float+0x384>
 8007220:	e9dd 2309 	ldrd	r2, r3, [sp, #36]	; 0x24
 8007224:	429a      	cmp	r2, r3
 8007226:	db3b      	blt.n	80072a0 <_printf_float+0x39c>
 8007228:	6823      	ldr	r3, [r4, #0]
 800722a:	07da      	lsls	r2, r3, #31
 800722c:	d438      	bmi.n	80072a0 <_printf_float+0x39c>
 800722e:	9b0a      	ldr	r3, [sp, #40]	; 0x28
 8007230:	9a05      	ldr	r2, [sp, #20]
 8007232:	9909      	ldr	r1, [sp, #36]	; 0x24
 8007234:	1a9a      	subs	r2, r3, r2
 8007236:	eba3 0901 	sub.w	r9, r3, r1
 800723a:	4591      	cmp	r9, r2
 800723c:	bfa8      	it	ge
 800723e:	4691      	movge	r9, r2
 8007240:	f1b9 0f00 	cmp.w	r9, #0
 8007244:	dc35      	bgt.n	80072b2 <_printf_float+0x3ae>
 8007246:	f04f 0800 	mov.w	r8, #0
 800724a:	ea29 79e9 	bic.w	r9, r9, r9, asr #31
 800724e:	f104 0a1a 	add.w	sl, r4, #26
 8007252:	e9dd 2309 	ldrd	r2, r3, [sp, #36]	; 0x24
 8007256:	1a9b      	subs	r3, r3, r2
 8007258:	eba3 0309 	sub.w	r3, r3, r9
 800725c:	4543      	cmp	r3, r8
 800725e:	f77f af79 	ble.w	8007154 <_printf_float+0x250>
 8007262:	2301      	movs	r3, #1
 8007264:	4652      	mov	r2, sl
 8007266:	4631      	mov	r1, r6
 8007268:	4628      	mov	r0, r5
 800726a:	47b8      	blx	r7
 800726c:	3001      	adds	r0, #1
 800726e:	f43f aeaa 	beq.w	8006fc6 <_printf_float+0xc2>
 8007272:	f108 0801 	add.w	r8, r8, #1
 8007276:	e7ec      	b.n	8007252 <_printf_float+0x34e>
 8007278:	4613      	mov	r3, r2
 800727a:	4631      	mov	r1, r6
 800727c:	4642      	mov	r2, r8
 800727e:	4628      	mov	r0, r5
 8007280:	47b8      	blx	r7
 8007282:	3001      	adds	r0, #1
 8007284:	d1c0      	bne.n	8007208 <_printf_float+0x304>
 8007286:	e69e      	b.n	8006fc6 <_printf_float+0xc2>
 8007288:	2301      	movs	r3, #1
 800728a:	4631      	mov	r1, r6
 800728c:	4628      	mov	r0, r5
 800728e:	9205      	str	r2, [sp, #20]
 8007290:	47b8      	blx	r7
 8007292:	3001      	adds	r0, #1
 8007294:	f43f ae97 	beq.w	8006fc6 <_printf_float+0xc2>
 8007298:	9a05      	ldr	r2, [sp, #20]
 800729a:	f10b 0b01 	add.w	fp, fp, #1
 800729e:	e7b9      	b.n	8007214 <_printf_float+0x310>
 80072a0:	ee18 3a10 	vmov	r3, s16
 80072a4:	4652      	mov	r2, sl
 80072a6:	4631      	mov	r1, r6
 80072a8:	4628      	mov	r0, r5
 80072aa:	47b8      	blx	r7
 80072ac:	3001      	adds	r0, #1
 80072ae:	d1be      	bne.n	800722e <_printf_float+0x32a>
 80072b0:	e689      	b.n	8006fc6 <_printf_float+0xc2>
 80072b2:	9a05      	ldr	r2, [sp, #20]
 80072b4:	464b      	mov	r3, r9
 80072b6:	4442      	add	r2, r8
 80072b8:	4631      	mov	r1, r6
 80072ba:	4628      	mov	r0, r5
 80072bc:	47b8      	blx	r7
 80072be:	3001      	adds	r0, #1
 80072c0:	d1c1      	bne.n	8007246 <_printf_float+0x342>
 80072c2:	e680      	b.n	8006fc6 <_printf_float+0xc2>
 80072c4:	9a0a      	ldr	r2, [sp, #40]	; 0x28
 80072c6:	2a01      	cmp	r2, #1
 80072c8:	dc01      	bgt.n	80072ce <_printf_float+0x3ca>
 80072ca:	07db      	lsls	r3, r3, #31
 80072cc:	d538      	bpl.n	8007340 <_printf_float+0x43c>
 80072ce:	2301      	movs	r3, #1
 80072d0:	4642      	mov	r2, r8
 80072d2:	4631      	mov	r1, r6
 80072d4:	4628      	mov	r0, r5
 80072d6:	47b8      	blx	r7
 80072d8:	3001      	adds	r0, #1
 80072da:	f43f ae74 	beq.w	8006fc6 <_printf_float+0xc2>
 80072de:	ee18 3a10 	vmov	r3, s16
 80072e2:	4652      	mov	r2, sl
 80072e4:	4631      	mov	r1, r6
 80072e6:	4628      	mov	r0, r5
 80072e8:	47b8      	blx	r7
 80072ea:	3001      	adds	r0, #1
 80072ec:	f43f ae6b 	beq.w	8006fc6 <_printf_float+0xc2>
 80072f0:	e9d4 0112 	ldrd	r0, r1, [r4, #72]	; 0x48
 80072f4:	2200      	movs	r2, #0
 80072f6:	2300      	movs	r3, #0
 80072f8:	f7f9 fbe6 	bl	8000ac8 <__aeabi_dcmpeq>
 80072fc:	b9d8      	cbnz	r0, 8007336 <_printf_float+0x432>
 80072fe:	9b0a      	ldr	r3, [sp, #40]	; 0x28
 8007300:	f108 0201 	add.w	r2, r8, #1
 8007304:	3b01      	subs	r3, #1
 8007306:	4631      	mov	r1, r6
 8007308:	4628      	mov	r0, r5
 800730a:	47b8      	blx	r7
 800730c:	3001      	adds	r0, #1
 800730e:	d10e      	bne.n	800732e <_printf_float+0x42a>
 8007310:	e659      	b.n	8006fc6 <_printf_float+0xc2>
 8007312:	2301      	movs	r3, #1
 8007314:	4652      	mov	r2, sl
 8007316:	4631      	mov	r1, r6
 8007318:	4628      	mov	r0, r5
 800731a:	47b8      	blx	r7
 800731c:	3001      	adds	r0, #1
 800731e:	f43f ae52 	beq.w	8006fc6 <_printf_float+0xc2>
 8007322:	f108 0801 	add.w	r8, r8, #1
 8007326:	9b0a      	ldr	r3, [sp, #40]	; 0x28
 8007328:	3b01      	subs	r3, #1
 800732a:	4543      	cmp	r3, r8
 800732c:	dcf1      	bgt.n	8007312 <_printf_float+0x40e>
 800732e:	464b      	mov	r3, r9
 8007330:	f104 0250 	add.w	r2, r4, #80	; 0x50
 8007334:	e6dc      	b.n	80070f0 <_printf_float+0x1ec>
 8007336:	f04f 0800 	mov.w	r8, #0
 800733a:	f104 0a1a 	add.w	sl, r4, #26
 800733e:	e7f2      	b.n	8007326 <_printf_float+0x422>
 8007340:	2301      	movs	r3, #1
 8007342:	4642      	mov	r2, r8
 8007344:	e7df      	b.n	8007306 <_printf_float+0x402>
 8007346:	2301      	movs	r3, #1
 8007348:	464a      	mov	r2, r9
 800734a:	4631      	mov	r1, r6
 800734c:	4628      	mov	r0, r5
 800734e:	47b8      	blx	r7
 8007350:	3001      	adds	r0, #1
 8007352:	f43f ae38 	beq.w	8006fc6 <_printf_float+0xc2>
 8007356:	f108 0801 	add.w	r8, r8, #1
 800735a:	68e3      	ldr	r3, [r4, #12]
 800735c:	990b      	ldr	r1, [sp, #44]	; 0x2c
 800735e:	1a5b      	subs	r3, r3, r1
 8007360:	4543      	cmp	r3, r8
 8007362:	dcf0      	bgt.n	8007346 <_printf_float+0x442>
 8007364:	e6fa      	b.n	800715c <_printf_float+0x258>
 8007366:	f04f 0800 	mov.w	r8, #0
 800736a:	f104 0919 	add.w	r9, r4, #25
 800736e:	e7f4      	b.n	800735a <_printf_float+0x456>

08007370 <_printf_common>:
 8007370:	e92d 47f0 	stmdb	sp!, {r4, r5, r6, r7, r8, r9, sl, lr}
 8007374:	4616      	mov	r6, r2
 8007376:	4699      	mov	r9, r3
 8007378:	688a      	ldr	r2, [r1, #8]
 800737a:	690b      	ldr	r3, [r1, #16]
 800737c:	f8dd 8020 	ldr.w	r8, [sp, #32]
 8007380:	4293      	cmp	r3, r2
 8007382:	bfb8      	it	lt
 8007384:	4613      	movlt	r3, r2
 8007386:	6033      	str	r3, [r6, #0]
 8007388:	f891 2043 	ldrb.w	r2, [r1, #67]	; 0x43
 800738c:	4607      	mov	r7, r0
 800738e:	460c      	mov	r4, r1
 8007390:	b10a      	cbz	r2, 8007396 <_printf_common+0x26>
 8007392:	3301      	adds	r3, #1
 8007394:	6033      	str	r3, [r6, #0]
 8007396:	6823      	ldr	r3, [r4, #0]
 8007398:	0699      	lsls	r1, r3, #26
 800739a:	bf42      	ittt	mi
 800739c:	6833      	ldrmi	r3, [r6, #0]
 800739e:	3302      	addmi	r3, #2
 80073a0:	6033      	strmi	r3, [r6, #0]
 80073a2:	6825      	ldr	r5, [r4, #0]
 80073a4:	f015 0506 	ands.w	r5, r5, #6
 80073a8:	d106      	bne.n	80073b8 <_printf_common+0x48>
 80073aa:	f104 0a19 	add.w	sl, r4, #25
 80073ae:	68e3      	ldr	r3, [r4, #12]
 80073b0:	6832      	ldr	r2, [r6, #0]
 80073b2:	1a9b      	subs	r3, r3, r2
 80073b4:	42ab      	cmp	r3, r5
 80073b6:	dc26      	bgt.n	8007406 <_printf_common+0x96>
 80073b8:	f894 2043 	ldrb.w	r2, [r4, #67]	; 0x43
 80073bc:	1e13      	subs	r3, r2, #0
 80073be:	6822      	ldr	r2, [r4, #0]
 80073c0:	bf18      	it	ne
 80073c2:	2301      	movne	r3, #1
 80073c4:	0692      	lsls	r2, r2, #26
 80073c6:	d42b      	bmi.n	8007420 <_printf_common+0xb0>
 80073c8:	f104 0243 	add.w	r2, r4, #67	; 0x43
 80073cc:	4649      	mov	r1, r9
 80073ce:	4638      	mov	r0, r7
 80073d0:	47c0      	blx	r8
 80073d2:	3001      	adds	r0, #1
 80073d4:	d01e      	beq.n	8007414 <_printf_common+0xa4>
 80073d6:	6823      	ldr	r3, [r4, #0]
 80073d8:	68e5      	ldr	r5, [r4, #12]
 80073da:	6832      	ldr	r2, [r6, #0]
 80073dc:	f003 0306 	and.w	r3, r3, #6
 80073e0:	2b04      	cmp	r3, #4
 80073e2:	bf08      	it	eq
 80073e4:	1aad      	subeq	r5, r5, r2
 80073e6:	68a3      	ldr	r3, [r4, #8]
 80073e8:	6922      	ldr	r2, [r4, #16]
 80073ea:	bf0c      	ite	eq
 80073ec:	ea25 75e5 	biceq.w	r5, r5, r5, asr #31
 80073f0:	2500      	movne	r5, #0
 80073f2:	4293      	cmp	r3, r2
 80073f4:	bfc4      	itt	gt
 80073f6:	1a9b      	subgt	r3, r3, r2
 80073f8:	18ed      	addgt	r5, r5, r3
 80073fa:	2600      	movs	r6, #0
 80073fc:	341a      	adds	r4, #26
 80073fe:	42b5      	cmp	r5, r6
 8007400:	d11a      	bne.n	8007438 <_printf_common+0xc8>
 8007402:	2000      	movs	r0, #0
 8007404:	e008      	b.n	8007418 <_printf_common+0xa8>
 8007406:	2301      	movs	r3, #1
 8007408:	4652      	mov	r2, sl
 800740a:	4649      	mov	r1, r9
 800740c:	4638      	mov	r0, r7
 800740e:	47c0      	blx	r8
 8007410:	3001      	adds	r0, #1
 8007412:	d103      	bne.n	800741c <_printf_common+0xac>
 8007414:	f04f 30ff 	mov.w	r0, #4294967295
 8007418:	e8bd 87f0 	ldmia.w	sp!, {r4, r5, r6, r7, r8, r9, sl, pc}
 800741c:	3501      	adds	r5, #1
 800741e:	e7c6      	b.n	80073ae <_printf_common+0x3e>
 8007420:	18e1      	adds	r1, r4, r3
 8007422:	1c5a      	adds	r2, r3, #1
 8007424:	2030      	movs	r0, #48	; 0x30
 8007426:	f881 0043 	strb.w	r0, [r1, #67]	; 0x43
 800742a:	4422      	add	r2, r4
 800742c:	f894 1045 	ldrb.w	r1, [r4, #69]	; 0x45
 8007430:	f882 1043 	strb.w	r1, [r2, #67]	; 0x43
 8007434:	3302      	adds	r3, #2
 8007436:	e7c7      	b.n	80073c8 <_printf_common+0x58>
 8007438:	2301      	movs	r3, #1
 800743a:	4622      	mov	r2, r4
 800743c:	4649      	mov	r1, r9
 800743e:	4638      	mov	r0, r7
 8007440:	47c0      	blx	r8
 8007442:	3001      	adds	r0, #1
 8007444:	d0e6      	beq.n	8007414 <_printf_common+0xa4>
 8007446:	3601      	adds	r6, #1
 8007448:	e7d9      	b.n	80073fe <_printf_common+0x8e>
	...

0800744c <_printf_i>:
 800744c:	e92d 47ff 	stmdb	sp!, {r0, r1, r2, r3, r4, r5, r6, r7, r8, r9, sl, lr}
 8007450:	7e0f      	ldrb	r7, [r1, #24]
 8007452:	9d0c      	ldr	r5, [sp, #48]	; 0x30
 8007454:	2f78      	cmp	r7, #120	; 0x78
 8007456:	4691      	mov	r9, r2
 8007458:	4680      	mov	r8, r0
 800745a:	460c      	mov	r4, r1
 800745c:	469a      	mov	sl, r3
 800745e:	f101 0243 	add.w	r2, r1, #67	; 0x43
 8007462:	d807      	bhi.n	8007474 <_printf_i+0x28>
 8007464:	2f62      	cmp	r7, #98	; 0x62
 8007466:	d80a      	bhi.n	800747e <_printf_i+0x32>
 8007468:	2f00      	cmp	r7, #0
 800746a:	f000 80d8 	beq.w	800761e <_printf_i+0x1d2>
 800746e:	2f58      	cmp	r7, #88	; 0x58
 8007470:	f000 80a3 	beq.w	80075ba <_printf_i+0x16e>
 8007474:	f104 0542 	add.w	r5, r4, #66	; 0x42
 8007478:	f884 7042 	strb.w	r7, [r4, #66]	; 0x42
 800747c:	e03a      	b.n	80074f4 <_printf_i+0xa8>
 800747e:	f1a7 0363 	sub.w	r3, r7, #99	; 0x63
 8007482:	2b15      	cmp	r3, #21
 8007484:	d8f6      	bhi.n	8007474 <_printf_i+0x28>
 8007486:	a101      	add	r1, pc, #4	; (adr r1, 800748c <_printf_i+0x40>)
 8007488:	f851 f023 	ldr.w	pc, [r1, r3, lsl #2]
 800748c:	080074e5 	.word	0x080074e5
 8007490:	080074f9 	.word	0x080074f9
 8007494:	08007475 	.word	0x08007475
 8007498:	08007475 	.word	0x08007475
 800749c:	08007475 	.word	0x08007475
 80074a0:	08007475 	.word	0x08007475
 80074a4:	080074f9 	.word	0x080074f9
 80074a8:	08007475 	.word	0x08007475
 80074ac:	08007475 	.word	0x08007475
 80074b0:	08007475 	.word	0x08007475
 80074b4:	08007475 	.word	0x08007475
 80074b8:	08007605 	.word	0x08007605
 80074bc:	08007529 	.word	0x08007529
 80074c0:	080075e7 	.word	0x080075e7
 80074c4:	08007475 	.word	0x08007475
 80074c8:	08007475 	.word	0x08007475
 80074cc:	08007627 	.word	0x08007627
 80074d0:	08007475 	.word	0x08007475
 80074d4:	08007529 	.word	0x08007529
 80074d8:	08007475 	.word	0x08007475
 80074dc:	08007475 	.word	0x08007475
 80074e0:	080075ef 	.word	0x080075ef
 80074e4:	682b      	ldr	r3, [r5, #0]
 80074e6:	1d1a      	adds	r2, r3, #4
 80074e8:	681b      	ldr	r3, [r3, #0]
 80074ea:	602a      	str	r2, [r5, #0]
 80074ec:	f104 0542 	add.w	r5, r4, #66	; 0x42
 80074f0:	f884 3042 	strb.w	r3, [r4, #66]	; 0x42
 80074f4:	2301      	movs	r3, #1
 80074f6:	e0a3      	b.n	8007640 <_printf_i+0x1f4>
 80074f8:	6820      	ldr	r0, [r4, #0]
 80074fa:	6829      	ldr	r1, [r5, #0]
 80074fc:	0606      	lsls	r6, r0, #24
 80074fe:	f101 0304 	add.w	r3, r1, #4
 8007502:	d50a      	bpl.n	800751a <_printf_i+0xce>
 8007504:	680e      	ldr	r6, [r1, #0]
 8007506:	602b      	str	r3, [r5, #0]
 8007508:	2e00      	cmp	r6, #0
 800750a:	da03      	bge.n	8007514 <_printf_i+0xc8>
 800750c:	232d      	movs	r3, #45	; 0x2d
 800750e:	4276      	negs	r6, r6
 8007510:	f884 3043 	strb.w	r3, [r4, #67]	; 0x43
 8007514:	485e      	ldr	r0, [pc, #376]	; (8007690 <_printf_i+0x244>)
 8007516:	230a      	movs	r3, #10
 8007518:	e019      	b.n	800754e <_printf_i+0x102>
 800751a:	680e      	ldr	r6, [r1, #0]
 800751c:	602b      	str	r3, [r5, #0]
 800751e:	f010 0f40 	tst.w	r0, #64	; 0x40
 8007522:	bf18      	it	ne
 8007524:	b236      	sxthne	r6, r6
 8007526:	e7ef      	b.n	8007508 <_printf_i+0xbc>
 8007528:	682b      	ldr	r3, [r5, #0]
 800752a:	6820      	ldr	r0, [r4, #0]
 800752c:	1d19      	adds	r1, r3, #4
 800752e:	6029      	str	r1, [r5, #0]
 8007530:	0601      	lsls	r1, r0, #24
 8007532:	d501      	bpl.n	8007538 <_printf_i+0xec>
 8007534:	681e      	ldr	r6, [r3, #0]
 8007536:	e002      	b.n	800753e <_printf_i+0xf2>
 8007538:	0646      	lsls	r6, r0, #25
 800753a:	d5fb      	bpl.n	8007534 <_printf_i+0xe8>
 800753c:	881e      	ldrh	r6, [r3, #0]
 800753e:	4854      	ldr	r0, [pc, #336]	; (8007690 <_printf_i+0x244>)
 8007540:	2f6f      	cmp	r7, #111	; 0x6f
 8007542:	bf0c      	ite	eq
 8007544:	2308      	moveq	r3, #8
 8007546:	230a      	movne	r3, #10
 8007548:	2100      	movs	r1, #0
 800754a:	f884 1043 	strb.w	r1, [r4, #67]	; 0x43
 800754e:	6865      	ldr	r5, [r4, #4]
 8007550:	60a5      	str	r5, [r4, #8]
 8007552:	2d00      	cmp	r5, #0
 8007554:	bfa2      	ittt	ge
 8007556:	6821      	ldrge	r1, [r4, #0]
 8007558:	f021 0104 	bicge.w	r1, r1, #4
 800755c:	6021      	strge	r1, [r4, #0]
 800755e:	b90e      	cbnz	r6, 8007564 <_printf_i+0x118>
 8007560:	2d00      	cmp	r5, #0
 8007562:	d04d      	beq.n	8007600 <_printf_i+0x1b4>
 8007564:	4615      	mov	r5, r2
 8007566:	fbb6 f1f3 	udiv	r1, r6, r3
 800756a:	fb03 6711 	mls	r7, r3, r1, r6
 800756e:	5dc7      	ldrb	r7, [r0, r7]
 8007570:	f805 7d01 	strb.w	r7, [r5, #-1]!
 8007574:	4637      	mov	r7, r6
 8007576:	42bb      	cmp	r3, r7
 8007578:	460e      	mov	r6, r1
 800757a:	d9f4      	bls.n	8007566 <_printf_i+0x11a>
 800757c:	2b08      	cmp	r3, #8
 800757e:	d10b      	bne.n	8007598 <_printf_i+0x14c>
 8007580:	6823      	ldr	r3, [r4, #0]
 8007582:	07de      	lsls	r6, r3, #31
 8007584:	d508      	bpl.n	8007598 <_printf_i+0x14c>
 8007586:	6923      	ldr	r3, [r4, #16]
 8007588:	6861      	ldr	r1, [r4, #4]
 800758a:	4299      	cmp	r1, r3
 800758c:	bfde      	ittt	le
 800758e:	2330      	movle	r3, #48	; 0x30
 8007590:	f805 3c01 	strble.w	r3, [r5, #-1]
 8007594:	f105 35ff 	addle.w	r5, r5, #4294967295
 8007598:	1b52      	subs	r2, r2, r5
 800759a:	6122      	str	r2, [r4, #16]
 800759c:	f8cd a000 	str.w	sl, [sp]
 80075a0:	464b      	mov	r3, r9
 80075a2:	aa03      	add	r2, sp, #12
 80075a4:	4621      	mov	r1, r4
 80075a6:	4640      	mov	r0, r8
 80075a8:	f7ff fee2 	bl	8007370 <_printf_common>
 80075ac:	3001      	adds	r0, #1
 80075ae:	d14c      	bne.n	800764a <_printf_i+0x1fe>
 80075b0:	f04f 30ff 	mov.w	r0, #4294967295
 80075b4:	b004      	add	sp, #16
 80075b6:	e8bd 87f0 	ldmia.w	sp!, {r4, r5, r6, r7, r8, r9, sl, pc}
 80075ba:	4835      	ldr	r0, [pc, #212]	; (8007690 <_printf_i+0x244>)
 80075bc:	f881 7045 	strb.w	r7, [r1, #69]	; 0x45
 80075c0:	6829      	ldr	r1, [r5, #0]
 80075c2:	6823      	ldr	r3, [r4, #0]
 80075c4:	f851 6b04 	ldr.w	r6, [r1], #4
 80075c8:	6029      	str	r1, [r5, #0]
 80075ca:	061d      	lsls	r5, r3, #24
 80075cc:	d514      	bpl.n	80075f8 <_printf_i+0x1ac>
 80075ce:	07df      	lsls	r7, r3, #31
 80075d0:	bf44      	itt	mi
 80075d2:	f043 0320 	orrmi.w	r3, r3, #32
 80075d6:	6023      	strmi	r3, [r4, #0]
 80075d8:	b91e      	cbnz	r6, 80075e2 <_printf_i+0x196>
 80075da:	6823      	ldr	r3, [r4, #0]
 80075dc:	f023 0320 	bic.w	r3, r3, #32
 80075e0:	6023      	str	r3, [r4, #0]
 80075e2:	2310      	movs	r3, #16
 80075e4:	e7b0      	b.n	8007548 <_printf_i+0xfc>
 80075e6:	6823      	ldr	r3, [r4, #0]
 80075e8:	f043 0320 	orr.w	r3, r3, #32
 80075ec:	6023      	str	r3, [r4, #0]
 80075ee:	2378      	movs	r3, #120	; 0x78
 80075f0:	4828      	ldr	r0, [pc, #160]	; (8007694 <_printf_i+0x248>)
 80075f2:	f884 3045 	strb.w	r3, [r4, #69]	; 0x45
 80075f6:	e7e3      	b.n	80075c0 <_printf_i+0x174>
 80075f8:	0659      	lsls	r1, r3, #25
 80075fa:	bf48      	it	mi
 80075fc:	b2b6      	uxthmi	r6, r6
 80075fe:	e7e6      	b.n	80075ce <_printf_i+0x182>
 8007600:	4615      	mov	r5, r2
 8007602:	e7bb      	b.n	800757c <_printf_i+0x130>
 8007604:	682b      	ldr	r3, [r5, #0]
 8007606:	6826      	ldr	r6, [r4, #0]
 8007608:	6961      	ldr	r1, [r4, #20]
 800760a:	1d18      	adds	r0, r3, #4
 800760c:	6028      	str	r0, [r5, #0]
 800760e:	0635      	lsls	r5, r6, #24
 8007610:	681b      	ldr	r3, [r3, #0]
 8007612:	d501      	bpl.n	8007618 <_printf_i+0x1cc>
 8007614:	6019      	str	r1, [r3, #0]
 8007616:	e002      	b.n	800761e <_printf_i+0x1d2>
 8007618:	0670      	lsls	r0, r6, #25
 800761a:	d5fb      	bpl.n	8007614 <_printf_i+0x1c8>
 800761c:	8019      	strh	r1, [r3, #0]
 800761e:	2300      	movs	r3, #0
 8007620:	6123      	str	r3, [r4, #16]
 8007622:	4615      	mov	r5, r2
 8007624:	e7ba      	b.n	800759c <_printf_i+0x150>
 8007626:	682b      	ldr	r3, [r5, #0]
 8007628:	1d1a      	adds	r2, r3, #4
 800762a:	602a      	str	r2, [r5, #0]
 800762c:	681d      	ldr	r5, [r3, #0]
 800762e:	6862      	ldr	r2, [r4, #4]
 8007630:	2100      	movs	r1, #0
 8007632:	4628      	mov	r0, r5
 8007634:	f7f8 fdd4 	bl	80001e0 <memchr>
 8007638:	b108      	cbz	r0, 800763e <_printf_i+0x1f2>
 800763a:	1b40      	subs	r0, r0, r5
 800763c:	6060      	str	r0, [r4, #4]
 800763e:	6863      	ldr	r3, [r4, #4]
 8007640:	6123      	str	r3, [r4, #16]
 8007642:	2300      	movs	r3, #0
 8007644:	f884 3043 	strb.w	r3, [r4, #67]	; 0x43
 8007648:	e7a8      	b.n	800759c <_printf_i+0x150>
 800764a:	6923      	ldr	r3, [r4, #16]
 800764c:	462a      	mov	r2, r5
 800764e:	4649      	mov	r1, r9
 8007650:	4640      	mov	r0, r8
 8007652:	47d0      	blx	sl
 8007654:	3001      	adds	r0, #1
 8007656:	d0ab      	beq.n	80075b0 <_printf_i+0x164>
 8007658:	6823      	ldr	r3, [r4, #0]
 800765a:	079b      	lsls	r3, r3, #30
 800765c:	d413      	bmi.n	8007686 <_printf_i+0x23a>
 800765e:	68e0      	ldr	r0, [r4, #12]
 8007660:	9b03      	ldr	r3, [sp, #12]
 8007662:	4298      	cmp	r0, r3
 8007664:	bfb8      	it	lt
 8007666:	4618      	movlt	r0, r3
 8007668:	e7a4      	b.n	80075b4 <_printf_i+0x168>
 800766a:	2301      	movs	r3, #1
 800766c:	4632      	mov	r2, r6
 800766e:	4649      	mov	r1, r9
 8007670:	4640      	mov	r0, r8
 8007672:	47d0      	blx	sl
 8007674:	3001      	adds	r0, #1
 8007676:	d09b      	beq.n	80075b0 <_printf_i+0x164>
 8007678:	3501      	adds	r5, #1
 800767a:	68e3      	ldr	r3, [r4, #12]
 800767c:	9903      	ldr	r1, [sp, #12]
 800767e:	1a5b      	subs	r3, r3, r1
 8007680:	42ab      	cmp	r3, r5
 8007682:	dcf2      	bgt.n	800766a <_printf_i+0x21e>
 8007684:	e7eb      	b.n	800765e <_printf_i+0x212>
 8007686:	2500      	movs	r5, #0
 8007688:	f104 0619 	add.w	r6, r4, #25
 800768c:	e7f5      	b.n	800767a <_printf_i+0x22e>
 800768e:	bf00      	nop
 8007690:	0800bce6 	.word	0x0800bce6
 8007694:	0800bcf7 	.word	0x0800bcf7

08007698 <siprintf>:
 8007698:	b40e      	push	{r1, r2, r3}
 800769a:	b500      	push	{lr}
 800769c:	b09c      	sub	sp, #112	; 0x70
 800769e:	ab1d      	add	r3, sp, #116	; 0x74
 80076a0:	9002      	str	r0, [sp, #8]
 80076a2:	9006      	str	r0, [sp, #24]
 80076a4:	f06f 4100 	mvn.w	r1, #2147483648	; 0x80000000
 80076a8:	4809      	ldr	r0, [pc, #36]	; (80076d0 <siprintf+0x38>)
 80076aa:	9107      	str	r1, [sp, #28]
 80076ac:	9104      	str	r1, [sp, #16]
 80076ae:	4909      	ldr	r1, [pc, #36]	; (80076d4 <siprintf+0x3c>)
 80076b0:	f853 2b04 	ldr.w	r2, [r3], #4
 80076b4:	9105      	str	r1, [sp, #20]
 80076b6:	6800      	ldr	r0, [r0, #0]
 80076b8:	9301      	str	r3, [sp, #4]
 80076ba:	a902      	add	r1, sp, #8
 80076bc:	f001 fb76 	bl	8008dac <_svfiprintf_r>
 80076c0:	9b02      	ldr	r3, [sp, #8]
 80076c2:	2200      	movs	r2, #0
 80076c4:	701a      	strb	r2, [r3, #0]
 80076c6:	b01c      	add	sp, #112	; 0x70
 80076c8:	f85d eb04 	ldr.w	lr, [sp], #4
 80076cc:	b003      	add	sp, #12
 80076ce:	4770      	bx	lr
 80076d0:	20000240 	.word	0x20000240
 80076d4:	ffff0208 	.word	0xffff0208

080076d8 <quorem>:
 80076d8:	e92d 4ff7 	stmdb	sp!, {r0, r1, r2, r4, r5, r6, r7, r8, r9, sl, fp, lr}
 80076dc:	6903      	ldr	r3, [r0, #16]
 80076de:	690c      	ldr	r4, [r1, #16]
 80076e0:	42a3      	cmp	r3, r4
 80076e2:	4607      	mov	r7, r0
 80076e4:	f2c0 8081 	blt.w	80077ea <quorem+0x112>
 80076e8:	3c01      	subs	r4, #1
 80076ea:	f101 0814 	add.w	r8, r1, #20
 80076ee:	f100 0514 	add.w	r5, r0, #20
 80076f2:	eb05 0384 	add.w	r3, r5, r4, lsl #2
 80076f6:	9301      	str	r3, [sp, #4]
 80076f8:	f858 3024 	ldr.w	r3, [r8, r4, lsl #2]
 80076fc:	f855 2024 	ldr.w	r2, [r5, r4, lsl #2]
 8007700:	3301      	adds	r3, #1
 8007702:	429a      	cmp	r2, r3
 8007704:	ea4f 0b84 	mov.w	fp, r4, lsl #2
 8007708:	eb08 0984 	add.w	r9, r8, r4, lsl #2
 800770c:	fbb2 f6f3 	udiv	r6, r2, r3
 8007710:	d331      	bcc.n	8007776 <quorem+0x9e>
 8007712:	f04f 0e00 	mov.w	lr, #0
 8007716:	4640      	mov	r0, r8
 8007718:	46ac      	mov	ip, r5
 800771a:	46f2      	mov	sl, lr
 800771c:	f850 2b04 	ldr.w	r2, [r0], #4
 8007720:	b293      	uxth	r3, r2
 8007722:	fb06 e303 	mla	r3, r6, r3, lr
 8007726:	ea4f 4e13 	mov.w	lr, r3, lsr #16
 800772a:	b29b      	uxth	r3, r3
 800772c:	ebaa 0303 	sub.w	r3, sl, r3
 8007730:	f8dc a000 	ldr.w	sl, [ip]
 8007734:	0c12      	lsrs	r2, r2, #16
 8007736:	fa13 f38a 	uxtah	r3, r3, sl
 800773a:	fb06 e202 	mla	r2, r6, r2, lr
 800773e:	9300      	str	r3, [sp, #0]
 8007740:	9b00      	ldr	r3, [sp, #0]
 8007742:	ea4f 4e12 	mov.w	lr, r2, lsr #16
 8007746:	b292      	uxth	r2, r2
 8007748:	ebc2 421a 	rsb	r2, r2, sl, lsr #16
 800774c:	eb02 4223 	add.w	r2, r2, r3, asr #16
 8007750:	f8bd 3000 	ldrh.w	r3, [sp]
 8007754:	4581      	cmp	r9, r0
 8007756:	ea43 4302 	orr.w	r3, r3, r2, lsl #16
 800775a:	f84c 3b04 	str.w	r3, [ip], #4
 800775e:	ea4f 4a22 	mov.w	sl, r2, asr #16
 8007762:	d2db      	bcs.n	800771c <quorem+0x44>
 8007764:	f855 300b 	ldr.w	r3, [r5, fp]
 8007768:	b92b      	cbnz	r3, 8007776 <quorem+0x9e>
 800776a:	9b01      	ldr	r3, [sp, #4]
 800776c:	3b04      	subs	r3, #4
 800776e:	429d      	cmp	r5, r3
 8007770:	461a      	mov	r2, r3
 8007772:	d32e      	bcc.n	80077d2 <quorem+0xfa>
 8007774:	613c      	str	r4, [r7, #16]
 8007776:	4638      	mov	r0, r7
 8007778:	f001 f8c4 	bl	8008904 <__mcmp>
 800777c:	2800      	cmp	r0, #0
 800777e:	db24      	blt.n	80077ca <quorem+0xf2>
 8007780:	3601      	adds	r6, #1
 8007782:	4628      	mov	r0, r5
 8007784:	f04f 0c00 	mov.w	ip, #0
 8007788:	f858 2b04 	ldr.w	r2, [r8], #4
 800778c:	f8d0 e000 	ldr.w	lr, [r0]
 8007790:	b293      	uxth	r3, r2
 8007792:	ebac 0303 	sub.w	r3, ip, r3
 8007796:	0c12      	lsrs	r2, r2, #16
 8007798:	fa13 f38e 	uxtah	r3, r3, lr
 800779c:	ebc2 421e 	rsb	r2, r2, lr, lsr #16
 80077a0:	eb02 4223 	add.w	r2, r2, r3, asr #16
 80077a4:	b29b      	uxth	r3, r3
 80077a6:	ea43 4302 	orr.w	r3, r3, r2, lsl #16
 80077aa:	45c1      	cmp	r9, r8
 80077ac:	f840 3b04 	str.w	r3, [r0], #4
 80077b0:	ea4f 4c22 	mov.w	ip, r2, asr #16
 80077b4:	d2e8      	bcs.n	8007788 <quorem+0xb0>
 80077b6:	f855 2024 	ldr.w	r2, [r5, r4, lsl #2]
 80077ba:	eb05 0384 	add.w	r3, r5, r4, lsl #2
 80077be:	b922      	cbnz	r2, 80077ca <quorem+0xf2>
 80077c0:	3b04      	subs	r3, #4
 80077c2:	429d      	cmp	r5, r3
 80077c4:	461a      	mov	r2, r3
 80077c6:	d30a      	bcc.n	80077de <quorem+0x106>
 80077c8:	613c      	str	r4, [r7, #16]
 80077ca:	4630      	mov	r0, r6
 80077cc:	b003      	add	sp, #12
 80077ce:	e8bd 8ff0 	ldmia.w	sp!, {r4, r5, r6, r7, r8, r9, sl, fp, pc}
 80077d2:	6812      	ldr	r2, [r2, #0]
 80077d4:	3b04      	subs	r3, #4
 80077d6:	2a00      	cmp	r2, #0
 80077d8:	d1cc      	bne.n	8007774 <quorem+0x9c>
 80077da:	3c01      	subs	r4, #1
 80077dc:	e7c7      	b.n	800776e <quorem+0x96>
 80077de:	6812      	ldr	r2, [r2, #0]
 80077e0:	3b04      	subs	r3, #4
 80077e2:	2a00      	cmp	r2, #0
 80077e4:	d1f0      	bne.n	80077c8 <quorem+0xf0>
 80077e6:	3c01      	subs	r4, #1
 80077e8:	e7eb      	b.n	80077c2 <quorem+0xea>
 80077ea:	2000      	movs	r0, #0
 80077ec:	e7ee      	b.n	80077cc <quorem+0xf4>
	...

080077f0 <_dtoa_r>:
 80077f0:	e92d 4ff0 	stmdb	sp!, {r4, r5, r6, r7, r8, r9, sl, fp, lr}
 80077f4:	ed2d 8b04 	vpush	{d8-d9}
 80077f8:	ec57 6b10 	vmov	r6, r7, d0
 80077fc:	b093      	sub	sp, #76	; 0x4c
 80077fe:	6a45      	ldr	r5, [r0, #36]	; 0x24
 8007800:	f8dd 8080 	ldr.w	r8, [sp, #128]	; 0x80
 8007804:	9106      	str	r1, [sp, #24]
 8007806:	ee10 aa10 	vmov	sl, s0
 800780a:	4604      	mov	r4, r0
 800780c:	9209      	str	r2, [sp, #36]	; 0x24
 800780e:	930c      	str	r3, [sp, #48]	; 0x30
 8007810:	46bb      	mov	fp, r7
 8007812:	b975      	cbnz	r5, 8007832 <_dtoa_r+0x42>
 8007814:	2010      	movs	r0, #16
 8007816:	f000 fddd 	bl	80083d4 <malloc>
 800781a:	4602      	mov	r2, r0
 800781c:	6260      	str	r0, [r4, #36]	; 0x24
 800781e:	b920      	cbnz	r0, 800782a <_dtoa_r+0x3a>
 8007820:	4ba7      	ldr	r3, [pc, #668]	; (8007ac0 <_dtoa_r+0x2d0>)
 8007822:	21ea      	movs	r1, #234	; 0xea
 8007824:	48a7      	ldr	r0, [pc, #668]	; (8007ac4 <_dtoa_r+0x2d4>)
 8007826:	f001 fbd1 	bl	8008fcc <__assert_func>
 800782a:	e9c0 5501 	strd	r5, r5, [r0, #4]
 800782e:	6005      	str	r5, [r0, #0]
 8007830:	60c5      	str	r5, [r0, #12]
 8007832:	6a63      	ldr	r3, [r4, #36]	; 0x24
 8007834:	6819      	ldr	r1, [r3, #0]
 8007836:	b151      	cbz	r1, 800784e <_dtoa_r+0x5e>
 8007838:	685a      	ldr	r2, [r3, #4]
 800783a:	604a      	str	r2, [r1, #4]
 800783c:	2301      	movs	r3, #1
 800783e:	4093      	lsls	r3, r2
 8007840:	608b      	str	r3, [r1, #8]
 8007842:	4620      	mov	r0, r4
 8007844:	f000 fe1c 	bl	8008480 <_Bfree>
 8007848:	6a63      	ldr	r3, [r4, #36]	; 0x24
 800784a:	2200      	movs	r2, #0
 800784c:	601a      	str	r2, [r3, #0]
 800784e:	1e3b      	subs	r3, r7, #0
 8007850:	bfaa      	itet	ge
 8007852:	2300      	movge	r3, #0
 8007854:	f023 4b00 	biclt.w	fp, r3, #2147483648	; 0x80000000
 8007858:	f8c8 3000 	strge.w	r3, [r8]
 800785c:	4b9a      	ldr	r3, [pc, #616]	; (8007ac8 <_dtoa_r+0x2d8>)
 800785e:	bfbc      	itt	lt
 8007860:	2201      	movlt	r2, #1
 8007862:	f8c8 2000 	strlt.w	r2, [r8]
 8007866:	ea33 030b 	bics.w	r3, r3, fp
 800786a:	d11b      	bne.n	80078a4 <_dtoa_r+0xb4>
 800786c:	9a0c      	ldr	r2, [sp, #48]	; 0x30
 800786e:	f242 730f 	movw	r3, #9999	; 0x270f
 8007872:	6013      	str	r3, [r2, #0]
 8007874:	f3cb 0313 	ubfx	r3, fp, #0, #20
 8007878:	4333      	orrs	r3, r6
 800787a:	f000 8592 	beq.w	80083a2 <_dtoa_r+0xbb2>
 800787e:	9b21      	ldr	r3, [sp, #132]	; 0x84
 8007880:	b963      	cbnz	r3, 800789c <_dtoa_r+0xac>
 8007882:	4b92      	ldr	r3, [pc, #584]	; (8007acc <_dtoa_r+0x2dc>)
 8007884:	e022      	b.n	80078cc <_dtoa_r+0xdc>
 8007886:	4b92      	ldr	r3, [pc, #584]	; (8007ad0 <_dtoa_r+0x2e0>)
 8007888:	9301      	str	r3, [sp, #4]
 800788a:	3308      	adds	r3, #8
 800788c:	9a21      	ldr	r2, [sp, #132]	; 0x84
 800788e:	6013      	str	r3, [r2, #0]
 8007890:	9801      	ldr	r0, [sp, #4]
 8007892:	b013      	add	sp, #76	; 0x4c
 8007894:	ecbd 8b04 	vpop	{d8-d9}
 8007898:	e8bd 8ff0 	ldmia.w	sp!, {r4, r5, r6, r7, r8, r9, sl, fp, pc}
 800789c:	4b8b      	ldr	r3, [pc, #556]	; (8007acc <_dtoa_r+0x2dc>)
 800789e:	9301      	str	r3, [sp, #4]
 80078a0:	3303      	adds	r3, #3
 80078a2:	e7f3      	b.n	800788c <_dtoa_r+0x9c>
 80078a4:	2200      	movs	r2, #0
 80078a6:	2300      	movs	r3, #0
 80078a8:	4650      	mov	r0, sl
 80078aa:	4659      	mov	r1, fp
 80078ac:	f7f9 f90c 	bl	8000ac8 <__aeabi_dcmpeq>
 80078b0:	ec4b ab19 	vmov	d9, sl, fp
 80078b4:	4680      	mov	r8, r0
 80078b6:	b158      	cbz	r0, 80078d0 <_dtoa_r+0xe0>
 80078b8:	9a0c      	ldr	r2, [sp, #48]	; 0x30
 80078ba:	2301      	movs	r3, #1
 80078bc:	6013      	str	r3, [r2, #0]
 80078be:	9b21      	ldr	r3, [sp, #132]	; 0x84
 80078c0:	2b00      	cmp	r3, #0
 80078c2:	f000 856b 	beq.w	800839c <_dtoa_r+0xbac>
 80078c6:	4883      	ldr	r0, [pc, #524]	; (8007ad4 <_dtoa_r+0x2e4>)
 80078c8:	6018      	str	r0, [r3, #0]
 80078ca:	1e43      	subs	r3, r0, #1
 80078cc:	9301      	str	r3, [sp, #4]
 80078ce:	e7df      	b.n	8007890 <_dtoa_r+0xa0>
 80078d0:	ec4b ab10 	vmov	d0, sl, fp
 80078d4:	aa10      	add	r2, sp, #64	; 0x40
 80078d6:	a911      	add	r1, sp, #68	; 0x44
 80078d8:	4620      	mov	r0, r4
 80078da:	f001 f8b9 	bl	8008a50 <__d2b>
 80078de:	f3cb 550a 	ubfx	r5, fp, #20, #11
 80078e2:	ee08 0a10 	vmov	s16, r0
 80078e6:	2d00      	cmp	r5, #0
 80078e8:	f000 8084 	beq.w	80079f4 <_dtoa_r+0x204>
 80078ec:	ee19 3a90 	vmov	r3, s19
 80078f0:	f3c3 0313 	ubfx	r3, r3, #0, #20
 80078f4:	f043 577f 	orr.w	r7, r3, #1069547520	; 0x3fc00000
 80078f8:	4656      	mov	r6, sl
 80078fa:	f447 1740 	orr.w	r7, r7, #3145728	; 0x300000
 80078fe:	f2a5 35ff 	subw	r5, r5, #1023	; 0x3ff
 8007902:	f8cd 8038 	str.w	r8, [sp, #56]	; 0x38
 8007906:	4b74      	ldr	r3, [pc, #464]	; (8007ad8 <_dtoa_r+0x2e8>)
 8007908:	2200      	movs	r2, #0
 800790a:	4630      	mov	r0, r6
 800790c:	4639      	mov	r1, r7
 800790e:	f7f8 fcbb 	bl	8000288 <__aeabi_dsub>
 8007912:	a365      	add	r3, pc, #404	; (adr r3, 8007aa8 <_dtoa_r+0x2b8>)
 8007914:	e9d3 2300 	ldrd	r2, r3, [r3]
 8007918:	f7f8 fe6e 	bl	80005f8 <__aeabi_dmul>
 800791c:	a364      	add	r3, pc, #400	; (adr r3, 8007ab0 <_dtoa_r+0x2c0>)
 800791e:	e9d3 2300 	ldrd	r2, r3, [r3]
 8007922:	f7f8 fcb3 	bl	800028c <__adddf3>
 8007926:	4606      	mov	r6, r0
 8007928:	4628      	mov	r0, r5
 800792a:	460f      	mov	r7, r1
 800792c:	f7f8 fdfa 	bl	8000524 <__aeabi_i2d>
 8007930:	a361      	add	r3, pc, #388	; (adr r3, 8007ab8 <_dtoa_r+0x2c8>)
 8007932:	e9d3 2300 	ldrd	r2, r3, [r3]
 8007936:	f7f8 fe5f 	bl	80005f8 <__aeabi_dmul>
 800793a:	4602      	mov	r2, r0
 800793c:	460b      	mov	r3, r1
 800793e:	4630      	mov	r0, r6
 8007940:	4639      	mov	r1, r7
 8007942:	f7f8 fca3 	bl	800028c <__adddf3>
 8007946:	4606      	mov	r6, r0
 8007948:	460f      	mov	r7, r1
 800794a:	f7f9 f905 	bl	8000b58 <__aeabi_d2iz>
 800794e:	2200      	movs	r2, #0
 8007950:	9000      	str	r0, [sp, #0]
 8007952:	2300      	movs	r3, #0
 8007954:	4630      	mov	r0, r6
 8007956:	4639      	mov	r1, r7
 8007958:	f7f9 f8c0 	bl	8000adc <__aeabi_dcmplt>
 800795c:	b150      	cbz	r0, 8007974 <_dtoa_r+0x184>
 800795e:	9800      	ldr	r0, [sp, #0]
 8007960:	f7f8 fde0 	bl	8000524 <__aeabi_i2d>
 8007964:	4632      	mov	r2, r6
 8007966:	463b      	mov	r3, r7
 8007968:	f7f9 f8ae 	bl	8000ac8 <__aeabi_dcmpeq>
 800796c:	b910      	cbnz	r0, 8007974 <_dtoa_r+0x184>
 800796e:	9b00      	ldr	r3, [sp, #0]
 8007970:	3b01      	subs	r3, #1
 8007972:	9300      	str	r3, [sp, #0]
 8007974:	9b00      	ldr	r3, [sp, #0]
 8007976:	2b16      	cmp	r3, #22
 8007978:	d85a      	bhi.n	8007a30 <_dtoa_r+0x240>
 800797a:	9a00      	ldr	r2, [sp, #0]
 800797c:	4b57      	ldr	r3, [pc, #348]	; (8007adc <_dtoa_r+0x2ec>)
 800797e:	eb03 03c2 	add.w	r3, r3, r2, lsl #3
 8007982:	e9d3 2300 	ldrd	r2, r3, [r3]
 8007986:	ec51 0b19 	vmov	r0, r1, d9
 800798a:	f7f9 f8a7 	bl	8000adc <__aeabi_dcmplt>
 800798e:	2800      	cmp	r0, #0
 8007990:	d050      	beq.n	8007a34 <_dtoa_r+0x244>
 8007992:	9b00      	ldr	r3, [sp, #0]
 8007994:	3b01      	subs	r3, #1
 8007996:	9300      	str	r3, [sp, #0]
 8007998:	2300      	movs	r3, #0
 800799a:	930b      	str	r3, [sp, #44]	; 0x2c
 800799c:	9b10      	ldr	r3, [sp, #64]	; 0x40
 800799e:	1b5d      	subs	r5, r3, r5
 80079a0:	1e6b      	subs	r3, r5, #1
 80079a2:	9305      	str	r3, [sp, #20]
 80079a4:	bf45      	ittet	mi
 80079a6:	f1c5 0301 	rsbmi	r3, r5, #1
 80079aa:	9304      	strmi	r3, [sp, #16]
 80079ac:	2300      	movpl	r3, #0
 80079ae:	2300      	movmi	r3, #0
 80079b0:	bf4c      	ite	mi
 80079b2:	9305      	strmi	r3, [sp, #20]
 80079b4:	9304      	strpl	r3, [sp, #16]
 80079b6:	9b00      	ldr	r3, [sp, #0]
 80079b8:	2b00      	cmp	r3, #0
 80079ba:	db3d      	blt.n	8007a38 <_dtoa_r+0x248>
 80079bc:	9b05      	ldr	r3, [sp, #20]
 80079be:	9a00      	ldr	r2, [sp, #0]
 80079c0:	920a      	str	r2, [sp, #40]	; 0x28
 80079c2:	4413      	add	r3, r2
 80079c4:	9305      	str	r3, [sp, #20]
 80079c6:	2300      	movs	r3, #0
 80079c8:	9307      	str	r3, [sp, #28]
 80079ca:	9b06      	ldr	r3, [sp, #24]
 80079cc:	2b09      	cmp	r3, #9
 80079ce:	f200 8089 	bhi.w	8007ae4 <_dtoa_r+0x2f4>
 80079d2:	2b05      	cmp	r3, #5
 80079d4:	bfc4      	itt	gt
 80079d6:	3b04      	subgt	r3, #4
 80079d8:	9306      	strgt	r3, [sp, #24]
 80079da:	9b06      	ldr	r3, [sp, #24]
 80079dc:	f1a3 0302 	sub.w	r3, r3, #2
 80079e0:	bfcc      	ite	gt
 80079e2:	2500      	movgt	r5, #0
 80079e4:	2501      	movle	r5, #1
 80079e6:	2b03      	cmp	r3, #3
 80079e8:	f200 8087 	bhi.w	8007afa <_dtoa_r+0x30a>
 80079ec:	e8df f003 	tbb	[pc, r3]
 80079f0:	59383a2d 	.word	0x59383a2d
 80079f4:	e9dd 5310 	ldrd	r5, r3, [sp, #64]	; 0x40
 80079f8:	441d      	add	r5, r3
 80079fa:	f205 4332 	addw	r3, r5, #1074	; 0x432
 80079fe:	2b20      	cmp	r3, #32
 8007a00:	bfc1      	itttt	gt
 8007a02:	f1c3 0340 	rsbgt	r3, r3, #64	; 0x40
 8007a06:	f205 4012 	addwgt	r0, r5, #1042	; 0x412
 8007a0a:	fa0b f303 	lslgt.w	r3, fp, r3
 8007a0e:	fa26 f000 	lsrgt.w	r0, r6, r0
 8007a12:	bfda      	itte	le
 8007a14:	f1c3 0320 	rsble	r3, r3, #32
 8007a18:	fa06 f003 	lslle.w	r0, r6, r3
 8007a1c:	4318      	orrgt	r0, r3
 8007a1e:	f7f8 fd71 	bl	8000504 <__aeabi_ui2d>
 8007a22:	2301      	movs	r3, #1
 8007a24:	4606      	mov	r6, r0
 8007a26:	f1a1 77f8 	sub.w	r7, r1, #32505856	; 0x1f00000
 8007a2a:	3d01      	subs	r5, #1
 8007a2c:	930e      	str	r3, [sp, #56]	; 0x38
 8007a2e:	e76a      	b.n	8007906 <_dtoa_r+0x116>
 8007a30:	2301      	movs	r3, #1
 8007a32:	e7b2      	b.n	800799a <_dtoa_r+0x1aa>
 8007a34:	900b      	str	r0, [sp, #44]	; 0x2c
 8007a36:	e7b1      	b.n	800799c <_dtoa_r+0x1ac>
 8007a38:	9b04      	ldr	r3, [sp, #16]
 8007a3a:	9a00      	ldr	r2, [sp, #0]
 8007a3c:	1a9b      	subs	r3, r3, r2
 8007a3e:	9304      	str	r3, [sp, #16]
 8007a40:	4253      	negs	r3, r2
 8007a42:	9307      	str	r3, [sp, #28]
 8007a44:	2300      	movs	r3, #0
 8007a46:	930a      	str	r3, [sp, #40]	; 0x28
 8007a48:	e7bf      	b.n	80079ca <_dtoa_r+0x1da>
 8007a4a:	2300      	movs	r3, #0
 8007a4c:	9308      	str	r3, [sp, #32]
 8007a4e:	9b09      	ldr	r3, [sp, #36]	; 0x24
 8007a50:	2b00      	cmp	r3, #0
 8007a52:	dc55      	bgt.n	8007b00 <_dtoa_r+0x310>
 8007a54:	2301      	movs	r3, #1
 8007a56:	e9cd 3302 	strd	r3, r3, [sp, #8]
 8007a5a:	461a      	mov	r2, r3
 8007a5c:	9209      	str	r2, [sp, #36]	; 0x24
 8007a5e:	e00c      	b.n	8007a7a <_dtoa_r+0x28a>
 8007a60:	2301      	movs	r3, #1
 8007a62:	e7f3      	b.n	8007a4c <_dtoa_r+0x25c>
 8007a64:	2300      	movs	r3, #0
 8007a66:	9a09      	ldr	r2, [sp, #36]	; 0x24
 8007a68:	9308      	str	r3, [sp, #32]
 8007a6a:	9b00      	ldr	r3, [sp, #0]
 8007a6c:	4413      	add	r3, r2
 8007a6e:	9302      	str	r3, [sp, #8]
 8007a70:	3301      	adds	r3, #1
 8007a72:	2b01      	cmp	r3, #1
 8007a74:	9303      	str	r3, [sp, #12]
 8007a76:	bfb8      	it	lt
 8007a78:	2301      	movlt	r3, #1
 8007a7a:	6a60      	ldr	r0, [r4, #36]	; 0x24
 8007a7c:	2200      	movs	r2, #0
 8007a7e:	6042      	str	r2, [r0, #4]
 8007a80:	2204      	movs	r2, #4
 8007a82:	f102 0614 	add.w	r6, r2, #20
 8007a86:	429e      	cmp	r6, r3
 8007a88:	6841      	ldr	r1, [r0, #4]
 8007a8a:	d93d      	bls.n	8007b08 <_dtoa_r+0x318>
 8007a8c:	4620      	mov	r0, r4
 8007a8e:	f000 fcb7 	bl	8008400 <_Balloc>
 8007a92:	9001      	str	r0, [sp, #4]
 8007a94:	2800      	cmp	r0, #0
 8007a96:	d13b      	bne.n	8007b10 <_dtoa_r+0x320>
 8007a98:	4b11      	ldr	r3, [pc, #68]	; (8007ae0 <_dtoa_r+0x2f0>)
 8007a9a:	4602      	mov	r2, r0
 8007a9c:	f44f 71d5 	mov.w	r1, #426	; 0x1aa
 8007aa0:	e6c0      	b.n	8007824 <_dtoa_r+0x34>
 8007aa2:	2301      	movs	r3, #1
 8007aa4:	e7df      	b.n	8007a66 <_dtoa_r+0x276>
 8007aa6:	bf00      	nop
 8007aa8:	636f4361 	.word	0x636f4361
 8007aac:	3fd287a7 	.word	0x3fd287a7
 8007ab0:	8b60c8b3 	.word	0x8b60c8b3
 8007ab4:	3fc68a28 	.word	0x3fc68a28
 8007ab8:	509f79fb 	.word	0x509f79fb
 8007abc:	3fd34413 	.word	0x3fd34413
 8007ac0:	0800bd15 	.word	0x0800bd15
 8007ac4:	0800bd2c 	.word	0x0800bd2c
 8007ac8:	7ff00000 	.word	0x7ff00000
 8007acc:	0800bd11 	.word	0x0800bd11
 8007ad0:	0800bd08 	.word	0x0800bd08
 8007ad4:	0800bce5 	.word	0x0800bce5
 8007ad8:	3ff80000 	.word	0x3ff80000
 8007adc:	0800be20 	.word	0x0800be20
 8007ae0:	0800bd87 	.word	0x0800bd87
 8007ae4:	2501      	movs	r5, #1
 8007ae6:	2300      	movs	r3, #0
 8007ae8:	9306      	str	r3, [sp, #24]
 8007aea:	9508      	str	r5, [sp, #32]
 8007aec:	f04f 33ff 	mov.w	r3, #4294967295
 8007af0:	e9cd 3302 	strd	r3, r3, [sp, #8]
 8007af4:	2200      	movs	r2, #0
 8007af6:	2312      	movs	r3, #18
 8007af8:	e7b0      	b.n	8007a5c <_dtoa_r+0x26c>
 8007afa:	2301      	movs	r3, #1
 8007afc:	9308      	str	r3, [sp, #32]
 8007afe:	e7f5      	b.n	8007aec <_dtoa_r+0x2fc>
 8007b00:	9b09      	ldr	r3, [sp, #36]	; 0x24
 8007b02:	e9cd 3302 	strd	r3, r3, [sp, #8]
 8007b06:	e7b8      	b.n	8007a7a <_dtoa_r+0x28a>
 8007b08:	3101      	adds	r1, #1
 8007b0a:	6041      	str	r1, [r0, #4]
 8007b0c:	0052      	lsls	r2, r2, #1
 8007b0e:	e7b8      	b.n	8007a82 <_dtoa_r+0x292>
 8007b10:	6a63      	ldr	r3, [r4, #36]	; 0x24
 8007b12:	9a01      	ldr	r2, [sp, #4]
 8007b14:	601a      	str	r2, [r3, #0]
 8007b16:	9b03      	ldr	r3, [sp, #12]
 8007b18:	2b0e      	cmp	r3, #14
 8007b1a:	f200 809d 	bhi.w	8007c58 <_dtoa_r+0x468>
 8007b1e:	2d00      	cmp	r5, #0
 8007b20:	f000 809a 	beq.w	8007c58 <_dtoa_r+0x468>
 8007b24:	9b00      	ldr	r3, [sp, #0]
 8007b26:	2b00      	cmp	r3, #0
 8007b28:	dd32      	ble.n	8007b90 <_dtoa_r+0x3a0>
 8007b2a:	4ab7      	ldr	r2, [pc, #732]	; (8007e08 <_dtoa_r+0x618>)
 8007b2c:	f003 030f 	and.w	r3, r3, #15
 8007b30:	eb02 03c3 	add.w	r3, r2, r3, lsl #3
 8007b34:	e9d3 8900 	ldrd	r8, r9, [r3]
 8007b38:	9b00      	ldr	r3, [sp, #0]
 8007b3a:	05d8      	lsls	r0, r3, #23
 8007b3c:	ea4f 1723 	mov.w	r7, r3, asr #4
 8007b40:	d516      	bpl.n	8007b70 <_dtoa_r+0x380>
 8007b42:	4bb2      	ldr	r3, [pc, #712]	; (8007e0c <_dtoa_r+0x61c>)
 8007b44:	ec51 0b19 	vmov	r0, r1, d9
 8007b48:	e9d3 2308 	ldrd	r2, r3, [r3, #32]
 8007b4c:	f7f8 fe7e 	bl	800084c <__aeabi_ddiv>
 8007b50:	f007 070f 	and.w	r7, r7, #15
 8007b54:	4682      	mov	sl, r0
 8007b56:	468b      	mov	fp, r1
 8007b58:	2503      	movs	r5, #3
 8007b5a:	4eac      	ldr	r6, [pc, #688]	; (8007e0c <_dtoa_r+0x61c>)
 8007b5c:	b957      	cbnz	r7, 8007b74 <_dtoa_r+0x384>
 8007b5e:	4642      	mov	r2, r8
 8007b60:	464b      	mov	r3, r9
 8007b62:	4650      	mov	r0, sl
 8007b64:	4659      	mov	r1, fp
 8007b66:	f7f8 fe71 	bl	800084c <__aeabi_ddiv>
 8007b6a:	4682      	mov	sl, r0
 8007b6c:	468b      	mov	fp, r1
 8007b6e:	e028      	b.n	8007bc2 <_dtoa_r+0x3d2>
 8007b70:	2502      	movs	r5, #2
 8007b72:	e7f2      	b.n	8007b5a <_dtoa_r+0x36a>
 8007b74:	07f9      	lsls	r1, r7, #31
 8007b76:	d508      	bpl.n	8007b8a <_dtoa_r+0x39a>
 8007b78:	4640      	mov	r0, r8
 8007b7a:	4649      	mov	r1, r9
 8007b7c:	e9d6 2300 	ldrd	r2, r3, [r6]
 8007b80:	f7f8 fd3a 	bl	80005f8 <__aeabi_dmul>
 8007b84:	3501      	adds	r5, #1
 8007b86:	4680      	mov	r8, r0
 8007b88:	4689      	mov	r9, r1
 8007b8a:	107f      	asrs	r7, r7, #1
 8007b8c:	3608      	adds	r6, #8
 8007b8e:	e7e5      	b.n	8007b5c <_dtoa_r+0x36c>
 8007b90:	f000 809b 	beq.w	8007cca <_dtoa_r+0x4da>
 8007b94:	9b00      	ldr	r3, [sp, #0]
 8007b96:	4f9d      	ldr	r7, [pc, #628]	; (8007e0c <_dtoa_r+0x61c>)
 8007b98:	425e      	negs	r6, r3
 8007b9a:	4b9b      	ldr	r3, [pc, #620]	; (8007e08 <_dtoa_r+0x618>)
 8007b9c:	f006 020f 	and.w	r2, r6, #15
 8007ba0:	eb03 03c2 	add.w	r3, r3, r2, lsl #3
 8007ba4:	e9d3 2300 	ldrd	r2, r3, [r3]
 8007ba8:	ec51 0b19 	vmov	r0, r1, d9
 8007bac:	f7f8 fd24 	bl	80005f8 <__aeabi_dmul>
 8007bb0:	1136      	asrs	r6, r6, #4
 8007bb2:	4682      	mov	sl, r0
 8007bb4:	468b      	mov	fp, r1
 8007bb6:	2300      	movs	r3, #0
 8007bb8:	2502      	movs	r5, #2
 8007bba:	2e00      	cmp	r6, #0
 8007bbc:	d17a      	bne.n	8007cb4 <_dtoa_r+0x4c4>
 8007bbe:	2b00      	cmp	r3, #0
 8007bc0:	d1d3      	bne.n	8007b6a <_dtoa_r+0x37a>
 8007bc2:	9b0b      	ldr	r3, [sp, #44]	; 0x2c
 8007bc4:	2b00      	cmp	r3, #0
 8007bc6:	f000 8082 	beq.w	8007cce <_dtoa_r+0x4de>
 8007bca:	4b91      	ldr	r3, [pc, #580]	; (8007e10 <_dtoa_r+0x620>)
 8007bcc:	2200      	movs	r2, #0
 8007bce:	4650      	mov	r0, sl
 8007bd0:	4659      	mov	r1, fp
 8007bd2:	f7f8 ff83 	bl	8000adc <__aeabi_dcmplt>
 8007bd6:	2800      	cmp	r0, #0
 8007bd8:	d079      	beq.n	8007cce <_dtoa_r+0x4de>
 8007bda:	9b03      	ldr	r3, [sp, #12]
 8007bdc:	2b00      	cmp	r3, #0
 8007bde:	d076      	beq.n	8007cce <_dtoa_r+0x4de>
 8007be0:	9b02      	ldr	r3, [sp, #8]
 8007be2:	2b00      	cmp	r3, #0
 8007be4:	dd36      	ble.n	8007c54 <_dtoa_r+0x464>
 8007be6:	9b00      	ldr	r3, [sp, #0]
 8007be8:	4650      	mov	r0, sl
 8007bea:	4659      	mov	r1, fp
 8007bec:	1e5f      	subs	r7, r3, #1
 8007bee:	2200      	movs	r2, #0
 8007bf0:	4b88      	ldr	r3, [pc, #544]	; (8007e14 <_dtoa_r+0x624>)
 8007bf2:	f7f8 fd01 	bl	80005f8 <__aeabi_dmul>
 8007bf6:	9e02      	ldr	r6, [sp, #8]
 8007bf8:	4682      	mov	sl, r0
 8007bfa:	468b      	mov	fp, r1
 8007bfc:	3501      	adds	r5, #1
 8007bfe:	4628      	mov	r0, r5
 8007c00:	f7f8 fc90 	bl	8000524 <__aeabi_i2d>
 8007c04:	4652      	mov	r2, sl
 8007c06:	465b      	mov	r3, fp
 8007c08:	f7f8 fcf6 	bl	80005f8 <__aeabi_dmul>
 8007c0c:	4b82      	ldr	r3, [pc, #520]	; (8007e18 <_dtoa_r+0x628>)
 8007c0e:	2200      	movs	r2, #0
 8007c10:	f7f8 fb3c 	bl	800028c <__adddf3>
 8007c14:	46d0      	mov	r8, sl
 8007c16:	46d9      	mov	r9, fp
 8007c18:	4682      	mov	sl, r0
 8007c1a:	f1a1 7b50 	sub.w	fp, r1, #54525952	; 0x3400000
 8007c1e:	2e00      	cmp	r6, #0
 8007c20:	d158      	bne.n	8007cd4 <_dtoa_r+0x4e4>
 8007c22:	4b7e      	ldr	r3, [pc, #504]	; (8007e1c <_dtoa_r+0x62c>)
 8007c24:	2200      	movs	r2, #0
 8007c26:	4640      	mov	r0, r8
 8007c28:	4649      	mov	r1, r9
 8007c2a:	f7f8 fb2d 	bl	8000288 <__aeabi_dsub>
 8007c2e:	4652      	mov	r2, sl
 8007c30:	465b      	mov	r3, fp
 8007c32:	4680      	mov	r8, r0
 8007c34:	4689      	mov	r9, r1
 8007c36:	f7f8 ff6f 	bl	8000b18 <__aeabi_dcmpgt>
 8007c3a:	2800      	cmp	r0, #0
 8007c3c:	f040 8295 	bne.w	800816a <_dtoa_r+0x97a>
 8007c40:	4652      	mov	r2, sl
 8007c42:	f10b 4300 	add.w	r3, fp, #2147483648	; 0x80000000
 8007c46:	4640      	mov	r0, r8
 8007c48:	4649      	mov	r1, r9
 8007c4a:	f7f8 ff47 	bl	8000adc <__aeabi_dcmplt>
 8007c4e:	2800      	cmp	r0, #0
 8007c50:	f040 8289 	bne.w	8008166 <_dtoa_r+0x976>
 8007c54:	ec5b ab19 	vmov	sl, fp, d9
 8007c58:	9b11      	ldr	r3, [sp, #68]	; 0x44
 8007c5a:	2b00      	cmp	r3, #0
 8007c5c:	f2c0 8148 	blt.w	8007ef0 <_dtoa_r+0x700>
 8007c60:	9a00      	ldr	r2, [sp, #0]
 8007c62:	2a0e      	cmp	r2, #14
 8007c64:	f300 8144 	bgt.w	8007ef0 <_dtoa_r+0x700>
 8007c68:	4b67      	ldr	r3, [pc, #412]	; (8007e08 <_dtoa_r+0x618>)
 8007c6a:	eb03 03c2 	add.w	r3, r3, r2, lsl #3
 8007c6e:	e9d3 8900 	ldrd	r8, r9, [r3]
 8007c72:	9b09      	ldr	r3, [sp, #36]	; 0x24
 8007c74:	2b00      	cmp	r3, #0
 8007c76:	f280 80d5 	bge.w	8007e24 <_dtoa_r+0x634>
 8007c7a:	9b03      	ldr	r3, [sp, #12]
 8007c7c:	2b00      	cmp	r3, #0
 8007c7e:	f300 80d1 	bgt.w	8007e24 <_dtoa_r+0x634>
 8007c82:	f040 826f 	bne.w	8008164 <_dtoa_r+0x974>
 8007c86:	4b65      	ldr	r3, [pc, #404]	; (8007e1c <_dtoa_r+0x62c>)
 8007c88:	2200      	movs	r2, #0
 8007c8a:	4640      	mov	r0, r8
 8007c8c:	4649      	mov	r1, r9
 8007c8e:	f7f8 fcb3 	bl	80005f8 <__aeabi_dmul>
 8007c92:	4652      	mov	r2, sl
 8007c94:	465b      	mov	r3, fp
 8007c96:	f7f8 ff35 	bl	8000b04 <__aeabi_dcmpge>
 8007c9a:	9e03      	ldr	r6, [sp, #12]
 8007c9c:	4637      	mov	r7, r6
 8007c9e:	2800      	cmp	r0, #0
 8007ca0:	f040 8245 	bne.w	800812e <_dtoa_r+0x93e>
 8007ca4:	9d01      	ldr	r5, [sp, #4]
 8007ca6:	2331      	movs	r3, #49	; 0x31
 8007ca8:	f805 3b01 	strb.w	r3, [r5], #1
 8007cac:	9b00      	ldr	r3, [sp, #0]
 8007cae:	3301      	adds	r3, #1
 8007cb0:	9300      	str	r3, [sp, #0]
 8007cb2:	e240      	b.n	8008136 <_dtoa_r+0x946>
 8007cb4:	07f2      	lsls	r2, r6, #31
 8007cb6:	d505      	bpl.n	8007cc4 <_dtoa_r+0x4d4>
 8007cb8:	e9d7 2300 	ldrd	r2, r3, [r7]
 8007cbc:	f7f8 fc9c 	bl	80005f8 <__aeabi_dmul>
 8007cc0:	3501      	adds	r5, #1
 8007cc2:	2301      	movs	r3, #1
 8007cc4:	1076      	asrs	r6, r6, #1
 8007cc6:	3708      	adds	r7, #8
 8007cc8:	e777      	b.n	8007bba <_dtoa_r+0x3ca>
 8007cca:	2502      	movs	r5, #2
 8007ccc:	e779      	b.n	8007bc2 <_dtoa_r+0x3d2>
 8007cce:	9f00      	ldr	r7, [sp, #0]
 8007cd0:	9e03      	ldr	r6, [sp, #12]
 8007cd2:	e794      	b.n	8007bfe <_dtoa_r+0x40e>
 8007cd4:	9901      	ldr	r1, [sp, #4]
 8007cd6:	4b4c      	ldr	r3, [pc, #304]	; (8007e08 <_dtoa_r+0x618>)
 8007cd8:	4431      	add	r1, r6
 8007cda:	910d      	str	r1, [sp, #52]	; 0x34
 8007cdc:	9908      	ldr	r1, [sp, #32]
 8007cde:	eb03 03c6 	add.w	r3, r3, r6, lsl #3
 8007ce2:	e953 2302 	ldrd	r2, r3, [r3, #-8]
 8007ce6:	2900      	cmp	r1, #0
 8007ce8:	d043      	beq.n	8007d72 <_dtoa_r+0x582>
 8007cea:	494d      	ldr	r1, [pc, #308]	; (8007e20 <_dtoa_r+0x630>)
 8007cec:	2000      	movs	r0, #0
 8007cee:	f7f8 fdad 	bl	800084c <__aeabi_ddiv>
 8007cf2:	4652      	mov	r2, sl
 8007cf4:	465b      	mov	r3, fp
 8007cf6:	f7f8 fac7 	bl	8000288 <__aeabi_dsub>
 8007cfa:	9d01      	ldr	r5, [sp, #4]
 8007cfc:	4682      	mov	sl, r0
 8007cfe:	468b      	mov	fp, r1
 8007d00:	4649      	mov	r1, r9
 8007d02:	4640      	mov	r0, r8
 8007d04:	f7f8 ff28 	bl	8000b58 <__aeabi_d2iz>
 8007d08:	4606      	mov	r6, r0
 8007d0a:	f7f8 fc0b 	bl	8000524 <__aeabi_i2d>
 8007d0e:	4602      	mov	r2, r0
 8007d10:	460b      	mov	r3, r1
 8007d12:	4640      	mov	r0, r8
 8007d14:	4649      	mov	r1, r9
 8007d16:	f7f8 fab7 	bl	8000288 <__aeabi_dsub>
 8007d1a:	3630      	adds	r6, #48	; 0x30
 8007d1c:	f805 6b01 	strb.w	r6, [r5], #1
 8007d20:	4652      	mov	r2, sl
 8007d22:	465b      	mov	r3, fp
 8007d24:	4680      	mov	r8, r0
 8007d26:	4689      	mov	r9, r1
 8007d28:	f7f8 fed8 	bl	8000adc <__aeabi_dcmplt>
 8007d2c:	2800      	cmp	r0, #0
 8007d2e:	d163      	bne.n	8007df8 <_dtoa_r+0x608>
 8007d30:	4642      	mov	r2, r8
 8007d32:	464b      	mov	r3, r9
 8007d34:	4936      	ldr	r1, [pc, #216]	; (8007e10 <_dtoa_r+0x620>)
 8007d36:	2000      	movs	r0, #0
 8007d38:	f7f8 faa6 	bl	8000288 <__aeabi_dsub>
 8007d3c:	4652      	mov	r2, sl
 8007d3e:	465b      	mov	r3, fp
 8007d40:	f7f8 fecc 	bl	8000adc <__aeabi_dcmplt>
 8007d44:	2800      	cmp	r0, #0
 8007d46:	f040 80b5 	bne.w	8007eb4 <_dtoa_r+0x6c4>
 8007d4a:	9b0d      	ldr	r3, [sp, #52]	; 0x34
 8007d4c:	429d      	cmp	r5, r3
 8007d4e:	d081      	beq.n	8007c54 <_dtoa_r+0x464>
 8007d50:	4b30      	ldr	r3, [pc, #192]	; (8007e14 <_dtoa_r+0x624>)
 8007d52:	2200      	movs	r2, #0
 8007d54:	4650      	mov	r0, sl
 8007d56:	4659      	mov	r1, fp
 8007d58:	f7f8 fc4e 	bl	80005f8 <__aeabi_dmul>
 8007d5c:	4b2d      	ldr	r3, [pc, #180]	; (8007e14 <_dtoa_r+0x624>)
 8007d5e:	4682      	mov	sl, r0
 8007d60:	468b      	mov	fp, r1
 8007d62:	4640      	mov	r0, r8
 8007d64:	4649      	mov	r1, r9
 8007d66:	2200      	movs	r2, #0
 8007d68:	f7f8 fc46 	bl	80005f8 <__aeabi_dmul>
 8007d6c:	4680      	mov	r8, r0
 8007d6e:	4689      	mov	r9, r1
 8007d70:	e7c6      	b.n	8007d00 <_dtoa_r+0x510>
 8007d72:	4650      	mov	r0, sl
 8007d74:	4659      	mov	r1, fp
 8007d76:	f7f8 fc3f 	bl	80005f8 <__aeabi_dmul>
 8007d7a:	9b0d      	ldr	r3, [sp, #52]	; 0x34
 8007d7c:	9d01      	ldr	r5, [sp, #4]
 8007d7e:	930f      	str	r3, [sp, #60]	; 0x3c
 8007d80:	4682      	mov	sl, r0
 8007d82:	468b      	mov	fp, r1
 8007d84:	4649      	mov	r1, r9
 8007d86:	4640      	mov	r0, r8
 8007d88:	f7f8 fee6 	bl	8000b58 <__aeabi_d2iz>
 8007d8c:	4606      	mov	r6, r0
 8007d8e:	f7f8 fbc9 	bl	8000524 <__aeabi_i2d>
 8007d92:	3630      	adds	r6, #48	; 0x30
 8007d94:	4602      	mov	r2, r0
 8007d96:	460b      	mov	r3, r1
 8007d98:	4640      	mov	r0, r8
 8007d9a:	4649      	mov	r1, r9
 8007d9c:	f7f8 fa74 	bl	8000288 <__aeabi_dsub>
 8007da0:	f805 6b01 	strb.w	r6, [r5], #1
 8007da4:	9b0d      	ldr	r3, [sp, #52]	; 0x34
 8007da6:	429d      	cmp	r5, r3
 8007da8:	4680      	mov	r8, r0
 8007daa:	4689      	mov	r9, r1
 8007dac:	f04f 0200 	mov.w	r2, #0
 8007db0:	d124      	bne.n	8007dfc <_dtoa_r+0x60c>
 8007db2:	4b1b      	ldr	r3, [pc, #108]	; (8007e20 <_dtoa_r+0x630>)
 8007db4:	4650      	mov	r0, sl
 8007db6:	4659      	mov	r1, fp
 8007db8:	f7f8 fa68 	bl	800028c <__adddf3>
 8007dbc:	4602      	mov	r2, r0
 8007dbe:	460b      	mov	r3, r1
 8007dc0:	4640      	mov	r0, r8
 8007dc2:	4649      	mov	r1, r9
 8007dc4:	f7f8 fea8 	bl	8000b18 <__aeabi_dcmpgt>
 8007dc8:	2800      	cmp	r0, #0
 8007dca:	d173      	bne.n	8007eb4 <_dtoa_r+0x6c4>
 8007dcc:	4652      	mov	r2, sl
 8007dce:	465b      	mov	r3, fp
 8007dd0:	4913      	ldr	r1, [pc, #76]	; (8007e20 <_dtoa_r+0x630>)
 8007dd2:	2000      	movs	r0, #0
 8007dd4:	f7f8 fa58 	bl	8000288 <__aeabi_dsub>
 8007dd8:	4602      	mov	r2, r0
 8007dda:	460b      	mov	r3, r1
 8007ddc:	4640      	mov	r0, r8
 8007dde:	4649      	mov	r1, r9
 8007de0:	f7f8 fe7c 	bl	8000adc <__aeabi_dcmplt>
 8007de4:	2800      	cmp	r0, #0
 8007de6:	f43f af35 	beq.w	8007c54 <_dtoa_r+0x464>
 8007dea:	9d0f      	ldr	r5, [sp, #60]	; 0x3c
 8007dec:	1e6b      	subs	r3, r5, #1
 8007dee:	930f      	str	r3, [sp, #60]	; 0x3c
 8007df0:	f815 3c01 	ldrb.w	r3, [r5, #-1]
 8007df4:	2b30      	cmp	r3, #48	; 0x30
 8007df6:	d0f8      	beq.n	8007dea <_dtoa_r+0x5fa>
 8007df8:	9700      	str	r7, [sp, #0]
 8007dfa:	e049      	b.n	8007e90 <_dtoa_r+0x6a0>
 8007dfc:	4b05      	ldr	r3, [pc, #20]	; (8007e14 <_dtoa_r+0x624>)
 8007dfe:	f7f8 fbfb 	bl	80005f8 <__aeabi_dmul>
 8007e02:	4680      	mov	r8, r0
 8007e04:	4689      	mov	r9, r1
 8007e06:	e7bd      	b.n	8007d84 <_dtoa_r+0x594>
 8007e08:	0800be20 	.word	0x0800be20
 8007e0c:	0800bdf8 	.word	0x0800bdf8
 8007e10:	3ff00000 	.word	0x3ff00000
 8007e14:	40240000 	.word	0x40240000
 8007e18:	401c0000 	.word	0x401c0000
 8007e1c:	40140000 	.word	0x40140000
 8007e20:	3fe00000 	.word	0x3fe00000
 8007e24:	9d01      	ldr	r5, [sp, #4]
 8007e26:	4656      	mov	r6, sl
 8007e28:	465f      	mov	r7, fp
 8007e2a:	4642      	mov	r2, r8
 8007e2c:	464b      	mov	r3, r9
 8007e2e:	4630      	mov	r0, r6
 8007e30:	4639      	mov	r1, r7
 8007e32:	f7f8 fd0b 	bl	800084c <__aeabi_ddiv>
 8007e36:	f7f8 fe8f 	bl	8000b58 <__aeabi_d2iz>
 8007e3a:	4682      	mov	sl, r0
 8007e3c:	f7f8 fb72 	bl	8000524 <__aeabi_i2d>
 8007e40:	4642      	mov	r2, r8
 8007e42:	464b      	mov	r3, r9
 8007e44:	f7f8 fbd8 	bl	80005f8 <__aeabi_dmul>
 8007e48:	4602      	mov	r2, r0
 8007e4a:	460b      	mov	r3, r1
 8007e4c:	4630      	mov	r0, r6
 8007e4e:	4639      	mov	r1, r7
 8007e50:	f10a 0630 	add.w	r6, sl, #48	; 0x30
 8007e54:	f7f8 fa18 	bl	8000288 <__aeabi_dsub>
 8007e58:	f805 6b01 	strb.w	r6, [r5], #1
 8007e5c:	9e01      	ldr	r6, [sp, #4]
 8007e5e:	9f03      	ldr	r7, [sp, #12]
 8007e60:	1bae      	subs	r6, r5, r6
 8007e62:	42b7      	cmp	r7, r6
 8007e64:	4602      	mov	r2, r0
 8007e66:	460b      	mov	r3, r1
 8007e68:	d135      	bne.n	8007ed6 <_dtoa_r+0x6e6>
 8007e6a:	f7f8 fa0f 	bl	800028c <__adddf3>
 8007e6e:	4642      	mov	r2, r8
 8007e70:	464b      	mov	r3, r9
 8007e72:	4606      	mov	r6, r0
 8007e74:	460f      	mov	r7, r1
 8007e76:	f7f8 fe4f 	bl	8000b18 <__aeabi_dcmpgt>
 8007e7a:	b9d0      	cbnz	r0, 8007eb2 <_dtoa_r+0x6c2>
 8007e7c:	4642      	mov	r2, r8
 8007e7e:	464b      	mov	r3, r9
 8007e80:	4630      	mov	r0, r6
 8007e82:	4639      	mov	r1, r7
 8007e84:	f7f8 fe20 	bl	8000ac8 <__aeabi_dcmpeq>
 8007e88:	b110      	cbz	r0, 8007e90 <_dtoa_r+0x6a0>
 8007e8a:	f01a 0f01 	tst.w	sl, #1
 8007e8e:	d110      	bne.n	8007eb2 <_dtoa_r+0x6c2>
 8007e90:	4620      	mov	r0, r4
 8007e92:	ee18 1a10 	vmov	r1, s16
 8007e96:	f000 faf3 	bl	8008480 <_Bfree>
 8007e9a:	2300      	movs	r3, #0
 8007e9c:	9800      	ldr	r0, [sp, #0]
 8007e9e:	702b      	strb	r3, [r5, #0]
 8007ea0:	9b0c      	ldr	r3, [sp, #48]	; 0x30
 8007ea2:	3001      	adds	r0, #1
 8007ea4:	6018      	str	r0, [r3, #0]
 8007ea6:	9b21      	ldr	r3, [sp, #132]	; 0x84
 8007ea8:	2b00      	cmp	r3, #0
 8007eaa:	f43f acf1 	beq.w	8007890 <_dtoa_r+0xa0>
 8007eae:	601d      	str	r5, [r3, #0]
 8007eb0:	e4ee      	b.n	8007890 <_dtoa_r+0xa0>
 8007eb2:	9f00      	ldr	r7, [sp, #0]
 8007eb4:	462b      	mov	r3, r5
 8007eb6:	461d      	mov	r5, r3
 8007eb8:	f813 2d01 	ldrb.w	r2, [r3, #-1]!
 8007ebc:	2a39      	cmp	r2, #57	; 0x39
 8007ebe:	d106      	bne.n	8007ece <_dtoa_r+0x6de>
 8007ec0:	9a01      	ldr	r2, [sp, #4]
 8007ec2:	429a      	cmp	r2, r3
 8007ec4:	d1f7      	bne.n	8007eb6 <_dtoa_r+0x6c6>
 8007ec6:	9901      	ldr	r1, [sp, #4]
 8007ec8:	2230      	movs	r2, #48	; 0x30
 8007eca:	3701      	adds	r7, #1
 8007ecc:	700a      	strb	r2, [r1, #0]
 8007ece:	781a      	ldrb	r2, [r3, #0]
 8007ed0:	3201      	adds	r2, #1
 8007ed2:	701a      	strb	r2, [r3, #0]
 8007ed4:	e790      	b.n	8007df8 <_dtoa_r+0x608>
 8007ed6:	4ba6      	ldr	r3, [pc, #664]	; (8008170 <_dtoa_r+0x980>)
 8007ed8:	2200      	movs	r2, #0
 8007eda:	f7f8 fb8d 	bl	80005f8 <__aeabi_dmul>
 8007ede:	2200      	movs	r2, #0
 8007ee0:	2300      	movs	r3, #0
 8007ee2:	4606      	mov	r6, r0
 8007ee4:	460f      	mov	r7, r1
 8007ee6:	f7f8 fdef 	bl	8000ac8 <__aeabi_dcmpeq>
 8007eea:	2800      	cmp	r0, #0
 8007eec:	d09d      	beq.n	8007e2a <_dtoa_r+0x63a>
 8007eee:	e7cf      	b.n	8007e90 <_dtoa_r+0x6a0>
 8007ef0:	9a08      	ldr	r2, [sp, #32]
 8007ef2:	2a00      	cmp	r2, #0
 8007ef4:	f000 80d7 	beq.w	80080a6 <_dtoa_r+0x8b6>
 8007ef8:	9a06      	ldr	r2, [sp, #24]
 8007efa:	2a01      	cmp	r2, #1
 8007efc:	f300 80ba 	bgt.w	8008074 <_dtoa_r+0x884>
 8007f00:	9a0e      	ldr	r2, [sp, #56]	; 0x38
 8007f02:	2a00      	cmp	r2, #0
 8007f04:	f000 80b2 	beq.w	800806c <_dtoa_r+0x87c>
 8007f08:	f203 4333 	addw	r3, r3, #1075	; 0x433
 8007f0c:	9e07      	ldr	r6, [sp, #28]
 8007f0e:	9d04      	ldr	r5, [sp, #16]
 8007f10:	9a04      	ldr	r2, [sp, #16]
 8007f12:	441a      	add	r2, r3
 8007f14:	9204      	str	r2, [sp, #16]
 8007f16:	9a05      	ldr	r2, [sp, #20]
 8007f18:	2101      	movs	r1, #1
 8007f1a:	441a      	add	r2, r3
 8007f1c:	4620      	mov	r0, r4
 8007f1e:	9205      	str	r2, [sp, #20]
 8007f20:	f000 fb66 	bl	80085f0 <__i2b>
 8007f24:	4607      	mov	r7, r0
 8007f26:	2d00      	cmp	r5, #0
 8007f28:	dd0c      	ble.n	8007f44 <_dtoa_r+0x754>
 8007f2a:	9b05      	ldr	r3, [sp, #20]
 8007f2c:	2b00      	cmp	r3, #0
 8007f2e:	dd09      	ble.n	8007f44 <_dtoa_r+0x754>
 8007f30:	42ab      	cmp	r3, r5
 8007f32:	9a04      	ldr	r2, [sp, #16]
 8007f34:	bfa8      	it	ge
 8007f36:	462b      	movge	r3, r5
 8007f38:	1ad2      	subs	r2, r2, r3
 8007f3a:	9204      	str	r2, [sp, #16]
 8007f3c:	9a05      	ldr	r2, [sp, #20]
 8007f3e:	1aed      	subs	r5, r5, r3
 8007f40:	1ad3      	subs	r3, r2, r3
 8007f42:	9305      	str	r3, [sp, #20]
 8007f44:	9b07      	ldr	r3, [sp, #28]
 8007f46:	b31b      	cbz	r3, 8007f90 <_dtoa_r+0x7a0>
 8007f48:	9b08      	ldr	r3, [sp, #32]
 8007f4a:	2b00      	cmp	r3, #0
 8007f4c:	f000 80af 	beq.w	80080ae <_dtoa_r+0x8be>
 8007f50:	2e00      	cmp	r6, #0
 8007f52:	dd13      	ble.n	8007f7c <_dtoa_r+0x78c>
 8007f54:	4639      	mov	r1, r7
 8007f56:	4632      	mov	r2, r6
 8007f58:	4620      	mov	r0, r4
 8007f5a:	f000 fc09 	bl	8008770 <__pow5mult>
 8007f5e:	ee18 2a10 	vmov	r2, s16
 8007f62:	4601      	mov	r1, r0
 8007f64:	4607      	mov	r7, r0
 8007f66:	4620      	mov	r0, r4
 8007f68:	f000 fb58 	bl	800861c <__multiply>
 8007f6c:	ee18 1a10 	vmov	r1, s16
 8007f70:	4680      	mov	r8, r0
 8007f72:	4620      	mov	r0, r4
 8007f74:	f000 fa84 	bl	8008480 <_Bfree>
 8007f78:	ee08 8a10 	vmov	s16, r8
 8007f7c:	9b07      	ldr	r3, [sp, #28]
 8007f7e:	1b9a      	subs	r2, r3, r6
 8007f80:	d006      	beq.n	8007f90 <_dtoa_r+0x7a0>
 8007f82:	ee18 1a10 	vmov	r1, s16
 8007f86:	4620      	mov	r0, r4
 8007f88:	f000 fbf2 	bl	8008770 <__pow5mult>
 8007f8c:	ee08 0a10 	vmov	s16, r0
 8007f90:	2101      	movs	r1, #1
 8007f92:	4620      	mov	r0, r4
 8007f94:	f000 fb2c 	bl	80085f0 <__i2b>
 8007f98:	9b0a      	ldr	r3, [sp, #40]	; 0x28
 8007f9a:	2b00      	cmp	r3, #0
 8007f9c:	4606      	mov	r6, r0
 8007f9e:	f340 8088 	ble.w	80080b2 <_dtoa_r+0x8c2>
 8007fa2:	461a      	mov	r2, r3
 8007fa4:	4601      	mov	r1, r0
 8007fa6:	4620      	mov	r0, r4
 8007fa8:	f000 fbe2 	bl	8008770 <__pow5mult>
 8007fac:	9b06      	ldr	r3, [sp, #24]
 8007fae:	2b01      	cmp	r3, #1
 8007fb0:	4606      	mov	r6, r0
 8007fb2:	f340 8081 	ble.w	80080b8 <_dtoa_r+0x8c8>
 8007fb6:	f04f 0800 	mov.w	r8, #0
 8007fba:	6933      	ldr	r3, [r6, #16]
 8007fbc:	eb06 0383 	add.w	r3, r6, r3, lsl #2
 8007fc0:	6918      	ldr	r0, [r3, #16]
 8007fc2:	f000 fac5 	bl	8008550 <__hi0bits>
 8007fc6:	f1c0 0020 	rsb	r0, r0, #32
 8007fca:	9b05      	ldr	r3, [sp, #20]
 8007fcc:	4418      	add	r0, r3
 8007fce:	f010 001f 	ands.w	r0, r0, #31
 8007fd2:	f000 8092 	beq.w	80080fa <_dtoa_r+0x90a>
 8007fd6:	f1c0 0320 	rsb	r3, r0, #32
 8007fda:	2b04      	cmp	r3, #4
 8007fdc:	f340 808a 	ble.w	80080f4 <_dtoa_r+0x904>
 8007fe0:	f1c0 001c 	rsb	r0, r0, #28
 8007fe4:	9b04      	ldr	r3, [sp, #16]
 8007fe6:	4403      	add	r3, r0
 8007fe8:	9304      	str	r3, [sp, #16]
 8007fea:	9b05      	ldr	r3, [sp, #20]
 8007fec:	4403      	add	r3, r0
 8007fee:	4405      	add	r5, r0
 8007ff0:	9305      	str	r3, [sp, #20]
 8007ff2:	9b04      	ldr	r3, [sp, #16]
 8007ff4:	2b00      	cmp	r3, #0
 8007ff6:	dd07      	ble.n	8008008 <_dtoa_r+0x818>
 8007ff8:	ee18 1a10 	vmov	r1, s16
 8007ffc:	461a      	mov	r2, r3
 8007ffe:	4620      	mov	r0, r4
 8008000:	f000 fc10 	bl	8008824 <__lshift>
 8008004:	ee08 0a10 	vmov	s16, r0
 8008008:	9b05      	ldr	r3, [sp, #20]
 800800a:	2b00      	cmp	r3, #0
 800800c:	dd05      	ble.n	800801a <_dtoa_r+0x82a>
 800800e:	4631      	mov	r1, r6
 8008010:	461a      	mov	r2, r3
 8008012:	4620      	mov	r0, r4
 8008014:	f000 fc06 	bl	8008824 <__lshift>
 8008018:	4606      	mov	r6, r0
 800801a:	9b0b      	ldr	r3, [sp, #44]	; 0x2c
 800801c:	2b00      	cmp	r3, #0
 800801e:	d06e      	beq.n	80080fe <_dtoa_r+0x90e>
 8008020:	ee18 0a10 	vmov	r0, s16
 8008024:	4631      	mov	r1, r6
 8008026:	f000 fc6d 	bl	8008904 <__mcmp>
 800802a:	2800      	cmp	r0, #0
 800802c:	da67      	bge.n	80080fe <_dtoa_r+0x90e>
 800802e:	9b00      	ldr	r3, [sp, #0]
 8008030:	3b01      	subs	r3, #1
 8008032:	ee18 1a10 	vmov	r1, s16
 8008036:	9300      	str	r3, [sp, #0]
 8008038:	220a      	movs	r2, #10
 800803a:	2300      	movs	r3, #0
 800803c:	4620      	mov	r0, r4
 800803e:	f000 fa41 	bl	80084c4 <__multadd>
 8008042:	9b08      	ldr	r3, [sp, #32]
 8008044:	ee08 0a10 	vmov	s16, r0
 8008048:	2b00      	cmp	r3, #0
 800804a:	f000 81b1 	beq.w	80083b0 <_dtoa_r+0xbc0>
 800804e:	2300      	movs	r3, #0
 8008050:	4639      	mov	r1, r7
 8008052:	220a      	movs	r2, #10
 8008054:	4620      	mov	r0, r4
 8008056:	f000 fa35 	bl	80084c4 <__multadd>
 800805a:	9b02      	ldr	r3, [sp, #8]
 800805c:	2b00      	cmp	r3, #0
 800805e:	4607      	mov	r7, r0
 8008060:	f300 808e 	bgt.w	8008180 <_dtoa_r+0x990>
 8008064:	9b06      	ldr	r3, [sp, #24]
 8008066:	2b02      	cmp	r3, #2
 8008068:	dc51      	bgt.n	800810e <_dtoa_r+0x91e>
 800806a:	e089      	b.n	8008180 <_dtoa_r+0x990>
 800806c:	9b10      	ldr	r3, [sp, #64]	; 0x40
 800806e:	f1c3 0336 	rsb	r3, r3, #54	; 0x36
 8008072:	e74b      	b.n	8007f0c <_dtoa_r+0x71c>
 8008074:	9b03      	ldr	r3, [sp, #12]
 8008076:	1e5e      	subs	r6, r3, #1
 8008078:	9b07      	ldr	r3, [sp, #28]
 800807a:	42b3      	cmp	r3, r6
 800807c:	bfbf      	itttt	lt
 800807e:	9b07      	ldrlt	r3, [sp, #28]
 8008080:	9607      	strlt	r6, [sp, #28]
 8008082:	1af2      	sublt	r2, r6, r3
 8008084:	9b0a      	ldrlt	r3, [sp, #40]	; 0x28
 8008086:	bfb6      	itet	lt
 8008088:	189b      	addlt	r3, r3, r2
 800808a:	1b9e      	subge	r6, r3, r6
 800808c:	930a      	strlt	r3, [sp, #40]	; 0x28
 800808e:	9b03      	ldr	r3, [sp, #12]
 8008090:	bfb8      	it	lt
 8008092:	2600      	movlt	r6, #0
 8008094:	2b00      	cmp	r3, #0
 8008096:	bfb7      	itett	lt
 8008098:	e9dd 2303 	ldrdlt	r2, r3, [sp, #12]
 800809c:	e9dd 3503 	ldrdge	r3, r5, [sp, #12]
 80080a0:	1a9d      	sublt	r5, r3, r2
 80080a2:	2300      	movlt	r3, #0
 80080a4:	e734      	b.n	8007f10 <_dtoa_r+0x720>
 80080a6:	9e07      	ldr	r6, [sp, #28]
 80080a8:	9d04      	ldr	r5, [sp, #16]
 80080aa:	9f08      	ldr	r7, [sp, #32]
 80080ac:	e73b      	b.n	8007f26 <_dtoa_r+0x736>
 80080ae:	9a07      	ldr	r2, [sp, #28]
 80080b0:	e767      	b.n	8007f82 <_dtoa_r+0x792>
 80080b2:	9b06      	ldr	r3, [sp, #24]
 80080b4:	2b01      	cmp	r3, #1
 80080b6:	dc18      	bgt.n	80080ea <_dtoa_r+0x8fa>
 80080b8:	f1ba 0f00 	cmp.w	sl, #0
 80080bc:	d115      	bne.n	80080ea <_dtoa_r+0x8fa>
 80080be:	f3cb 0313 	ubfx	r3, fp, #0, #20
 80080c2:	b993      	cbnz	r3, 80080ea <_dtoa_r+0x8fa>
 80080c4:	f02b 4300 	bic.w	r3, fp, #2147483648	; 0x80000000
 80080c8:	0d1b      	lsrs	r3, r3, #20
 80080ca:	051b      	lsls	r3, r3, #20
 80080cc:	b183      	cbz	r3, 80080f0 <_dtoa_r+0x900>
 80080ce:	9b04      	ldr	r3, [sp, #16]
 80080d0:	3301      	adds	r3, #1
 80080d2:	9304      	str	r3, [sp, #16]
 80080d4:	9b05      	ldr	r3, [sp, #20]
 80080d6:	3301      	adds	r3, #1
 80080d8:	9305      	str	r3, [sp, #20]
 80080da:	f04f 0801 	mov.w	r8, #1
 80080de:	9b0a      	ldr	r3, [sp, #40]	; 0x28
 80080e0:	2b00      	cmp	r3, #0
 80080e2:	f47f af6a 	bne.w	8007fba <_dtoa_r+0x7ca>
 80080e6:	2001      	movs	r0, #1
 80080e8:	e76f      	b.n	8007fca <_dtoa_r+0x7da>
 80080ea:	f04f 0800 	mov.w	r8, #0
 80080ee:	e7f6      	b.n	80080de <_dtoa_r+0x8ee>
 80080f0:	4698      	mov	r8, r3
 80080f2:	e7f4      	b.n	80080de <_dtoa_r+0x8ee>
 80080f4:	f43f af7d 	beq.w	8007ff2 <_dtoa_r+0x802>
 80080f8:	4618      	mov	r0, r3
 80080fa:	301c      	adds	r0, #28
 80080fc:	e772      	b.n	8007fe4 <_dtoa_r+0x7f4>
 80080fe:	9b03      	ldr	r3, [sp, #12]
 8008100:	2b00      	cmp	r3, #0
 8008102:	dc37      	bgt.n	8008174 <_dtoa_r+0x984>
 8008104:	9b06      	ldr	r3, [sp, #24]
 8008106:	2b02      	cmp	r3, #2
 8008108:	dd34      	ble.n	8008174 <_dtoa_r+0x984>
 800810a:	9b03      	ldr	r3, [sp, #12]
 800810c:	9302      	str	r3, [sp, #8]
 800810e:	9b02      	ldr	r3, [sp, #8]
 8008110:	b96b      	cbnz	r3, 800812e <_dtoa_r+0x93e>
 8008112:	4631      	mov	r1, r6
 8008114:	2205      	movs	r2, #5
 8008116:	4620      	mov	r0, r4
 8008118:	f000 f9d4 	bl	80084c4 <__multadd>
 800811c:	4601      	mov	r1, r0
 800811e:	4606      	mov	r6, r0
 8008120:	ee18 0a10 	vmov	r0, s16
 8008124:	f000 fbee 	bl	8008904 <__mcmp>
 8008128:	2800      	cmp	r0, #0
 800812a:	f73f adbb 	bgt.w	8007ca4 <_dtoa_r+0x4b4>
 800812e:	9b09      	ldr	r3, [sp, #36]	; 0x24
 8008130:	9d01      	ldr	r5, [sp, #4]
 8008132:	43db      	mvns	r3, r3
 8008134:	9300      	str	r3, [sp, #0]
 8008136:	f04f 0800 	mov.w	r8, #0
 800813a:	4631      	mov	r1, r6
 800813c:	4620      	mov	r0, r4
 800813e:	f000 f99f 	bl	8008480 <_Bfree>
 8008142:	2f00      	cmp	r7, #0
 8008144:	f43f aea4 	beq.w	8007e90 <_dtoa_r+0x6a0>
 8008148:	f1b8 0f00 	cmp.w	r8, #0
 800814c:	d005      	beq.n	800815a <_dtoa_r+0x96a>
 800814e:	45b8      	cmp	r8, r7
 8008150:	d003      	beq.n	800815a <_dtoa_r+0x96a>
 8008152:	4641      	mov	r1, r8
 8008154:	4620      	mov	r0, r4
 8008156:	f000 f993 	bl	8008480 <_Bfree>
 800815a:	4639      	mov	r1, r7
 800815c:	4620      	mov	r0, r4
 800815e:	f000 f98f 	bl	8008480 <_Bfree>
 8008162:	e695      	b.n	8007e90 <_dtoa_r+0x6a0>
 8008164:	2600      	movs	r6, #0
 8008166:	4637      	mov	r7, r6
 8008168:	e7e1      	b.n	800812e <_dtoa_r+0x93e>
 800816a:	9700      	str	r7, [sp, #0]
 800816c:	4637      	mov	r7, r6
 800816e:	e599      	b.n	8007ca4 <_dtoa_r+0x4b4>
 8008170:	40240000 	.word	0x40240000
 8008174:	9b08      	ldr	r3, [sp, #32]
 8008176:	2b00      	cmp	r3, #0
 8008178:	f000 80ca 	beq.w	8008310 <_dtoa_r+0xb20>
 800817c:	9b03      	ldr	r3, [sp, #12]
 800817e:	9302      	str	r3, [sp, #8]
 8008180:	2d00      	cmp	r5, #0
 8008182:	dd05      	ble.n	8008190 <_dtoa_r+0x9a0>
 8008184:	4639      	mov	r1, r7
 8008186:	462a      	mov	r2, r5
 8008188:	4620      	mov	r0, r4
 800818a:	f000 fb4b 	bl	8008824 <__lshift>
 800818e:	4607      	mov	r7, r0
 8008190:	f1b8 0f00 	cmp.w	r8, #0
 8008194:	d05b      	beq.n	800824e <_dtoa_r+0xa5e>
 8008196:	6879      	ldr	r1, [r7, #4]
 8008198:	4620      	mov	r0, r4
 800819a:	f000 f931 	bl	8008400 <_Balloc>
 800819e:	4605      	mov	r5, r0
 80081a0:	b928      	cbnz	r0, 80081ae <_dtoa_r+0x9be>
 80081a2:	4b87      	ldr	r3, [pc, #540]	; (80083c0 <_dtoa_r+0xbd0>)
 80081a4:	4602      	mov	r2, r0
 80081a6:	f240 21ea 	movw	r1, #746	; 0x2ea
 80081aa:	f7ff bb3b 	b.w	8007824 <_dtoa_r+0x34>
 80081ae:	693a      	ldr	r2, [r7, #16]
 80081b0:	3202      	adds	r2, #2
 80081b2:	0092      	lsls	r2, r2, #2
 80081b4:	f107 010c 	add.w	r1, r7, #12
 80081b8:	300c      	adds	r0, #12
 80081ba:	f000 f913 	bl	80083e4 <memcpy>
 80081be:	2201      	movs	r2, #1
 80081c0:	4629      	mov	r1, r5
 80081c2:	4620      	mov	r0, r4
 80081c4:	f000 fb2e 	bl	8008824 <__lshift>
 80081c8:	9b01      	ldr	r3, [sp, #4]
 80081ca:	f103 0901 	add.w	r9, r3, #1
 80081ce:	e9dd 2301 	ldrd	r2, r3, [sp, #4]
 80081d2:	4413      	add	r3, r2
 80081d4:	9305      	str	r3, [sp, #20]
 80081d6:	f00a 0301 	and.w	r3, sl, #1
 80081da:	46b8      	mov	r8, r7
 80081dc:	9304      	str	r3, [sp, #16]
 80081de:	4607      	mov	r7, r0
 80081e0:	4631      	mov	r1, r6
 80081e2:	ee18 0a10 	vmov	r0, s16
 80081e6:	f7ff fa77 	bl	80076d8 <quorem>
 80081ea:	4641      	mov	r1, r8
 80081ec:	9002      	str	r0, [sp, #8]
 80081ee:	f100 0a30 	add.w	sl, r0, #48	; 0x30
 80081f2:	ee18 0a10 	vmov	r0, s16
 80081f6:	f000 fb85 	bl	8008904 <__mcmp>
 80081fa:	463a      	mov	r2, r7
 80081fc:	9003      	str	r0, [sp, #12]
 80081fe:	4631      	mov	r1, r6
 8008200:	4620      	mov	r0, r4
 8008202:	f000 fb9b 	bl	800893c <__mdiff>
 8008206:	68c2      	ldr	r2, [r0, #12]
 8008208:	f109 3bff 	add.w	fp, r9, #4294967295
 800820c:	4605      	mov	r5, r0
 800820e:	bb02      	cbnz	r2, 8008252 <_dtoa_r+0xa62>
 8008210:	4601      	mov	r1, r0
 8008212:	ee18 0a10 	vmov	r0, s16
 8008216:	f000 fb75 	bl	8008904 <__mcmp>
 800821a:	4602      	mov	r2, r0
 800821c:	4629      	mov	r1, r5
 800821e:	4620      	mov	r0, r4
 8008220:	9207      	str	r2, [sp, #28]
 8008222:	f000 f92d 	bl	8008480 <_Bfree>
 8008226:	e9dd 3206 	ldrd	r3, r2, [sp, #24]
 800822a:	ea43 0102 	orr.w	r1, r3, r2
 800822e:	9b04      	ldr	r3, [sp, #16]
 8008230:	430b      	orrs	r3, r1
 8008232:	464d      	mov	r5, r9
 8008234:	d10f      	bne.n	8008256 <_dtoa_r+0xa66>
 8008236:	f1ba 0f39 	cmp.w	sl, #57	; 0x39
 800823a:	d02a      	beq.n	8008292 <_dtoa_r+0xaa2>
 800823c:	9b03      	ldr	r3, [sp, #12]
 800823e:	2b00      	cmp	r3, #0
 8008240:	dd02      	ble.n	8008248 <_dtoa_r+0xa58>
 8008242:	9b02      	ldr	r3, [sp, #8]
 8008244:	f103 0a31 	add.w	sl, r3, #49	; 0x31
 8008248:	f88b a000 	strb.w	sl, [fp]
 800824c:	e775      	b.n	800813a <_dtoa_r+0x94a>
 800824e:	4638      	mov	r0, r7
 8008250:	e7ba      	b.n	80081c8 <_dtoa_r+0x9d8>
 8008252:	2201      	movs	r2, #1
 8008254:	e7e2      	b.n	800821c <_dtoa_r+0xa2c>
 8008256:	9b03      	ldr	r3, [sp, #12]
 8008258:	2b00      	cmp	r3, #0
 800825a:	db04      	blt.n	8008266 <_dtoa_r+0xa76>
 800825c:	9906      	ldr	r1, [sp, #24]
 800825e:	430b      	orrs	r3, r1
 8008260:	9904      	ldr	r1, [sp, #16]
 8008262:	430b      	orrs	r3, r1
 8008264:	d122      	bne.n	80082ac <_dtoa_r+0xabc>
 8008266:	2a00      	cmp	r2, #0
 8008268:	ddee      	ble.n	8008248 <_dtoa_r+0xa58>
 800826a:	ee18 1a10 	vmov	r1, s16
 800826e:	2201      	movs	r2, #1
 8008270:	4620      	mov	r0, r4
 8008272:	f000 fad7 	bl	8008824 <__lshift>
 8008276:	4631      	mov	r1, r6
 8008278:	ee08 0a10 	vmov	s16, r0
 800827c:	f000 fb42 	bl	8008904 <__mcmp>
 8008280:	2800      	cmp	r0, #0
 8008282:	dc03      	bgt.n	800828c <_dtoa_r+0xa9c>
 8008284:	d1e0      	bne.n	8008248 <_dtoa_r+0xa58>
 8008286:	f01a 0f01 	tst.w	sl, #1
 800828a:	d0dd      	beq.n	8008248 <_dtoa_r+0xa58>
 800828c:	f1ba 0f39 	cmp.w	sl, #57	; 0x39
 8008290:	d1d7      	bne.n	8008242 <_dtoa_r+0xa52>
 8008292:	2339      	movs	r3, #57	; 0x39
 8008294:	f88b 3000 	strb.w	r3, [fp]
 8008298:	462b      	mov	r3, r5
 800829a:	461d      	mov	r5, r3
 800829c:	3b01      	subs	r3, #1
 800829e:	f815 2c01 	ldrb.w	r2, [r5, #-1]
 80082a2:	2a39      	cmp	r2, #57	; 0x39
 80082a4:	d071      	beq.n	800838a <_dtoa_r+0xb9a>
 80082a6:	3201      	adds	r2, #1
 80082a8:	701a      	strb	r2, [r3, #0]
 80082aa:	e746      	b.n	800813a <_dtoa_r+0x94a>
 80082ac:	2a00      	cmp	r2, #0
 80082ae:	dd07      	ble.n	80082c0 <_dtoa_r+0xad0>
 80082b0:	f1ba 0f39 	cmp.w	sl, #57	; 0x39
 80082b4:	d0ed      	beq.n	8008292 <_dtoa_r+0xaa2>
 80082b6:	f10a 0301 	add.w	r3, sl, #1
 80082ba:	f88b 3000 	strb.w	r3, [fp]
 80082be:	e73c      	b.n	800813a <_dtoa_r+0x94a>
 80082c0:	9b05      	ldr	r3, [sp, #20]
 80082c2:	f809 ac01 	strb.w	sl, [r9, #-1]
 80082c6:	4599      	cmp	r9, r3
 80082c8:	d047      	beq.n	800835a <_dtoa_r+0xb6a>
 80082ca:	ee18 1a10 	vmov	r1, s16
 80082ce:	2300      	movs	r3, #0
 80082d0:	220a      	movs	r2, #10
 80082d2:	4620      	mov	r0, r4
 80082d4:	f000 f8f6 	bl	80084c4 <__multadd>
 80082d8:	45b8      	cmp	r8, r7
 80082da:	ee08 0a10 	vmov	s16, r0
 80082de:	f04f 0300 	mov.w	r3, #0
 80082e2:	f04f 020a 	mov.w	r2, #10
 80082e6:	4641      	mov	r1, r8
 80082e8:	4620      	mov	r0, r4
 80082ea:	d106      	bne.n	80082fa <_dtoa_r+0xb0a>
 80082ec:	f000 f8ea 	bl	80084c4 <__multadd>
 80082f0:	4680      	mov	r8, r0
 80082f2:	4607      	mov	r7, r0
 80082f4:	f109 0901 	add.w	r9, r9, #1
 80082f8:	e772      	b.n	80081e0 <_dtoa_r+0x9f0>
 80082fa:	f000 f8e3 	bl	80084c4 <__multadd>
 80082fe:	4639      	mov	r1, r7
 8008300:	4680      	mov	r8, r0
 8008302:	2300      	movs	r3, #0
 8008304:	220a      	movs	r2, #10
 8008306:	4620      	mov	r0, r4
 8008308:	f000 f8dc 	bl	80084c4 <__multadd>
 800830c:	4607      	mov	r7, r0
 800830e:	e7f1      	b.n	80082f4 <_dtoa_r+0xb04>
 8008310:	9b03      	ldr	r3, [sp, #12]
 8008312:	9302      	str	r3, [sp, #8]
 8008314:	9d01      	ldr	r5, [sp, #4]
 8008316:	ee18 0a10 	vmov	r0, s16
 800831a:	4631      	mov	r1, r6
 800831c:	f7ff f9dc 	bl	80076d8 <quorem>
 8008320:	f100 0a30 	add.w	sl, r0, #48	; 0x30
 8008324:	9b01      	ldr	r3, [sp, #4]
 8008326:	f805 ab01 	strb.w	sl, [r5], #1
 800832a:	1aea      	subs	r2, r5, r3
 800832c:	9b02      	ldr	r3, [sp, #8]
 800832e:	4293      	cmp	r3, r2
 8008330:	dd09      	ble.n	8008346 <_dtoa_r+0xb56>
 8008332:	ee18 1a10 	vmov	r1, s16
 8008336:	2300      	movs	r3, #0
 8008338:	220a      	movs	r2, #10
 800833a:	4620      	mov	r0, r4
 800833c:	f000 f8c2 	bl	80084c4 <__multadd>
 8008340:	ee08 0a10 	vmov	s16, r0
 8008344:	e7e7      	b.n	8008316 <_dtoa_r+0xb26>
 8008346:	9b02      	ldr	r3, [sp, #8]
 8008348:	2b00      	cmp	r3, #0
 800834a:	bfc8      	it	gt
 800834c:	461d      	movgt	r5, r3
 800834e:	9b01      	ldr	r3, [sp, #4]
 8008350:	bfd8      	it	le
 8008352:	2501      	movle	r5, #1
 8008354:	441d      	add	r5, r3
 8008356:	f04f 0800 	mov.w	r8, #0
 800835a:	ee18 1a10 	vmov	r1, s16
 800835e:	2201      	movs	r2, #1
 8008360:	4620      	mov	r0, r4
 8008362:	f000 fa5f 	bl	8008824 <__lshift>
 8008366:	4631      	mov	r1, r6
 8008368:	ee08 0a10 	vmov	s16, r0
 800836c:	f000 faca 	bl	8008904 <__mcmp>
 8008370:	2800      	cmp	r0, #0
 8008372:	dc91      	bgt.n	8008298 <_dtoa_r+0xaa8>
 8008374:	d102      	bne.n	800837c <_dtoa_r+0xb8c>
 8008376:	f01a 0f01 	tst.w	sl, #1
 800837a:	d18d      	bne.n	8008298 <_dtoa_r+0xaa8>
 800837c:	462b      	mov	r3, r5
 800837e:	461d      	mov	r5, r3
 8008380:	f813 2d01 	ldrb.w	r2, [r3, #-1]!
 8008384:	2a30      	cmp	r2, #48	; 0x30
 8008386:	d0fa      	beq.n	800837e <_dtoa_r+0xb8e>
 8008388:	e6d7      	b.n	800813a <_dtoa_r+0x94a>
 800838a:	9a01      	ldr	r2, [sp, #4]
 800838c:	429a      	cmp	r2, r3
 800838e:	d184      	bne.n	800829a <_dtoa_r+0xaaa>
 8008390:	9b00      	ldr	r3, [sp, #0]
 8008392:	3301      	adds	r3, #1
 8008394:	9300      	str	r3, [sp, #0]
 8008396:	2331      	movs	r3, #49	; 0x31
 8008398:	7013      	strb	r3, [r2, #0]
 800839a:	e6ce      	b.n	800813a <_dtoa_r+0x94a>
 800839c:	4b09      	ldr	r3, [pc, #36]	; (80083c4 <_dtoa_r+0xbd4>)
 800839e:	f7ff ba95 	b.w	80078cc <_dtoa_r+0xdc>
 80083a2:	9b21      	ldr	r3, [sp, #132]	; 0x84
 80083a4:	2b00      	cmp	r3, #0
 80083a6:	f47f aa6e 	bne.w	8007886 <_dtoa_r+0x96>
 80083aa:	4b07      	ldr	r3, [pc, #28]	; (80083c8 <_dtoa_r+0xbd8>)
 80083ac:	f7ff ba8e 	b.w	80078cc <_dtoa_r+0xdc>
 80083b0:	9b02      	ldr	r3, [sp, #8]
 80083b2:	2b00      	cmp	r3, #0
 80083b4:	dcae      	bgt.n	8008314 <_dtoa_r+0xb24>
 80083b6:	9b06      	ldr	r3, [sp, #24]
 80083b8:	2b02      	cmp	r3, #2
 80083ba:	f73f aea8 	bgt.w	800810e <_dtoa_r+0x91e>
 80083be:	e7a9      	b.n	8008314 <_dtoa_r+0xb24>
 80083c0:	0800bd87 	.word	0x0800bd87
 80083c4:	0800bce4 	.word	0x0800bce4
 80083c8:	0800bd08 	.word	0x0800bd08

080083cc <_localeconv_r>:
 80083cc:	4800      	ldr	r0, [pc, #0]	; (80083d0 <_localeconv_r+0x4>)
 80083ce:	4770      	bx	lr
 80083d0:	20000394 	.word	0x20000394

080083d4 <malloc>:
 80083d4:	4b02      	ldr	r3, [pc, #8]	; (80083e0 <malloc+0xc>)
 80083d6:	4601      	mov	r1, r0
 80083d8:	6818      	ldr	r0, [r3, #0]
 80083da:	f000 bc17 	b.w	8008c0c <_malloc_r>
 80083de:	bf00      	nop
 80083e0:	20000240 	.word	0x20000240

080083e4 <memcpy>:
 80083e4:	440a      	add	r2, r1
 80083e6:	4291      	cmp	r1, r2
 80083e8:	f100 33ff 	add.w	r3, r0, #4294967295
 80083ec:	d100      	bne.n	80083f0 <memcpy+0xc>
 80083ee:	4770      	bx	lr
 80083f0:	b510      	push	{r4, lr}
 80083f2:	f811 4b01 	ldrb.w	r4, [r1], #1
 80083f6:	f803 4f01 	strb.w	r4, [r3, #1]!
 80083fa:	4291      	cmp	r1, r2
 80083fc:	d1f9      	bne.n	80083f2 <memcpy+0xe>
 80083fe:	bd10      	pop	{r4, pc}

08008400 <_Balloc>:
 8008400:	b570      	push	{r4, r5, r6, lr}
 8008402:	6a46      	ldr	r6, [r0, #36]	; 0x24
 8008404:	4604      	mov	r4, r0
 8008406:	460d      	mov	r5, r1
 8008408:	b976      	cbnz	r6, 8008428 <_Balloc+0x28>
 800840a:	2010      	movs	r0, #16
 800840c:	f7ff ffe2 	bl	80083d4 <malloc>
 8008410:	4602      	mov	r2, r0
 8008412:	6260      	str	r0, [r4, #36]	; 0x24
 8008414:	b920      	cbnz	r0, 8008420 <_Balloc+0x20>
 8008416:	4b18      	ldr	r3, [pc, #96]	; (8008478 <_Balloc+0x78>)
 8008418:	4818      	ldr	r0, [pc, #96]	; (800847c <_Balloc+0x7c>)
 800841a:	2166      	movs	r1, #102	; 0x66
 800841c:	f000 fdd6 	bl	8008fcc <__assert_func>
 8008420:	e9c0 6601 	strd	r6, r6, [r0, #4]
 8008424:	6006      	str	r6, [r0, #0]
 8008426:	60c6      	str	r6, [r0, #12]
 8008428:	6a66      	ldr	r6, [r4, #36]	; 0x24
 800842a:	68f3      	ldr	r3, [r6, #12]
 800842c:	b183      	cbz	r3, 8008450 <_Balloc+0x50>
 800842e:	6a63      	ldr	r3, [r4, #36]	; 0x24
 8008430:	68db      	ldr	r3, [r3, #12]
 8008432:	f853 0025 	ldr.w	r0, [r3, r5, lsl #2]
 8008436:	b9b8      	cbnz	r0, 8008468 <_Balloc+0x68>
 8008438:	2101      	movs	r1, #1
 800843a:	fa01 f605 	lsl.w	r6, r1, r5
 800843e:	1d72      	adds	r2, r6, #5
 8008440:	0092      	lsls	r2, r2, #2
 8008442:	4620      	mov	r0, r4
 8008444:	f000 fb60 	bl	8008b08 <_calloc_r>
 8008448:	b160      	cbz	r0, 8008464 <_Balloc+0x64>
 800844a:	e9c0 5601 	strd	r5, r6, [r0, #4]
 800844e:	e00e      	b.n	800846e <_Balloc+0x6e>
 8008450:	2221      	movs	r2, #33	; 0x21
 8008452:	2104      	movs	r1, #4
 8008454:	4620      	mov	r0, r4
 8008456:	f000 fb57 	bl	8008b08 <_calloc_r>
 800845a:	6a63      	ldr	r3, [r4, #36]	; 0x24
 800845c:	60f0      	str	r0, [r6, #12]
 800845e:	68db      	ldr	r3, [r3, #12]
 8008460:	2b00      	cmp	r3, #0
 8008462:	d1e4      	bne.n	800842e <_Balloc+0x2e>
 8008464:	2000      	movs	r0, #0
 8008466:	bd70      	pop	{r4, r5, r6, pc}
 8008468:	6802      	ldr	r2, [r0, #0]
 800846a:	f843 2025 	str.w	r2, [r3, r5, lsl #2]
 800846e:	2300      	movs	r3, #0
 8008470:	e9c0 3303 	strd	r3, r3, [r0, #12]
 8008474:	e7f7      	b.n	8008466 <_Balloc+0x66>
 8008476:	bf00      	nop
 8008478:	0800bd15 	.word	0x0800bd15
 800847c:	0800bd98 	.word	0x0800bd98

08008480 <_Bfree>:
 8008480:	b570      	push	{r4, r5, r6, lr}
 8008482:	6a46      	ldr	r6, [r0, #36]	; 0x24
 8008484:	4605      	mov	r5, r0
 8008486:	460c      	mov	r4, r1
 8008488:	b976      	cbnz	r6, 80084a8 <_Bfree+0x28>
 800848a:	2010      	movs	r0, #16
 800848c:	f7ff ffa2 	bl	80083d4 <malloc>
 8008490:	4602      	mov	r2, r0
 8008492:	6268      	str	r0, [r5, #36]	; 0x24
 8008494:	b920      	cbnz	r0, 80084a0 <_Bfree+0x20>
 8008496:	4b09      	ldr	r3, [pc, #36]	; (80084bc <_Bfree+0x3c>)
 8008498:	4809      	ldr	r0, [pc, #36]	; (80084c0 <_Bfree+0x40>)
 800849a:	218a      	movs	r1, #138	; 0x8a
 800849c:	f000 fd96 	bl	8008fcc <__assert_func>
 80084a0:	e9c0 6601 	strd	r6, r6, [r0, #4]
 80084a4:	6006      	str	r6, [r0, #0]
 80084a6:	60c6      	str	r6, [r0, #12]
 80084a8:	b13c      	cbz	r4, 80084ba <_Bfree+0x3a>
 80084aa:	6a6b      	ldr	r3, [r5, #36]	; 0x24
 80084ac:	6862      	ldr	r2, [r4, #4]
 80084ae:	68db      	ldr	r3, [r3, #12]
 80084b0:	f853 1022 	ldr.w	r1, [r3, r2, lsl #2]
 80084b4:	6021      	str	r1, [r4, #0]
 80084b6:	f843 4022 	str.w	r4, [r3, r2, lsl #2]
 80084ba:	bd70      	pop	{r4, r5, r6, pc}
 80084bc:	0800bd15 	.word	0x0800bd15
 80084c0:	0800bd98 	.word	0x0800bd98

080084c4 <__multadd>:
 80084c4:	e92d 41f0 	stmdb	sp!, {r4, r5, r6, r7, r8, lr}
 80084c8:	690d      	ldr	r5, [r1, #16]
 80084ca:	4607      	mov	r7, r0
 80084cc:	460c      	mov	r4, r1
 80084ce:	461e      	mov	r6, r3
 80084d0:	f101 0c14 	add.w	ip, r1, #20
 80084d4:	2000      	movs	r0, #0
 80084d6:	f8dc 3000 	ldr.w	r3, [ip]
 80084da:	b299      	uxth	r1, r3
 80084dc:	fb02 6101 	mla	r1, r2, r1, r6
 80084e0:	0c1e      	lsrs	r6, r3, #16
 80084e2:	0c0b      	lsrs	r3, r1, #16
 80084e4:	fb02 3306 	mla	r3, r2, r6, r3
 80084e8:	b289      	uxth	r1, r1
 80084ea:	3001      	adds	r0, #1
 80084ec:	eb01 4103 	add.w	r1, r1, r3, lsl #16
 80084f0:	4285      	cmp	r5, r0
 80084f2:	f84c 1b04 	str.w	r1, [ip], #4
 80084f6:	ea4f 4613 	mov.w	r6, r3, lsr #16
 80084fa:	dcec      	bgt.n	80084d6 <__multadd+0x12>
 80084fc:	b30e      	cbz	r6, 8008542 <__multadd+0x7e>
 80084fe:	68a3      	ldr	r3, [r4, #8]
 8008500:	42ab      	cmp	r3, r5
 8008502:	dc19      	bgt.n	8008538 <__multadd+0x74>
 8008504:	6861      	ldr	r1, [r4, #4]
 8008506:	4638      	mov	r0, r7
 8008508:	3101      	adds	r1, #1
 800850a:	f7ff ff79 	bl	8008400 <_Balloc>
 800850e:	4680      	mov	r8, r0
 8008510:	b928      	cbnz	r0, 800851e <__multadd+0x5a>
 8008512:	4602      	mov	r2, r0
 8008514:	4b0c      	ldr	r3, [pc, #48]	; (8008548 <__multadd+0x84>)
 8008516:	480d      	ldr	r0, [pc, #52]	; (800854c <__multadd+0x88>)
 8008518:	21b5      	movs	r1, #181	; 0xb5
 800851a:	f000 fd57 	bl	8008fcc <__assert_func>
 800851e:	6922      	ldr	r2, [r4, #16]
 8008520:	3202      	adds	r2, #2
 8008522:	f104 010c 	add.w	r1, r4, #12
 8008526:	0092      	lsls	r2, r2, #2
 8008528:	300c      	adds	r0, #12
 800852a:	f7ff ff5b 	bl	80083e4 <memcpy>
 800852e:	4621      	mov	r1, r4
 8008530:	4638      	mov	r0, r7
 8008532:	f7ff ffa5 	bl	8008480 <_Bfree>
 8008536:	4644      	mov	r4, r8
 8008538:	eb04 0385 	add.w	r3, r4, r5, lsl #2
 800853c:	3501      	adds	r5, #1
 800853e:	615e      	str	r6, [r3, #20]
 8008540:	6125      	str	r5, [r4, #16]
 8008542:	4620      	mov	r0, r4
 8008544:	e8bd 81f0 	ldmia.w	sp!, {r4, r5, r6, r7, r8, pc}
 8008548:	0800bd87 	.word	0x0800bd87
 800854c:	0800bd98 	.word	0x0800bd98

08008550 <__hi0bits>:
 8008550:	0c03      	lsrs	r3, r0, #16
 8008552:	041b      	lsls	r3, r3, #16
 8008554:	b9d3      	cbnz	r3, 800858c <__hi0bits+0x3c>
 8008556:	0400      	lsls	r0, r0, #16
 8008558:	2310      	movs	r3, #16
 800855a:	f010 4f7f 	tst.w	r0, #4278190080	; 0xff000000
 800855e:	bf04      	itt	eq
 8008560:	0200      	lsleq	r0, r0, #8
 8008562:	3308      	addeq	r3, #8
 8008564:	f010 4f70 	tst.w	r0, #4026531840	; 0xf0000000
 8008568:	bf04      	itt	eq
 800856a:	0100      	lsleq	r0, r0, #4
 800856c:	3304      	addeq	r3, #4
 800856e:	f010 4f40 	tst.w	r0, #3221225472	; 0xc0000000
 8008572:	bf04      	itt	eq
 8008574:	0080      	lsleq	r0, r0, #2
 8008576:	3302      	addeq	r3, #2
 8008578:	2800      	cmp	r0, #0
 800857a:	db05      	blt.n	8008588 <__hi0bits+0x38>
 800857c:	f010 4f80 	tst.w	r0, #1073741824	; 0x40000000
 8008580:	f103 0301 	add.w	r3, r3, #1
 8008584:	bf08      	it	eq
 8008586:	2320      	moveq	r3, #32
 8008588:	4618      	mov	r0, r3
 800858a:	4770      	bx	lr
 800858c:	2300      	movs	r3, #0
 800858e:	e7e4      	b.n	800855a <__hi0bits+0xa>

08008590 <__lo0bits>:
 8008590:	6803      	ldr	r3, [r0, #0]
 8008592:	f013 0207 	ands.w	r2, r3, #7
 8008596:	4601      	mov	r1, r0
 8008598:	d00b      	beq.n	80085b2 <__lo0bits+0x22>
 800859a:	07da      	lsls	r2, r3, #31
 800859c:	d423      	bmi.n	80085e6 <__lo0bits+0x56>
 800859e:	0798      	lsls	r0, r3, #30
 80085a0:	bf49      	itett	mi
 80085a2:	085b      	lsrmi	r3, r3, #1
 80085a4:	089b      	lsrpl	r3, r3, #2
 80085a6:	2001      	movmi	r0, #1
 80085a8:	600b      	strmi	r3, [r1, #0]
 80085aa:	bf5c      	itt	pl
 80085ac:	600b      	strpl	r3, [r1, #0]
 80085ae:	2002      	movpl	r0, #2
 80085b0:	4770      	bx	lr
 80085b2:	b298      	uxth	r0, r3
 80085b4:	b9a8      	cbnz	r0, 80085e2 <__lo0bits+0x52>
 80085b6:	0c1b      	lsrs	r3, r3, #16
 80085b8:	2010      	movs	r0, #16
 80085ba:	b2da      	uxtb	r2, r3
 80085bc:	b90a      	cbnz	r2, 80085c2 <__lo0bits+0x32>
 80085be:	3008      	adds	r0, #8
 80085c0:	0a1b      	lsrs	r3, r3, #8
 80085c2:	071a      	lsls	r2, r3, #28
 80085c4:	bf04      	itt	eq
 80085c6:	091b      	lsreq	r3, r3, #4
 80085c8:	3004      	addeq	r0, #4
 80085ca:	079a      	lsls	r2, r3, #30
 80085cc:	bf04      	itt	eq
 80085ce:	089b      	lsreq	r3, r3, #2
 80085d0:	3002      	addeq	r0, #2
 80085d2:	07da      	lsls	r2, r3, #31
 80085d4:	d403      	bmi.n	80085de <__lo0bits+0x4e>
 80085d6:	085b      	lsrs	r3, r3, #1
 80085d8:	f100 0001 	add.w	r0, r0, #1
 80085dc:	d005      	beq.n	80085ea <__lo0bits+0x5a>
 80085de:	600b      	str	r3, [r1, #0]
 80085e0:	4770      	bx	lr
 80085e2:	4610      	mov	r0, r2
 80085e4:	e7e9      	b.n	80085ba <__lo0bits+0x2a>
 80085e6:	2000      	movs	r0, #0
 80085e8:	4770      	bx	lr
 80085ea:	2020      	movs	r0, #32
 80085ec:	4770      	bx	lr
	...

080085f0 <__i2b>:
 80085f0:	b510      	push	{r4, lr}
 80085f2:	460c      	mov	r4, r1
 80085f4:	2101      	movs	r1, #1
 80085f6:	f7ff ff03 	bl	8008400 <_Balloc>
 80085fa:	4602      	mov	r2, r0
 80085fc:	b928      	cbnz	r0, 800860a <__i2b+0x1a>
 80085fe:	4b05      	ldr	r3, [pc, #20]	; (8008614 <__i2b+0x24>)
 8008600:	4805      	ldr	r0, [pc, #20]	; (8008618 <__i2b+0x28>)
 8008602:	f44f 71a0 	mov.w	r1, #320	; 0x140
 8008606:	f000 fce1 	bl	8008fcc <__assert_func>
 800860a:	2301      	movs	r3, #1
 800860c:	6144      	str	r4, [r0, #20]
 800860e:	6103      	str	r3, [r0, #16]
 8008610:	bd10      	pop	{r4, pc}
 8008612:	bf00      	nop
 8008614:	0800bd87 	.word	0x0800bd87
 8008618:	0800bd98 	.word	0x0800bd98

0800861c <__multiply>:
 800861c:	e92d 4ff0 	stmdb	sp!, {r4, r5, r6, r7, r8, r9, sl, fp, lr}
 8008620:	4691      	mov	r9, r2
 8008622:	690a      	ldr	r2, [r1, #16]
 8008624:	f8d9 3010 	ldr.w	r3, [r9, #16]
 8008628:	429a      	cmp	r2, r3
 800862a:	bfb8      	it	lt
 800862c:	460b      	movlt	r3, r1
 800862e:	460c      	mov	r4, r1
 8008630:	bfbc      	itt	lt
 8008632:	464c      	movlt	r4, r9
 8008634:	4699      	movlt	r9, r3
 8008636:	6927      	ldr	r7, [r4, #16]
 8008638:	f8d9 a010 	ldr.w	sl, [r9, #16]
 800863c:	68a3      	ldr	r3, [r4, #8]
 800863e:	6861      	ldr	r1, [r4, #4]
 8008640:	eb07 060a 	add.w	r6, r7, sl
 8008644:	42b3      	cmp	r3, r6
 8008646:	b085      	sub	sp, #20
 8008648:	bfb8      	it	lt
 800864a:	3101      	addlt	r1, #1
 800864c:	f7ff fed8 	bl	8008400 <_Balloc>
 8008650:	b930      	cbnz	r0, 8008660 <__multiply+0x44>
 8008652:	4602      	mov	r2, r0
 8008654:	4b44      	ldr	r3, [pc, #272]	; (8008768 <__multiply+0x14c>)
 8008656:	4845      	ldr	r0, [pc, #276]	; (800876c <__multiply+0x150>)
 8008658:	f240 115d 	movw	r1, #349	; 0x15d
 800865c:	f000 fcb6 	bl	8008fcc <__assert_func>
 8008660:	f100 0514 	add.w	r5, r0, #20
 8008664:	eb05 0886 	add.w	r8, r5, r6, lsl #2
 8008668:	462b      	mov	r3, r5
 800866a:	2200      	movs	r2, #0
 800866c:	4543      	cmp	r3, r8
 800866e:	d321      	bcc.n	80086b4 <__multiply+0x98>
 8008670:	f104 0314 	add.w	r3, r4, #20
 8008674:	eb03 0787 	add.w	r7, r3, r7, lsl #2
 8008678:	f109 0314 	add.w	r3, r9, #20
 800867c:	eb03 028a 	add.w	r2, r3, sl, lsl #2
 8008680:	9202      	str	r2, [sp, #8]
 8008682:	1b3a      	subs	r2, r7, r4
 8008684:	3a15      	subs	r2, #21
 8008686:	f022 0203 	bic.w	r2, r2, #3
 800868a:	3204      	adds	r2, #4
 800868c:	f104 0115 	add.w	r1, r4, #21
 8008690:	428f      	cmp	r7, r1
 8008692:	bf38      	it	cc
 8008694:	2204      	movcc	r2, #4
 8008696:	9201      	str	r2, [sp, #4]
 8008698:	9a02      	ldr	r2, [sp, #8]
 800869a:	9303      	str	r3, [sp, #12]
 800869c:	429a      	cmp	r2, r3
 800869e:	d80c      	bhi.n	80086ba <__multiply+0x9e>
 80086a0:	2e00      	cmp	r6, #0
 80086a2:	dd03      	ble.n	80086ac <__multiply+0x90>
 80086a4:	f858 3d04 	ldr.w	r3, [r8, #-4]!
 80086a8:	2b00      	cmp	r3, #0
 80086aa:	d05a      	beq.n	8008762 <__multiply+0x146>
 80086ac:	6106      	str	r6, [r0, #16]
 80086ae:	b005      	add	sp, #20
 80086b0:	e8bd 8ff0 	ldmia.w	sp!, {r4, r5, r6, r7, r8, r9, sl, fp, pc}
 80086b4:	f843 2b04 	str.w	r2, [r3], #4
 80086b8:	e7d8      	b.n	800866c <__multiply+0x50>
 80086ba:	f8b3 a000 	ldrh.w	sl, [r3]
 80086be:	f1ba 0f00 	cmp.w	sl, #0
 80086c2:	d024      	beq.n	800870e <__multiply+0xf2>
 80086c4:	f104 0e14 	add.w	lr, r4, #20
 80086c8:	46a9      	mov	r9, r5
 80086ca:	f04f 0c00 	mov.w	ip, #0
 80086ce:	f85e 2b04 	ldr.w	r2, [lr], #4
 80086d2:	f8d9 1000 	ldr.w	r1, [r9]
 80086d6:	fa1f fb82 	uxth.w	fp, r2
 80086da:	b289      	uxth	r1, r1
 80086dc:	fb0a 110b 	mla	r1, sl, fp, r1
 80086e0:	ea4f 4b12 	mov.w	fp, r2, lsr #16
 80086e4:	f8d9 2000 	ldr.w	r2, [r9]
 80086e8:	4461      	add	r1, ip
 80086ea:	ea4f 4c12 	mov.w	ip, r2, lsr #16
 80086ee:	fb0a c20b 	mla	r2, sl, fp, ip
 80086f2:	eb02 4211 	add.w	r2, r2, r1, lsr #16
 80086f6:	b289      	uxth	r1, r1
 80086f8:	ea41 4102 	orr.w	r1, r1, r2, lsl #16
 80086fc:	4577      	cmp	r7, lr
 80086fe:	f849 1b04 	str.w	r1, [r9], #4
 8008702:	ea4f 4c12 	mov.w	ip, r2, lsr #16
 8008706:	d8e2      	bhi.n	80086ce <__multiply+0xb2>
 8008708:	9a01      	ldr	r2, [sp, #4]
 800870a:	f845 c002 	str.w	ip, [r5, r2]
 800870e:	9a03      	ldr	r2, [sp, #12]
 8008710:	f8b2 9002 	ldrh.w	r9, [r2, #2]
 8008714:	3304      	adds	r3, #4
 8008716:	f1b9 0f00 	cmp.w	r9, #0
 800871a:	d020      	beq.n	800875e <__multiply+0x142>
 800871c:	6829      	ldr	r1, [r5, #0]
 800871e:	f104 0c14 	add.w	ip, r4, #20
 8008722:	46ae      	mov	lr, r5
 8008724:	f04f 0a00 	mov.w	sl, #0
 8008728:	f8bc b000 	ldrh.w	fp, [ip]
 800872c:	f8be 2002 	ldrh.w	r2, [lr, #2]
 8008730:	fb09 220b 	mla	r2, r9, fp, r2
 8008734:	4492      	add	sl, r2
 8008736:	b289      	uxth	r1, r1
 8008738:	ea41 410a 	orr.w	r1, r1, sl, lsl #16
 800873c:	f84e 1b04 	str.w	r1, [lr], #4
 8008740:	f85c 2b04 	ldr.w	r2, [ip], #4
 8008744:	f8be 1000 	ldrh.w	r1, [lr]
 8008748:	0c12      	lsrs	r2, r2, #16
 800874a:	fb09 1102 	mla	r1, r9, r2, r1
 800874e:	eb01 411a 	add.w	r1, r1, sl, lsr #16
 8008752:	4567      	cmp	r7, ip
 8008754:	ea4f 4a11 	mov.w	sl, r1, lsr #16
 8008758:	d8e6      	bhi.n	8008728 <__multiply+0x10c>
 800875a:	9a01      	ldr	r2, [sp, #4]
 800875c:	50a9      	str	r1, [r5, r2]
 800875e:	3504      	adds	r5, #4
 8008760:	e79a      	b.n	8008698 <__multiply+0x7c>
 8008762:	3e01      	subs	r6, #1
 8008764:	e79c      	b.n	80086a0 <__multiply+0x84>
 8008766:	bf00      	nop
 8008768:	0800bd87 	.word	0x0800bd87
 800876c:	0800bd98 	.word	0x0800bd98

08008770 <__pow5mult>:
 8008770:	e92d 43f8 	stmdb	sp!, {r3, r4, r5, r6, r7, r8, r9, lr}
 8008774:	4615      	mov	r5, r2
 8008776:	f012 0203 	ands.w	r2, r2, #3
 800877a:	4606      	mov	r6, r0
 800877c:	460f      	mov	r7, r1
 800877e:	d007      	beq.n	8008790 <__pow5mult+0x20>
 8008780:	4c25      	ldr	r4, [pc, #148]	; (8008818 <__pow5mult+0xa8>)
 8008782:	3a01      	subs	r2, #1
 8008784:	2300      	movs	r3, #0
 8008786:	f854 2022 	ldr.w	r2, [r4, r2, lsl #2]
 800878a:	f7ff fe9b 	bl	80084c4 <__multadd>
 800878e:	4607      	mov	r7, r0
 8008790:	10ad      	asrs	r5, r5, #2
 8008792:	d03d      	beq.n	8008810 <__pow5mult+0xa0>
 8008794:	6a74      	ldr	r4, [r6, #36]	; 0x24
 8008796:	b97c      	cbnz	r4, 80087b8 <__pow5mult+0x48>
 8008798:	2010      	movs	r0, #16
 800879a:	f7ff fe1b 	bl	80083d4 <malloc>
 800879e:	4602      	mov	r2, r0
 80087a0:	6270      	str	r0, [r6, #36]	; 0x24
 80087a2:	b928      	cbnz	r0, 80087b0 <__pow5mult+0x40>
 80087a4:	4b1d      	ldr	r3, [pc, #116]	; (800881c <__pow5mult+0xac>)
 80087a6:	481e      	ldr	r0, [pc, #120]	; (8008820 <__pow5mult+0xb0>)
 80087a8:	f44f 71d7 	mov.w	r1, #430	; 0x1ae
 80087ac:	f000 fc0e 	bl	8008fcc <__assert_func>
 80087b0:	e9c0 4401 	strd	r4, r4, [r0, #4]
 80087b4:	6004      	str	r4, [r0, #0]
 80087b6:	60c4      	str	r4, [r0, #12]
 80087b8:	f8d6 8024 	ldr.w	r8, [r6, #36]	; 0x24
 80087bc:	f8d8 4008 	ldr.w	r4, [r8, #8]
 80087c0:	b94c      	cbnz	r4, 80087d6 <__pow5mult+0x66>
 80087c2:	f240 2171 	movw	r1, #625	; 0x271
 80087c6:	4630      	mov	r0, r6
 80087c8:	f7ff ff12 	bl	80085f0 <__i2b>
 80087cc:	2300      	movs	r3, #0
 80087ce:	f8c8 0008 	str.w	r0, [r8, #8]
 80087d2:	4604      	mov	r4, r0
 80087d4:	6003      	str	r3, [r0, #0]
 80087d6:	f04f 0900 	mov.w	r9, #0
 80087da:	07eb      	lsls	r3, r5, #31
 80087dc:	d50a      	bpl.n	80087f4 <__pow5mult+0x84>
 80087de:	4639      	mov	r1, r7
 80087e0:	4622      	mov	r2, r4
 80087e2:	4630      	mov	r0, r6
 80087e4:	f7ff ff1a 	bl	800861c <__multiply>
 80087e8:	4639      	mov	r1, r7
 80087ea:	4680      	mov	r8, r0
 80087ec:	4630      	mov	r0, r6
 80087ee:	f7ff fe47 	bl	8008480 <_Bfree>
 80087f2:	4647      	mov	r7, r8
 80087f4:	106d      	asrs	r5, r5, #1
 80087f6:	d00b      	beq.n	8008810 <__pow5mult+0xa0>
 80087f8:	6820      	ldr	r0, [r4, #0]
 80087fa:	b938      	cbnz	r0, 800880c <__pow5mult+0x9c>
 80087fc:	4622      	mov	r2, r4
 80087fe:	4621      	mov	r1, r4
 8008800:	4630      	mov	r0, r6
 8008802:	f7ff ff0b 	bl	800861c <__multiply>
 8008806:	6020      	str	r0, [r4, #0]
 8008808:	f8c0 9000 	str.w	r9, [r0]
 800880c:	4604      	mov	r4, r0
 800880e:	e7e4      	b.n	80087da <__pow5mult+0x6a>
 8008810:	4638      	mov	r0, r7
 8008812:	e8bd 83f8 	ldmia.w	sp!, {r3, r4, r5, r6, r7, r8, r9, pc}
 8008816:	bf00      	nop
 8008818:	0800bee8 	.word	0x0800bee8
 800881c:	0800bd15 	.word	0x0800bd15
 8008820:	0800bd98 	.word	0x0800bd98

08008824 <__lshift>:
 8008824:	e92d 47f0 	stmdb	sp!, {r4, r5, r6, r7, r8, r9, sl, lr}
 8008828:	460c      	mov	r4, r1
 800882a:	6849      	ldr	r1, [r1, #4]
 800882c:	6923      	ldr	r3, [r4, #16]
 800882e:	eb03 1862 	add.w	r8, r3, r2, asr #5
 8008832:	68a3      	ldr	r3, [r4, #8]
 8008834:	4607      	mov	r7, r0
 8008836:	4691      	mov	r9, r2
 8008838:	ea4f 1a62 	mov.w	sl, r2, asr #5
 800883c:	f108 0601 	add.w	r6, r8, #1
 8008840:	42b3      	cmp	r3, r6
 8008842:	db0b      	blt.n	800885c <__lshift+0x38>
 8008844:	4638      	mov	r0, r7
 8008846:	f7ff fddb 	bl	8008400 <_Balloc>
 800884a:	4605      	mov	r5, r0
 800884c:	b948      	cbnz	r0, 8008862 <__lshift+0x3e>
 800884e:	4602      	mov	r2, r0
 8008850:	4b2a      	ldr	r3, [pc, #168]	; (80088fc <__lshift+0xd8>)
 8008852:	482b      	ldr	r0, [pc, #172]	; (8008900 <__lshift+0xdc>)
 8008854:	f240 11d9 	movw	r1, #473	; 0x1d9
 8008858:	f000 fbb8 	bl	8008fcc <__assert_func>
 800885c:	3101      	adds	r1, #1
 800885e:	005b      	lsls	r3, r3, #1
 8008860:	e7ee      	b.n	8008840 <__lshift+0x1c>
 8008862:	2300      	movs	r3, #0
 8008864:	f100 0114 	add.w	r1, r0, #20
 8008868:	f100 0210 	add.w	r2, r0, #16
 800886c:	4618      	mov	r0, r3
 800886e:	4553      	cmp	r3, sl
 8008870:	db37      	blt.n	80088e2 <__lshift+0xbe>
 8008872:	6920      	ldr	r0, [r4, #16]
 8008874:	ea2a 7aea 	bic.w	sl, sl, sl, asr #31
 8008878:	f104 0314 	add.w	r3, r4, #20
 800887c:	f019 091f 	ands.w	r9, r9, #31
 8008880:	eb01 018a 	add.w	r1, r1, sl, lsl #2
 8008884:	eb03 0080 	add.w	r0, r3, r0, lsl #2
 8008888:	d02f      	beq.n	80088ea <__lshift+0xc6>
 800888a:	f1c9 0e20 	rsb	lr, r9, #32
 800888e:	468a      	mov	sl, r1
 8008890:	f04f 0c00 	mov.w	ip, #0
 8008894:	681a      	ldr	r2, [r3, #0]
 8008896:	fa02 f209 	lsl.w	r2, r2, r9
 800889a:	ea42 020c 	orr.w	r2, r2, ip
 800889e:	f84a 2b04 	str.w	r2, [sl], #4
 80088a2:	f853 2b04 	ldr.w	r2, [r3], #4
 80088a6:	4298      	cmp	r0, r3
 80088a8:	fa22 fc0e 	lsr.w	ip, r2, lr
 80088ac:	d8f2      	bhi.n	8008894 <__lshift+0x70>
 80088ae:	1b03      	subs	r3, r0, r4
 80088b0:	3b15      	subs	r3, #21
 80088b2:	f023 0303 	bic.w	r3, r3, #3
 80088b6:	3304      	adds	r3, #4
 80088b8:	f104 0215 	add.w	r2, r4, #21
 80088bc:	4290      	cmp	r0, r2
 80088be:	bf38      	it	cc
 80088c0:	2304      	movcc	r3, #4
 80088c2:	f841 c003 	str.w	ip, [r1, r3]
 80088c6:	f1bc 0f00 	cmp.w	ip, #0
 80088ca:	d001      	beq.n	80088d0 <__lshift+0xac>
 80088cc:	f108 0602 	add.w	r6, r8, #2
 80088d0:	3e01      	subs	r6, #1
 80088d2:	4638      	mov	r0, r7
 80088d4:	612e      	str	r6, [r5, #16]
 80088d6:	4621      	mov	r1, r4
 80088d8:	f7ff fdd2 	bl	8008480 <_Bfree>
 80088dc:	4628      	mov	r0, r5
 80088de:	e8bd 87f0 	ldmia.w	sp!, {r4, r5, r6, r7, r8, r9, sl, pc}
 80088e2:	f842 0f04 	str.w	r0, [r2, #4]!
 80088e6:	3301      	adds	r3, #1
 80088e8:	e7c1      	b.n	800886e <__lshift+0x4a>
 80088ea:	3904      	subs	r1, #4
 80088ec:	f853 2b04 	ldr.w	r2, [r3], #4
 80088f0:	f841 2f04 	str.w	r2, [r1, #4]!
 80088f4:	4298      	cmp	r0, r3
 80088f6:	d8f9      	bhi.n	80088ec <__lshift+0xc8>
 80088f8:	e7ea      	b.n	80088d0 <__lshift+0xac>
 80088fa:	bf00      	nop
 80088fc:	0800bd87 	.word	0x0800bd87
 8008900:	0800bd98 	.word	0x0800bd98

08008904 <__mcmp>:
 8008904:	b530      	push	{r4, r5, lr}
 8008906:	6902      	ldr	r2, [r0, #16]
 8008908:	690c      	ldr	r4, [r1, #16]
 800890a:	1b12      	subs	r2, r2, r4
 800890c:	d10e      	bne.n	800892c <__mcmp+0x28>
 800890e:	f100 0314 	add.w	r3, r0, #20
 8008912:	3114      	adds	r1, #20
 8008914:	eb03 0084 	add.w	r0, r3, r4, lsl #2
 8008918:	eb01 0184 	add.w	r1, r1, r4, lsl #2
 800891c:	f850 5d04 	ldr.w	r5, [r0, #-4]!
 8008920:	f851 4d04 	ldr.w	r4, [r1, #-4]!
 8008924:	42a5      	cmp	r5, r4
 8008926:	d003      	beq.n	8008930 <__mcmp+0x2c>
 8008928:	d305      	bcc.n	8008936 <__mcmp+0x32>
 800892a:	2201      	movs	r2, #1
 800892c:	4610      	mov	r0, r2
 800892e:	bd30      	pop	{r4, r5, pc}
 8008930:	4283      	cmp	r3, r0
 8008932:	d3f3      	bcc.n	800891c <__mcmp+0x18>
 8008934:	e7fa      	b.n	800892c <__mcmp+0x28>
 8008936:	f04f 32ff 	mov.w	r2, #4294967295
 800893a:	e7f7      	b.n	800892c <__mcmp+0x28>

0800893c <__mdiff>:
 800893c:	e92d 4ff8 	stmdb	sp!, {r3, r4, r5, r6, r7, r8, r9, sl, fp, lr}
 8008940:	460c      	mov	r4, r1
 8008942:	4606      	mov	r6, r0
 8008944:	4611      	mov	r1, r2
 8008946:	4620      	mov	r0, r4
 8008948:	4690      	mov	r8, r2
 800894a:	f7ff ffdb 	bl	8008904 <__mcmp>
 800894e:	1e05      	subs	r5, r0, #0
 8008950:	d110      	bne.n	8008974 <__mdiff+0x38>
 8008952:	4629      	mov	r1, r5
 8008954:	4630      	mov	r0, r6
 8008956:	f7ff fd53 	bl	8008400 <_Balloc>
 800895a:	b930      	cbnz	r0, 800896a <__mdiff+0x2e>
 800895c:	4b3a      	ldr	r3, [pc, #232]	; (8008a48 <__mdiff+0x10c>)
 800895e:	4602      	mov	r2, r0
 8008960:	f240 2132 	movw	r1, #562	; 0x232
 8008964:	4839      	ldr	r0, [pc, #228]	; (8008a4c <__mdiff+0x110>)
 8008966:	f000 fb31 	bl	8008fcc <__assert_func>
 800896a:	2301      	movs	r3, #1
 800896c:	e9c0 3504 	strd	r3, r5, [r0, #16]
 8008970:	e8bd 8ff8 	ldmia.w	sp!, {r3, r4, r5, r6, r7, r8, r9, sl, fp, pc}
 8008974:	bfa4      	itt	ge
 8008976:	4643      	movge	r3, r8
 8008978:	46a0      	movge	r8, r4
 800897a:	4630      	mov	r0, r6
 800897c:	f8d8 1004 	ldr.w	r1, [r8, #4]
 8008980:	bfa6      	itte	ge
 8008982:	461c      	movge	r4, r3
 8008984:	2500      	movge	r5, #0
 8008986:	2501      	movlt	r5, #1
 8008988:	f7ff fd3a 	bl	8008400 <_Balloc>
 800898c:	b920      	cbnz	r0, 8008998 <__mdiff+0x5c>
 800898e:	4b2e      	ldr	r3, [pc, #184]	; (8008a48 <__mdiff+0x10c>)
 8008990:	4602      	mov	r2, r0
 8008992:	f44f 7110 	mov.w	r1, #576	; 0x240
 8008996:	e7e5      	b.n	8008964 <__mdiff+0x28>
 8008998:	f8d8 7010 	ldr.w	r7, [r8, #16]
 800899c:	6926      	ldr	r6, [r4, #16]
 800899e:	60c5      	str	r5, [r0, #12]
 80089a0:	f104 0914 	add.w	r9, r4, #20
 80089a4:	f108 0514 	add.w	r5, r8, #20
 80089a8:	f100 0e14 	add.w	lr, r0, #20
 80089ac:	eb05 0c87 	add.w	ip, r5, r7, lsl #2
 80089b0:	eb09 0686 	add.w	r6, r9, r6, lsl #2
 80089b4:	f108 0210 	add.w	r2, r8, #16
 80089b8:	46f2      	mov	sl, lr
 80089ba:	2100      	movs	r1, #0
 80089bc:	f859 3b04 	ldr.w	r3, [r9], #4
 80089c0:	f852 bf04 	ldr.w	fp, [r2, #4]!
 80089c4:	fa1f f883 	uxth.w	r8, r3
 80089c8:	fa11 f18b 	uxtah	r1, r1, fp
 80089cc:	0c1b      	lsrs	r3, r3, #16
 80089ce:	eba1 0808 	sub.w	r8, r1, r8
 80089d2:	ebc3 431b 	rsb	r3, r3, fp, lsr #16
 80089d6:	eb03 4328 	add.w	r3, r3, r8, asr #16
 80089da:	fa1f f888 	uxth.w	r8, r8
 80089de:	1419      	asrs	r1, r3, #16
 80089e0:	454e      	cmp	r6, r9
 80089e2:	ea48 4303 	orr.w	r3, r8, r3, lsl #16
 80089e6:	f84a 3b04 	str.w	r3, [sl], #4
 80089ea:	d8e7      	bhi.n	80089bc <__mdiff+0x80>
 80089ec:	1b33      	subs	r3, r6, r4
 80089ee:	3b15      	subs	r3, #21
 80089f0:	f023 0303 	bic.w	r3, r3, #3
 80089f4:	3304      	adds	r3, #4
 80089f6:	3415      	adds	r4, #21
 80089f8:	42a6      	cmp	r6, r4
 80089fa:	bf38      	it	cc
 80089fc:	2304      	movcc	r3, #4
 80089fe:	441d      	add	r5, r3
 8008a00:	4473      	add	r3, lr
 8008a02:	469e      	mov	lr, r3
 8008a04:	462e      	mov	r6, r5
 8008a06:	4566      	cmp	r6, ip
 8008a08:	d30e      	bcc.n	8008a28 <__mdiff+0xec>
 8008a0a:	f10c 0203 	add.w	r2, ip, #3
 8008a0e:	1b52      	subs	r2, r2, r5
 8008a10:	f022 0203 	bic.w	r2, r2, #3
 8008a14:	3d03      	subs	r5, #3
 8008a16:	45ac      	cmp	ip, r5
 8008a18:	bf38      	it	cc
 8008a1a:	2200      	movcc	r2, #0
 8008a1c:	441a      	add	r2, r3
 8008a1e:	f852 3d04 	ldr.w	r3, [r2, #-4]!
 8008a22:	b17b      	cbz	r3, 8008a44 <__mdiff+0x108>
 8008a24:	6107      	str	r7, [r0, #16]
 8008a26:	e7a3      	b.n	8008970 <__mdiff+0x34>
 8008a28:	f856 8b04 	ldr.w	r8, [r6], #4
 8008a2c:	fa11 f288 	uxtah	r2, r1, r8
 8008a30:	1414      	asrs	r4, r2, #16
 8008a32:	eb04 4418 	add.w	r4, r4, r8, lsr #16
 8008a36:	b292      	uxth	r2, r2
 8008a38:	ea42 4204 	orr.w	r2, r2, r4, lsl #16
 8008a3c:	f84e 2b04 	str.w	r2, [lr], #4
 8008a40:	1421      	asrs	r1, r4, #16
 8008a42:	e7e0      	b.n	8008a06 <__mdiff+0xca>
 8008a44:	3f01      	subs	r7, #1
 8008a46:	e7ea      	b.n	8008a1e <__mdiff+0xe2>
 8008a48:	0800bd87 	.word	0x0800bd87
 8008a4c:	0800bd98 	.word	0x0800bd98

08008a50 <__d2b>:
 8008a50:	e92d 43f7 	stmdb	sp!, {r0, r1, r2, r4, r5, r6, r7, r8, r9, lr}
 8008a54:	4689      	mov	r9, r1
 8008a56:	2101      	movs	r1, #1
 8008a58:	ec57 6b10 	vmov	r6, r7, d0
 8008a5c:	4690      	mov	r8, r2
 8008a5e:	f7ff fccf 	bl	8008400 <_Balloc>
 8008a62:	4604      	mov	r4, r0
 8008a64:	b930      	cbnz	r0, 8008a74 <__d2b+0x24>
 8008a66:	4602      	mov	r2, r0
 8008a68:	4b25      	ldr	r3, [pc, #148]	; (8008b00 <__d2b+0xb0>)
 8008a6a:	4826      	ldr	r0, [pc, #152]	; (8008b04 <__d2b+0xb4>)
 8008a6c:	f240 310a 	movw	r1, #778	; 0x30a
 8008a70:	f000 faac 	bl	8008fcc <__assert_func>
 8008a74:	f3c7 550a 	ubfx	r5, r7, #20, #11
 8008a78:	f3c7 0313 	ubfx	r3, r7, #0, #20
 8008a7c:	bb35      	cbnz	r5, 8008acc <__d2b+0x7c>
 8008a7e:	2e00      	cmp	r6, #0
 8008a80:	9301      	str	r3, [sp, #4]
 8008a82:	d028      	beq.n	8008ad6 <__d2b+0x86>
 8008a84:	4668      	mov	r0, sp
 8008a86:	9600      	str	r6, [sp, #0]
 8008a88:	f7ff fd82 	bl	8008590 <__lo0bits>
 8008a8c:	9900      	ldr	r1, [sp, #0]
 8008a8e:	b300      	cbz	r0, 8008ad2 <__d2b+0x82>
 8008a90:	9a01      	ldr	r2, [sp, #4]
 8008a92:	f1c0 0320 	rsb	r3, r0, #32
 8008a96:	fa02 f303 	lsl.w	r3, r2, r3
 8008a9a:	430b      	orrs	r3, r1
 8008a9c:	40c2      	lsrs	r2, r0
 8008a9e:	6163      	str	r3, [r4, #20]
 8008aa0:	9201      	str	r2, [sp, #4]
 8008aa2:	9b01      	ldr	r3, [sp, #4]
 8008aa4:	61a3      	str	r3, [r4, #24]
 8008aa6:	2b00      	cmp	r3, #0
 8008aa8:	bf14      	ite	ne
 8008aaa:	2202      	movne	r2, #2
 8008aac:	2201      	moveq	r2, #1
 8008aae:	6122      	str	r2, [r4, #16]
 8008ab0:	b1d5      	cbz	r5, 8008ae8 <__d2b+0x98>
 8008ab2:	f2a5 4533 	subw	r5, r5, #1075	; 0x433
 8008ab6:	4405      	add	r5, r0
 8008ab8:	f8c9 5000 	str.w	r5, [r9]
 8008abc:	f1c0 0035 	rsb	r0, r0, #53	; 0x35
 8008ac0:	f8c8 0000 	str.w	r0, [r8]
 8008ac4:	4620      	mov	r0, r4
 8008ac6:	b003      	add	sp, #12
 8008ac8:	e8bd 83f0 	ldmia.w	sp!, {r4, r5, r6, r7, r8, r9, pc}
 8008acc:	f443 1380 	orr.w	r3, r3, #1048576	; 0x100000
 8008ad0:	e7d5      	b.n	8008a7e <__d2b+0x2e>
 8008ad2:	6161      	str	r1, [r4, #20]
 8008ad4:	e7e5      	b.n	8008aa2 <__d2b+0x52>
 8008ad6:	a801      	add	r0, sp, #4
 8008ad8:	f7ff fd5a 	bl	8008590 <__lo0bits>
 8008adc:	9b01      	ldr	r3, [sp, #4]
 8008ade:	6163      	str	r3, [r4, #20]
 8008ae0:	2201      	movs	r2, #1
 8008ae2:	6122      	str	r2, [r4, #16]
 8008ae4:	3020      	adds	r0, #32
 8008ae6:	e7e3      	b.n	8008ab0 <__d2b+0x60>
 8008ae8:	eb04 0382 	add.w	r3, r4, r2, lsl #2
 8008aec:	f2a0 4032 	subw	r0, r0, #1074	; 0x432
 8008af0:	f8c9 0000 	str.w	r0, [r9]
 8008af4:	6918      	ldr	r0, [r3, #16]
 8008af6:	f7ff fd2b 	bl	8008550 <__hi0bits>
 8008afa:	ebc0 1042 	rsb	r0, r0, r2, lsl #5
 8008afe:	e7df      	b.n	8008ac0 <__d2b+0x70>
 8008b00:	0800bd87 	.word	0x0800bd87
 8008b04:	0800bd98 	.word	0x0800bd98

08008b08 <_calloc_r>:
 8008b08:	b537      	push	{r0, r1, r2, r4, r5, lr}
 8008b0a:	fba1 2402 	umull	r2, r4, r1, r2
 8008b0e:	b94c      	cbnz	r4, 8008b24 <_calloc_r+0x1c>
 8008b10:	4611      	mov	r1, r2
 8008b12:	9201      	str	r2, [sp, #4]
 8008b14:	f000 f87a 	bl	8008c0c <_malloc_r>
 8008b18:	9a01      	ldr	r2, [sp, #4]
 8008b1a:	4605      	mov	r5, r0
 8008b1c:	b930      	cbnz	r0, 8008b2c <_calloc_r+0x24>
 8008b1e:	4628      	mov	r0, r5
 8008b20:	b003      	add	sp, #12
 8008b22:	bd30      	pop	{r4, r5, pc}
 8008b24:	220c      	movs	r2, #12
 8008b26:	6002      	str	r2, [r0, #0]
 8008b28:	2500      	movs	r5, #0
 8008b2a:	e7f8      	b.n	8008b1e <_calloc_r+0x16>
 8008b2c:	4621      	mov	r1, r4
 8008b2e:	f7fe f941 	bl	8006db4 <memset>
 8008b32:	e7f4      	b.n	8008b1e <_calloc_r+0x16>

08008b34 <_free_r>:
 8008b34:	b537      	push	{r0, r1, r2, r4, r5, lr}
 8008b36:	2900      	cmp	r1, #0
 8008b38:	d044      	beq.n	8008bc4 <_free_r+0x90>
 8008b3a:	f851 3c04 	ldr.w	r3, [r1, #-4]
 8008b3e:	9001      	str	r0, [sp, #4]
 8008b40:	2b00      	cmp	r3, #0
 8008b42:	f1a1 0404 	sub.w	r4, r1, #4
 8008b46:	bfb8      	it	lt
 8008b48:	18e4      	addlt	r4, r4, r3
 8008b4a:	f000 fa9b 	bl	8009084 <__malloc_lock>
 8008b4e:	4a1e      	ldr	r2, [pc, #120]	; (8008bc8 <_free_r+0x94>)
 8008b50:	9801      	ldr	r0, [sp, #4]
 8008b52:	6813      	ldr	r3, [r2, #0]
 8008b54:	b933      	cbnz	r3, 8008b64 <_free_r+0x30>
 8008b56:	6063      	str	r3, [r4, #4]
 8008b58:	6014      	str	r4, [r2, #0]
 8008b5a:	b003      	add	sp, #12
 8008b5c:	e8bd 4030 	ldmia.w	sp!, {r4, r5, lr}
 8008b60:	f000 ba96 	b.w	8009090 <__malloc_unlock>
 8008b64:	42a3      	cmp	r3, r4
 8008b66:	d908      	bls.n	8008b7a <_free_r+0x46>
 8008b68:	6825      	ldr	r5, [r4, #0]
 8008b6a:	1961      	adds	r1, r4, r5
 8008b6c:	428b      	cmp	r3, r1
 8008b6e:	bf01      	itttt	eq
 8008b70:	6819      	ldreq	r1, [r3, #0]
 8008b72:	685b      	ldreq	r3, [r3, #4]
 8008b74:	1949      	addeq	r1, r1, r5
 8008b76:	6021      	streq	r1, [r4, #0]
 8008b78:	e7ed      	b.n	8008b56 <_free_r+0x22>
 8008b7a:	461a      	mov	r2, r3
 8008b7c:	685b      	ldr	r3, [r3, #4]
 8008b7e:	b10b      	cbz	r3, 8008b84 <_free_r+0x50>
 8008b80:	42a3      	cmp	r3, r4
 8008b82:	d9fa      	bls.n	8008b7a <_free_r+0x46>
 8008b84:	6811      	ldr	r1, [r2, #0]
 8008b86:	1855      	adds	r5, r2, r1
 8008b88:	42a5      	cmp	r5, r4
 8008b8a:	d10b      	bne.n	8008ba4 <_free_r+0x70>
 8008b8c:	6824      	ldr	r4, [r4, #0]
 8008b8e:	4421      	add	r1, r4
 8008b90:	1854      	adds	r4, r2, r1
 8008b92:	42a3      	cmp	r3, r4
 8008b94:	6011      	str	r1, [r2, #0]
 8008b96:	d1e0      	bne.n	8008b5a <_free_r+0x26>
 8008b98:	681c      	ldr	r4, [r3, #0]
 8008b9a:	685b      	ldr	r3, [r3, #4]
 8008b9c:	6053      	str	r3, [r2, #4]
 8008b9e:	4421      	add	r1, r4
 8008ba0:	6011      	str	r1, [r2, #0]
 8008ba2:	e7da      	b.n	8008b5a <_free_r+0x26>
 8008ba4:	d902      	bls.n	8008bac <_free_r+0x78>
 8008ba6:	230c      	movs	r3, #12
 8008ba8:	6003      	str	r3, [r0, #0]
 8008baa:	e7d6      	b.n	8008b5a <_free_r+0x26>
 8008bac:	6825      	ldr	r5, [r4, #0]
 8008bae:	1961      	adds	r1, r4, r5
 8008bb0:	428b      	cmp	r3, r1
 8008bb2:	bf04      	itt	eq
 8008bb4:	6819      	ldreq	r1, [r3, #0]
 8008bb6:	685b      	ldreq	r3, [r3, #4]
 8008bb8:	6063      	str	r3, [r4, #4]
 8008bba:	bf04      	itt	eq
 8008bbc:	1949      	addeq	r1, r1, r5
 8008bbe:	6021      	streq	r1, [r4, #0]
 8008bc0:	6054      	str	r4, [r2, #4]
 8008bc2:	e7ca      	b.n	8008b5a <_free_r+0x26>
 8008bc4:	b003      	add	sp, #12
 8008bc6:	bd30      	pop	{r4, r5, pc}
 8008bc8:	200008e0 	.word	0x200008e0

08008bcc <sbrk_aligned>:
 8008bcc:	b570      	push	{r4, r5, r6, lr}
 8008bce:	4e0e      	ldr	r6, [pc, #56]	; (8008c08 <sbrk_aligned+0x3c>)
 8008bd0:	460c      	mov	r4, r1
 8008bd2:	6831      	ldr	r1, [r6, #0]
 8008bd4:	4605      	mov	r5, r0
 8008bd6:	b911      	cbnz	r1, 8008bde <sbrk_aligned+0x12>
 8008bd8:	f000 f9e8 	bl	8008fac <_sbrk_r>
 8008bdc:	6030      	str	r0, [r6, #0]
 8008bde:	4621      	mov	r1, r4
 8008be0:	4628      	mov	r0, r5
 8008be2:	f000 f9e3 	bl	8008fac <_sbrk_r>
 8008be6:	1c43      	adds	r3, r0, #1
 8008be8:	d00a      	beq.n	8008c00 <sbrk_aligned+0x34>
 8008bea:	1cc4      	adds	r4, r0, #3
 8008bec:	f024 0403 	bic.w	r4, r4, #3
 8008bf0:	42a0      	cmp	r0, r4
 8008bf2:	d007      	beq.n	8008c04 <sbrk_aligned+0x38>
 8008bf4:	1a21      	subs	r1, r4, r0
 8008bf6:	4628      	mov	r0, r5
 8008bf8:	f000 f9d8 	bl	8008fac <_sbrk_r>
 8008bfc:	3001      	adds	r0, #1
 8008bfe:	d101      	bne.n	8008c04 <sbrk_aligned+0x38>
 8008c00:	f04f 34ff 	mov.w	r4, #4294967295
 8008c04:	4620      	mov	r0, r4
 8008c06:	bd70      	pop	{r4, r5, r6, pc}
 8008c08:	200008e4 	.word	0x200008e4

08008c0c <_malloc_r>:
 8008c0c:	e92d 41f0 	stmdb	sp!, {r4, r5, r6, r7, r8, lr}
 8008c10:	1ccd      	adds	r5, r1, #3
 8008c12:	f025 0503 	bic.w	r5, r5, #3
 8008c16:	3508      	adds	r5, #8
 8008c18:	2d0c      	cmp	r5, #12
 8008c1a:	bf38      	it	cc
 8008c1c:	250c      	movcc	r5, #12
 8008c1e:	2d00      	cmp	r5, #0
 8008c20:	4607      	mov	r7, r0
 8008c22:	db01      	blt.n	8008c28 <_malloc_r+0x1c>
 8008c24:	42a9      	cmp	r1, r5
 8008c26:	d905      	bls.n	8008c34 <_malloc_r+0x28>
 8008c28:	230c      	movs	r3, #12
 8008c2a:	603b      	str	r3, [r7, #0]
 8008c2c:	2600      	movs	r6, #0
 8008c2e:	4630      	mov	r0, r6
 8008c30:	e8bd 81f0 	ldmia.w	sp!, {r4, r5, r6, r7, r8, pc}
 8008c34:	4e2e      	ldr	r6, [pc, #184]	; (8008cf0 <_malloc_r+0xe4>)
 8008c36:	f000 fa25 	bl	8009084 <__malloc_lock>
 8008c3a:	6833      	ldr	r3, [r6, #0]
 8008c3c:	461c      	mov	r4, r3
 8008c3e:	bb34      	cbnz	r4, 8008c8e <_malloc_r+0x82>
 8008c40:	4629      	mov	r1, r5
 8008c42:	4638      	mov	r0, r7
 8008c44:	f7ff ffc2 	bl	8008bcc <sbrk_aligned>
 8008c48:	1c43      	adds	r3, r0, #1
 8008c4a:	4604      	mov	r4, r0
 8008c4c:	d14d      	bne.n	8008cea <_malloc_r+0xde>
 8008c4e:	6834      	ldr	r4, [r6, #0]
 8008c50:	4626      	mov	r6, r4
 8008c52:	2e00      	cmp	r6, #0
 8008c54:	d140      	bne.n	8008cd8 <_malloc_r+0xcc>
 8008c56:	6823      	ldr	r3, [r4, #0]
 8008c58:	4631      	mov	r1, r6
 8008c5a:	4638      	mov	r0, r7
 8008c5c:	eb04 0803 	add.w	r8, r4, r3
 8008c60:	f000 f9a4 	bl	8008fac <_sbrk_r>
 8008c64:	4580      	cmp	r8, r0
 8008c66:	d13a      	bne.n	8008cde <_malloc_r+0xd2>
 8008c68:	6821      	ldr	r1, [r4, #0]
 8008c6a:	3503      	adds	r5, #3
 8008c6c:	1a6d      	subs	r5, r5, r1
 8008c6e:	f025 0503 	bic.w	r5, r5, #3
 8008c72:	3508      	adds	r5, #8
 8008c74:	2d0c      	cmp	r5, #12
 8008c76:	bf38      	it	cc
 8008c78:	250c      	movcc	r5, #12
 8008c7a:	4629      	mov	r1, r5
 8008c7c:	4638      	mov	r0, r7
 8008c7e:	f7ff ffa5 	bl	8008bcc <sbrk_aligned>
 8008c82:	3001      	adds	r0, #1
 8008c84:	d02b      	beq.n	8008cde <_malloc_r+0xd2>
 8008c86:	6823      	ldr	r3, [r4, #0]
 8008c88:	442b      	add	r3, r5
 8008c8a:	6023      	str	r3, [r4, #0]
 8008c8c:	e00e      	b.n	8008cac <_malloc_r+0xa0>
 8008c8e:	6822      	ldr	r2, [r4, #0]
 8008c90:	1b52      	subs	r2, r2, r5
 8008c92:	d41e      	bmi.n	8008cd2 <_malloc_r+0xc6>
 8008c94:	2a0b      	cmp	r2, #11
 8008c96:	d916      	bls.n	8008cc6 <_malloc_r+0xba>
 8008c98:	1961      	adds	r1, r4, r5
 8008c9a:	42a3      	cmp	r3, r4
 8008c9c:	6025      	str	r5, [r4, #0]
 8008c9e:	bf18      	it	ne
 8008ca0:	6059      	strne	r1, [r3, #4]
 8008ca2:	6863      	ldr	r3, [r4, #4]
 8008ca4:	bf08      	it	eq
 8008ca6:	6031      	streq	r1, [r6, #0]
 8008ca8:	5162      	str	r2, [r4, r5]
 8008caa:	604b      	str	r3, [r1, #4]
 8008cac:	4638      	mov	r0, r7
 8008cae:	f104 060b 	add.w	r6, r4, #11
 8008cb2:	f000 f9ed 	bl	8009090 <__malloc_unlock>
 8008cb6:	f026 0607 	bic.w	r6, r6, #7
 8008cba:	1d23      	adds	r3, r4, #4
 8008cbc:	1af2      	subs	r2, r6, r3
 8008cbe:	d0b6      	beq.n	8008c2e <_malloc_r+0x22>
 8008cc0:	1b9b      	subs	r3, r3, r6
 8008cc2:	50a3      	str	r3, [r4, r2]
 8008cc4:	e7b3      	b.n	8008c2e <_malloc_r+0x22>
 8008cc6:	6862      	ldr	r2, [r4, #4]
 8008cc8:	42a3      	cmp	r3, r4
 8008cca:	bf0c      	ite	eq
 8008ccc:	6032      	streq	r2, [r6, #0]
 8008cce:	605a      	strne	r2, [r3, #4]
 8008cd0:	e7ec      	b.n	8008cac <_malloc_r+0xa0>
 8008cd2:	4623      	mov	r3, r4
 8008cd4:	6864      	ldr	r4, [r4, #4]
 8008cd6:	e7b2      	b.n	8008c3e <_malloc_r+0x32>
 8008cd8:	4634      	mov	r4, r6
 8008cda:	6876      	ldr	r6, [r6, #4]
 8008cdc:	e7b9      	b.n	8008c52 <_malloc_r+0x46>
 8008cde:	230c      	movs	r3, #12
 8008ce0:	603b      	str	r3, [r7, #0]
 8008ce2:	4638      	mov	r0, r7
 8008ce4:	f000 f9d4 	bl	8009090 <__malloc_unlock>
 8008ce8:	e7a1      	b.n	8008c2e <_malloc_r+0x22>
 8008cea:	6025      	str	r5, [r4, #0]
 8008cec:	e7de      	b.n	8008cac <_malloc_r+0xa0>
 8008cee:	bf00      	nop
 8008cf0:	200008e0 	.word	0x200008e0

08008cf4 <__ssputs_r>:
 8008cf4:	e92d 47f0 	stmdb	sp!, {r4, r5, r6, r7, r8, r9, sl, lr}
 8008cf8:	688e      	ldr	r6, [r1, #8]
 8008cfa:	429e      	cmp	r6, r3
 8008cfc:	4682      	mov	sl, r0
 8008cfe:	460c      	mov	r4, r1
 8008d00:	4690      	mov	r8, r2
 8008d02:	461f      	mov	r7, r3
 8008d04:	d838      	bhi.n	8008d78 <__ssputs_r+0x84>
 8008d06:	898a      	ldrh	r2, [r1, #12]
 8008d08:	f412 6f90 	tst.w	r2, #1152	; 0x480
 8008d0c:	d032      	beq.n	8008d74 <__ssputs_r+0x80>
 8008d0e:	6825      	ldr	r5, [r4, #0]
 8008d10:	6909      	ldr	r1, [r1, #16]
 8008d12:	eba5 0901 	sub.w	r9, r5, r1
 8008d16:	6965      	ldr	r5, [r4, #20]
 8008d18:	eb05 0545 	add.w	r5, r5, r5, lsl #1
 8008d1c:	eb05 75d5 	add.w	r5, r5, r5, lsr #31
 8008d20:	3301      	adds	r3, #1
 8008d22:	444b      	add	r3, r9
 8008d24:	106d      	asrs	r5, r5, #1
 8008d26:	429d      	cmp	r5, r3
 8008d28:	bf38      	it	cc
 8008d2a:	461d      	movcc	r5, r3
 8008d2c:	0553      	lsls	r3, r2, #21
 8008d2e:	d531      	bpl.n	8008d94 <__ssputs_r+0xa0>
 8008d30:	4629      	mov	r1, r5
 8008d32:	f7ff ff6b 	bl	8008c0c <_malloc_r>
 8008d36:	4606      	mov	r6, r0
 8008d38:	b950      	cbnz	r0, 8008d50 <__ssputs_r+0x5c>
 8008d3a:	230c      	movs	r3, #12
 8008d3c:	f8ca 3000 	str.w	r3, [sl]
 8008d40:	89a3      	ldrh	r3, [r4, #12]
 8008d42:	f043 0340 	orr.w	r3, r3, #64	; 0x40
 8008d46:	81a3      	strh	r3, [r4, #12]
 8008d48:	f04f 30ff 	mov.w	r0, #4294967295
 8008d4c:	e8bd 87f0 	ldmia.w	sp!, {r4, r5, r6, r7, r8, r9, sl, pc}
 8008d50:	6921      	ldr	r1, [r4, #16]
 8008d52:	464a      	mov	r2, r9
 8008d54:	f7ff fb46 	bl	80083e4 <memcpy>
 8008d58:	89a3      	ldrh	r3, [r4, #12]
 8008d5a:	f423 6390 	bic.w	r3, r3, #1152	; 0x480
 8008d5e:	f043 0380 	orr.w	r3, r3, #128	; 0x80
 8008d62:	81a3      	strh	r3, [r4, #12]
 8008d64:	6126      	str	r6, [r4, #16]
 8008d66:	6165      	str	r5, [r4, #20]
 8008d68:	444e      	add	r6, r9
 8008d6a:	eba5 0509 	sub.w	r5, r5, r9
 8008d6e:	6026      	str	r6, [r4, #0]
 8008d70:	60a5      	str	r5, [r4, #8]
 8008d72:	463e      	mov	r6, r7
 8008d74:	42be      	cmp	r6, r7
 8008d76:	d900      	bls.n	8008d7a <__ssputs_r+0x86>
 8008d78:	463e      	mov	r6, r7
 8008d7a:	6820      	ldr	r0, [r4, #0]
 8008d7c:	4632      	mov	r2, r6
 8008d7e:	4641      	mov	r1, r8
 8008d80:	f000 f966 	bl	8009050 <memmove>
 8008d84:	68a3      	ldr	r3, [r4, #8]
 8008d86:	1b9b      	subs	r3, r3, r6
 8008d88:	60a3      	str	r3, [r4, #8]
 8008d8a:	6823      	ldr	r3, [r4, #0]
 8008d8c:	4433      	add	r3, r6
 8008d8e:	6023      	str	r3, [r4, #0]
 8008d90:	2000      	movs	r0, #0
 8008d92:	e7db      	b.n	8008d4c <__ssputs_r+0x58>
 8008d94:	462a      	mov	r2, r5
 8008d96:	f000 f981 	bl	800909c <_realloc_r>
 8008d9a:	4606      	mov	r6, r0
 8008d9c:	2800      	cmp	r0, #0
 8008d9e:	d1e1      	bne.n	8008d64 <__ssputs_r+0x70>
 8008da0:	6921      	ldr	r1, [r4, #16]
 8008da2:	4650      	mov	r0, sl
 8008da4:	f7ff fec6 	bl	8008b34 <_free_r>
 8008da8:	e7c7      	b.n	8008d3a <__ssputs_r+0x46>
	...

08008dac <_svfiprintf_r>:
 8008dac:	e92d 4ff0 	stmdb	sp!, {r4, r5, r6, r7, r8, r9, sl, fp, lr}
 8008db0:	4698      	mov	r8, r3
 8008db2:	898b      	ldrh	r3, [r1, #12]
 8008db4:	061b      	lsls	r3, r3, #24
 8008db6:	b09d      	sub	sp, #116	; 0x74
 8008db8:	4607      	mov	r7, r0
 8008dba:	460d      	mov	r5, r1
 8008dbc:	4614      	mov	r4, r2
 8008dbe:	d50e      	bpl.n	8008dde <_svfiprintf_r+0x32>
 8008dc0:	690b      	ldr	r3, [r1, #16]
 8008dc2:	b963      	cbnz	r3, 8008dde <_svfiprintf_r+0x32>
 8008dc4:	2140      	movs	r1, #64	; 0x40
 8008dc6:	f7ff ff21 	bl	8008c0c <_malloc_r>
 8008dca:	6028      	str	r0, [r5, #0]
 8008dcc:	6128      	str	r0, [r5, #16]
 8008dce:	b920      	cbnz	r0, 8008dda <_svfiprintf_r+0x2e>
 8008dd0:	230c      	movs	r3, #12
 8008dd2:	603b      	str	r3, [r7, #0]
 8008dd4:	f04f 30ff 	mov.w	r0, #4294967295
 8008dd8:	e0d1      	b.n	8008f7e <_svfiprintf_r+0x1d2>
 8008dda:	2340      	movs	r3, #64	; 0x40
 8008ddc:	616b      	str	r3, [r5, #20]
 8008dde:	2300      	movs	r3, #0
 8008de0:	9309      	str	r3, [sp, #36]	; 0x24
 8008de2:	2320      	movs	r3, #32
 8008de4:	f88d 3029 	strb.w	r3, [sp, #41]	; 0x29
 8008de8:	f8cd 800c 	str.w	r8, [sp, #12]
 8008dec:	2330      	movs	r3, #48	; 0x30
 8008dee:	f8df 81a8 	ldr.w	r8, [pc, #424]	; 8008f98 <_svfiprintf_r+0x1ec>
 8008df2:	f88d 302a 	strb.w	r3, [sp, #42]	; 0x2a
 8008df6:	f04f 0901 	mov.w	r9, #1
 8008dfa:	4623      	mov	r3, r4
 8008dfc:	469a      	mov	sl, r3
 8008dfe:	f813 2b01 	ldrb.w	r2, [r3], #1
 8008e02:	b10a      	cbz	r2, 8008e08 <_svfiprintf_r+0x5c>
 8008e04:	2a25      	cmp	r2, #37	; 0x25
 8008e06:	d1f9      	bne.n	8008dfc <_svfiprintf_r+0x50>
 8008e08:	ebba 0b04 	subs.w	fp, sl, r4
 8008e0c:	d00b      	beq.n	8008e26 <_svfiprintf_r+0x7a>
 8008e0e:	465b      	mov	r3, fp
 8008e10:	4622      	mov	r2, r4
 8008e12:	4629      	mov	r1, r5
 8008e14:	4638      	mov	r0, r7
 8008e16:	f7ff ff6d 	bl	8008cf4 <__ssputs_r>
 8008e1a:	3001      	adds	r0, #1
 8008e1c:	f000 80aa 	beq.w	8008f74 <_svfiprintf_r+0x1c8>
 8008e20:	9a09      	ldr	r2, [sp, #36]	; 0x24
 8008e22:	445a      	add	r2, fp
 8008e24:	9209      	str	r2, [sp, #36]	; 0x24
 8008e26:	f89a 3000 	ldrb.w	r3, [sl]
 8008e2a:	2b00      	cmp	r3, #0
 8008e2c:	f000 80a2 	beq.w	8008f74 <_svfiprintf_r+0x1c8>
 8008e30:	2300      	movs	r3, #0
 8008e32:	f04f 32ff 	mov.w	r2, #4294967295
 8008e36:	e9cd 2305 	strd	r2, r3, [sp, #20]
 8008e3a:	f10a 0a01 	add.w	sl, sl, #1
 8008e3e:	9304      	str	r3, [sp, #16]
 8008e40:	9307      	str	r3, [sp, #28]
 8008e42:	f88d 3053 	strb.w	r3, [sp, #83]	; 0x53
 8008e46:	931a      	str	r3, [sp, #104]	; 0x68
 8008e48:	4654      	mov	r4, sl
 8008e4a:	2205      	movs	r2, #5
 8008e4c:	f814 1b01 	ldrb.w	r1, [r4], #1
 8008e50:	4851      	ldr	r0, [pc, #324]	; (8008f98 <_svfiprintf_r+0x1ec>)
 8008e52:	f7f7 f9c5 	bl	80001e0 <memchr>
 8008e56:	9a04      	ldr	r2, [sp, #16]
 8008e58:	b9d8      	cbnz	r0, 8008e92 <_svfiprintf_r+0xe6>
 8008e5a:	06d0      	lsls	r0, r2, #27
 8008e5c:	bf44      	itt	mi
 8008e5e:	2320      	movmi	r3, #32
 8008e60:	f88d 3053 	strbmi.w	r3, [sp, #83]	; 0x53
 8008e64:	0711      	lsls	r1, r2, #28
 8008e66:	bf44      	itt	mi
 8008e68:	232b      	movmi	r3, #43	; 0x2b
 8008e6a:	f88d 3053 	strbmi.w	r3, [sp, #83]	; 0x53
 8008e6e:	f89a 3000 	ldrb.w	r3, [sl]
 8008e72:	2b2a      	cmp	r3, #42	; 0x2a
 8008e74:	d015      	beq.n	8008ea2 <_svfiprintf_r+0xf6>
 8008e76:	9a07      	ldr	r2, [sp, #28]
 8008e78:	4654      	mov	r4, sl
 8008e7a:	2000      	movs	r0, #0
 8008e7c:	f04f 0c0a 	mov.w	ip, #10
 8008e80:	4621      	mov	r1, r4
 8008e82:	f811 3b01 	ldrb.w	r3, [r1], #1
 8008e86:	3b30      	subs	r3, #48	; 0x30
 8008e88:	2b09      	cmp	r3, #9
 8008e8a:	d94e      	bls.n	8008f2a <_svfiprintf_r+0x17e>
 8008e8c:	b1b0      	cbz	r0, 8008ebc <_svfiprintf_r+0x110>
 8008e8e:	9207      	str	r2, [sp, #28]
 8008e90:	e014      	b.n	8008ebc <_svfiprintf_r+0x110>
 8008e92:	eba0 0308 	sub.w	r3, r0, r8
 8008e96:	fa09 f303 	lsl.w	r3, r9, r3
 8008e9a:	4313      	orrs	r3, r2
 8008e9c:	9304      	str	r3, [sp, #16]
 8008e9e:	46a2      	mov	sl, r4
 8008ea0:	e7d2      	b.n	8008e48 <_svfiprintf_r+0x9c>
 8008ea2:	9b03      	ldr	r3, [sp, #12]
 8008ea4:	1d19      	adds	r1, r3, #4
 8008ea6:	681b      	ldr	r3, [r3, #0]
 8008ea8:	9103      	str	r1, [sp, #12]
 8008eaa:	2b00      	cmp	r3, #0
 8008eac:	bfbb      	ittet	lt
 8008eae:	425b      	neglt	r3, r3
 8008eb0:	f042 0202 	orrlt.w	r2, r2, #2
 8008eb4:	9307      	strge	r3, [sp, #28]
 8008eb6:	9307      	strlt	r3, [sp, #28]
 8008eb8:	bfb8      	it	lt
 8008eba:	9204      	strlt	r2, [sp, #16]
 8008ebc:	7823      	ldrb	r3, [r4, #0]
 8008ebe:	2b2e      	cmp	r3, #46	; 0x2e
 8008ec0:	d10c      	bne.n	8008edc <_svfiprintf_r+0x130>
 8008ec2:	7863      	ldrb	r3, [r4, #1]
 8008ec4:	2b2a      	cmp	r3, #42	; 0x2a
 8008ec6:	d135      	bne.n	8008f34 <_svfiprintf_r+0x188>
 8008ec8:	9b03      	ldr	r3, [sp, #12]
 8008eca:	1d1a      	adds	r2, r3, #4
 8008ecc:	681b      	ldr	r3, [r3, #0]
 8008ece:	9203      	str	r2, [sp, #12]
 8008ed0:	2b00      	cmp	r3, #0
 8008ed2:	bfb8      	it	lt
 8008ed4:	f04f 33ff 	movlt.w	r3, #4294967295
 8008ed8:	3402      	adds	r4, #2
 8008eda:	9305      	str	r3, [sp, #20]
 8008edc:	f8df a0c8 	ldr.w	sl, [pc, #200]	; 8008fa8 <_svfiprintf_r+0x1fc>
 8008ee0:	7821      	ldrb	r1, [r4, #0]
 8008ee2:	2203      	movs	r2, #3
 8008ee4:	4650      	mov	r0, sl
 8008ee6:	f7f7 f97b 	bl	80001e0 <memchr>
 8008eea:	b140      	cbz	r0, 8008efe <_svfiprintf_r+0x152>
 8008eec:	2340      	movs	r3, #64	; 0x40
 8008eee:	eba0 000a 	sub.w	r0, r0, sl
 8008ef2:	fa03 f000 	lsl.w	r0, r3, r0
 8008ef6:	9b04      	ldr	r3, [sp, #16]
 8008ef8:	4303      	orrs	r3, r0
 8008efa:	3401      	adds	r4, #1
 8008efc:	9304      	str	r3, [sp, #16]
 8008efe:	f814 1b01 	ldrb.w	r1, [r4], #1
 8008f02:	4826      	ldr	r0, [pc, #152]	; (8008f9c <_svfiprintf_r+0x1f0>)
 8008f04:	f88d 1028 	strb.w	r1, [sp, #40]	; 0x28
 8008f08:	2206      	movs	r2, #6
 8008f0a:	f7f7 f969 	bl	80001e0 <memchr>
 8008f0e:	2800      	cmp	r0, #0
 8008f10:	d038      	beq.n	8008f84 <_svfiprintf_r+0x1d8>
 8008f12:	4b23      	ldr	r3, [pc, #140]	; (8008fa0 <_svfiprintf_r+0x1f4>)
 8008f14:	bb1b      	cbnz	r3, 8008f5e <_svfiprintf_r+0x1b2>
 8008f16:	9b03      	ldr	r3, [sp, #12]
 8008f18:	3307      	adds	r3, #7
 8008f1a:	f023 0307 	bic.w	r3, r3, #7
 8008f1e:	3308      	adds	r3, #8
 8008f20:	9303      	str	r3, [sp, #12]
 8008f22:	9b09      	ldr	r3, [sp, #36]	; 0x24
 8008f24:	4433      	add	r3, r6
 8008f26:	9309      	str	r3, [sp, #36]	; 0x24
 8008f28:	e767      	b.n	8008dfa <_svfiprintf_r+0x4e>
 8008f2a:	fb0c 3202 	mla	r2, ip, r2, r3
 8008f2e:	460c      	mov	r4, r1
 8008f30:	2001      	movs	r0, #1
 8008f32:	e7a5      	b.n	8008e80 <_svfiprintf_r+0xd4>
 8008f34:	2300      	movs	r3, #0
 8008f36:	3401      	adds	r4, #1
 8008f38:	9305      	str	r3, [sp, #20]
 8008f3a:	4619      	mov	r1, r3
 8008f3c:	f04f 0c0a 	mov.w	ip, #10
 8008f40:	4620      	mov	r0, r4
 8008f42:	f810 2b01 	ldrb.w	r2, [r0], #1
 8008f46:	3a30      	subs	r2, #48	; 0x30
 8008f48:	2a09      	cmp	r2, #9
 8008f4a:	d903      	bls.n	8008f54 <_svfiprintf_r+0x1a8>
 8008f4c:	2b00      	cmp	r3, #0
 8008f4e:	d0c5      	beq.n	8008edc <_svfiprintf_r+0x130>
 8008f50:	9105      	str	r1, [sp, #20]
 8008f52:	e7c3      	b.n	8008edc <_svfiprintf_r+0x130>
 8008f54:	fb0c 2101 	mla	r1, ip, r1, r2
 8008f58:	4604      	mov	r4, r0
 8008f5a:	2301      	movs	r3, #1
 8008f5c:	e7f0      	b.n	8008f40 <_svfiprintf_r+0x194>
 8008f5e:	ab03      	add	r3, sp, #12
 8008f60:	9300      	str	r3, [sp, #0]
 8008f62:	462a      	mov	r2, r5
 8008f64:	4b0f      	ldr	r3, [pc, #60]	; (8008fa4 <_svfiprintf_r+0x1f8>)
 8008f66:	a904      	add	r1, sp, #16
 8008f68:	4638      	mov	r0, r7
 8008f6a:	f7fd ffcb 	bl	8006f04 <_printf_float>
 8008f6e:	1c42      	adds	r2, r0, #1
 8008f70:	4606      	mov	r6, r0
 8008f72:	d1d6      	bne.n	8008f22 <_svfiprintf_r+0x176>
 8008f74:	89ab      	ldrh	r3, [r5, #12]
 8008f76:	065b      	lsls	r3, r3, #25
 8008f78:	f53f af2c 	bmi.w	8008dd4 <_svfiprintf_r+0x28>
 8008f7c:	9809      	ldr	r0, [sp, #36]	; 0x24
 8008f7e:	b01d      	add	sp, #116	; 0x74
 8008f80:	e8bd 8ff0 	ldmia.w	sp!, {r4, r5, r6, r7, r8, r9, sl, fp, pc}
 8008f84:	ab03      	add	r3, sp, #12
 8008f86:	9300      	str	r3, [sp, #0]
 8008f88:	462a      	mov	r2, r5
 8008f8a:	4b06      	ldr	r3, [pc, #24]	; (8008fa4 <_svfiprintf_r+0x1f8>)
 8008f8c:	a904      	add	r1, sp, #16
 8008f8e:	4638      	mov	r0, r7
 8008f90:	f7fe fa5c 	bl	800744c <_printf_i>
 8008f94:	e7eb      	b.n	8008f6e <_svfiprintf_r+0x1c2>
 8008f96:	bf00      	nop
 8008f98:	0800bef4 	.word	0x0800bef4
 8008f9c:	0800befe 	.word	0x0800befe
 8008fa0:	08006f05 	.word	0x08006f05
 8008fa4:	08008cf5 	.word	0x08008cf5
 8008fa8:	0800befa 	.word	0x0800befa

08008fac <_sbrk_r>:
 8008fac:	b538      	push	{r3, r4, r5, lr}
 8008fae:	4d06      	ldr	r5, [pc, #24]	; (8008fc8 <_sbrk_r+0x1c>)
 8008fb0:	2300      	movs	r3, #0
 8008fb2:	4604      	mov	r4, r0
 8008fb4:	4608      	mov	r0, r1
 8008fb6:	602b      	str	r3, [r5, #0]
 8008fb8:	f7f9 fe12 	bl	8002be0 <_sbrk>
 8008fbc:	1c43      	adds	r3, r0, #1
 8008fbe:	d102      	bne.n	8008fc6 <_sbrk_r+0x1a>
 8008fc0:	682b      	ldr	r3, [r5, #0]
 8008fc2:	b103      	cbz	r3, 8008fc6 <_sbrk_r+0x1a>
 8008fc4:	6023      	str	r3, [r4, #0]
 8008fc6:	bd38      	pop	{r3, r4, r5, pc}
 8008fc8:	200008e8 	.word	0x200008e8

08008fcc <__assert_func>:
 8008fcc:	b51f      	push	{r0, r1, r2, r3, r4, lr}
 8008fce:	4614      	mov	r4, r2
 8008fd0:	461a      	mov	r2, r3
 8008fd2:	4b09      	ldr	r3, [pc, #36]	; (8008ff8 <__assert_func+0x2c>)
 8008fd4:	681b      	ldr	r3, [r3, #0]
 8008fd6:	4605      	mov	r5, r0
 8008fd8:	68d8      	ldr	r0, [r3, #12]
 8008fda:	b14c      	cbz	r4, 8008ff0 <__assert_func+0x24>
 8008fdc:	4b07      	ldr	r3, [pc, #28]	; (8008ffc <__assert_func+0x30>)
 8008fde:	9100      	str	r1, [sp, #0]
 8008fe0:	e9cd 3401 	strd	r3, r4, [sp, #4]
 8008fe4:	4906      	ldr	r1, [pc, #24]	; (8009000 <__assert_func+0x34>)
 8008fe6:	462b      	mov	r3, r5
 8008fe8:	f000 f80e 	bl	8009008 <fiprintf>
 8008fec:	f000 faac 	bl	8009548 <abort>
 8008ff0:	4b04      	ldr	r3, [pc, #16]	; (8009004 <__assert_func+0x38>)
 8008ff2:	461c      	mov	r4, r3
 8008ff4:	e7f3      	b.n	8008fde <__assert_func+0x12>
 8008ff6:	bf00      	nop
 8008ff8:	20000240 	.word	0x20000240
 8008ffc:	0800bf05 	.word	0x0800bf05
 8009000:	0800bf12 	.word	0x0800bf12
 8009004:	0800bf40 	.word	0x0800bf40

08009008 <fiprintf>:
 8009008:	b40e      	push	{r1, r2, r3}
 800900a:	b503      	push	{r0, r1, lr}
 800900c:	4601      	mov	r1, r0
 800900e:	ab03      	add	r3, sp, #12
 8009010:	4805      	ldr	r0, [pc, #20]	; (8009028 <fiprintf+0x20>)
 8009012:	f853 2b04 	ldr.w	r2, [r3], #4
 8009016:	6800      	ldr	r0, [r0, #0]
 8009018:	9301      	str	r3, [sp, #4]
 800901a:	f000 f897 	bl	800914c <_vfiprintf_r>
 800901e:	b002      	add	sp, #8
 8009020:	f85d eb04 	ldr.w	lr, [sp], #4
 8009024:	b003      	add	sp, #12
 8009026:	4770      	bx	lr
 8009028:	20000240 	.word	0x20000240

0800902c <__ascii_mbtowc>:
 800902c:	b082      	sub	sp, #8
 800902e:	b901      	cbnz	r1, 8009032 <__ascii_mbtowc+0x6>
 8009030:	a901      	add	r1, sp, #4
 8009032:	b142      	cbz	r2, 8009046 <__ascii_mbtowc+0x1a>
 8009034:	b14b      	cbz	r3, 800904a <__ascii_mbtowc+0x1e>
 8009036:	7813      	ldrb	r3, [r2, #0]
 8009038:	600b      	str	r3, [r1, #0]
 800903a:	7812      	ldrb	r2, [r2, #0]
 800903c:	1e10      	subs	r0, r2, #0
 800903e:	bf18      	it	ne
 8009040:	2001      	movne	r0, #1
 8009042:	b002      	add	sp, #8
 8009044:	4770      	bx	lr
 8009046:	4610      	mov	r0, r2
 8009048:	e7fb      	b.n	8009042 <__ascii_mbtowc+0x16>
 800904a:	f06f 0001 	mvn.w	r0, #1
 800904e:	e7f8      	b.n	8009042 <__ascii_mbtowc+0x16>

08009050 <memmove>:
 8009050:	4288      	cmp	r0, r1
 8009052:	b510      	push	{r4, lr}
 8009054:	eb01 0402 	add.w	r4, r1, r2
 8009058:	d902      	bls.n	8009060 <memmove+0x10>
 800905a:	4284      	cmp	r4, r0
 800905c:	4623      	mov	r3, r4
 800905e:	d807      	bhi.n	8009070 <memmove+0x20>
 8009060:	1e43      	subs	r3, r0, #1
 8009062:	42a1      	cmp	r1, r4
 8009064:	d008      	beq.n	8009078 <memmove+0x28>
 8009066:	f811 2b01 	ldrb.w	r2, [r1], #1
 800906a:	f803 2f01 	strb.w	r2, [r3, #1]!
 800906e:	e7f8      	b.n	8009062 <memmove+0x12>
 8009070:	4402      	add	r2, r0
 8009072:	4601      	mov	r1, r0
 8009074:	428a      	cmp	r2, r1
 8009076:	d100      	bne.n	800907a <memmove+0x2a>
 8009078:	bd10      	pop	{r4, pc}
 800907a:	f813 4d01 	ldrb.w	r4, [r3, #-1]!
 800907e:	f802 4d01 	strb.w	r4, [r2, #-1]!
 8009082:	e7f7      	b.n	8009074 <memmove+0x24>

08009084 <__malloc_lock>:
 8009084:	4801      	ldr	r0, [pc, #4]	; (800908c <__malloc_lock+0x8>)
 8009086:	f000 bc1f 	b.w	80098c8 <__retarget_lock_acquire_recursive>
 800908a:	bf00      	nop
 800908c:	200008ec 	.word	0x200008ec

08009090 <__malloc_unlock>:
 8009090:	4801      	ldr	r0, [pc, #4]	; (8009098 <__malloc_unlock+0x8>)
 8009092:	f000 bc1a 	b.w	80098ca <__retarget_lock_release_recursive>
 8009096:	bf00      	nop
 8009098:	200008ec 	.word	0x200008ec

0800909c <_realloc_r>:
 800909c:	e92d 41f0 	stmdb	sp!, {r4, r5, r6, r7, r8, lr}
 80090a0:	4680      	mov	r8, r0
 80090a2:	4614      	mov	r4, r2
 80090a4:	460e      	mov	r6, r1
 80090a6:	b921      	cbnz	r1, 80090b2 <_realloc_r+0x16>
 80090a8:	e8bd 41f0 	ldmia.w	sp!, {r4, r5, r6, r7, r8, lr}
 80090ac:	4611      	mov	r1, r2
 80090ae:	f7ff bdad 	b.w	8008c0c <_malloc_r>
 80090b2:	b92a      	cbnz	r2, 80090c0 <_realloc_r+0x24>
 80090b4:	f7ff fd3e 	bl	8008b34 <_free_r>
 80090b8:	4625      	mov	r5, r4
 80090ba:	4628      	mov	r0, r5
 80090bc:	e8bd 81f0 	ldmia.w	sp!, {r4, r5, r6, r7, r8, pc}
 80090c0:	f000 fc6a 	bl	8009998 <_malloc_usable_size_r>
 80090c4:	4284      	cmp	r4, r0
 80090c6:	4607      	mov	r7, r0
 80090c8:	d802      	bhi.n	80090d0 <_realloc_r+0x34>
 80090ca:	ebb4 0f50 	cmp.w	r4, r0, lsr #1
 80090ce:	d812      	bhi.n	80090f6 <_realloc_r+0x5a>
 80090d0:	4621      	mov	r1, r4
 80090d2:	4640      	mov	r0, r8
 80090d4:	f7ff fd9a 	bl	8008c0c <_malloc_r>
 80090d8:	4605      	mov	r5, r0
 80090da:	2800      	cmp	r0, #0
 80090dc:	d0ed      	beq.n	80090ba <_realloc_r+0x1e>
 80090de:	42bc      	cmp	r4, r7
 80090e0:	4622      	mov	r2, r4
 80090e2:	4631      	mov	r1, r6
 80090e4:	bf28      	it	cs
 80090e6:	463a      	movcs	r2, r7
 80090e8:	f7ff f97c 	bl	80083e4 <memcpy>
 80090ec:	4631      	mov	r1, r6
 80090ee:	4640      	mov	r0, r8
 80090f0:	f7ff fd20 	bl	8008b34 <_free_r>
 80090f4:	e7e1      	b.n	80090ba <_realloc_r+0x1e>
 80090f6:	4635      	mov	r5, r6
 80090f8:	e7df      	b.n	80090ba <_realloc_r+0x1e>

080090fa <__sfputc_r>:
 80090fa:	6893      	ldr	r3, [r2, #8]
 80090fc:	3b01      	subs	r3, #1
 80090fe:	2b00      	cmp	r3, #0
 8009100:	b410      	push	{r4}
 8009102:	6093      	str	r3, [r2, #8]
 8009104:	da08      	bge.n	8009118 <__sfputc_r+0x1e>
 8009106:	6994      	ldr	r4, [r2, #24]
 8009108:	42a3      	cmp	r3, r4
 800910a:	db01      	blt.n	8009110 <__sfputc_r+0x16>
 800910c:	290a      	cmp	r1, #10
 800910e:	d103      	bne.n	8009118 <__sfputc_r+0x1e>
 8009110:	f85d 4b04 	ldr.w	r4, [sp], #4
 8009114:	f000 b94a 	b.w	80093ac <__swbuf_r>
 8009118:	6813      	ldr	r3, [r2, #0]
 800911a:	1c58      	adds	r0, r3, #1
 800911c:	6010      	str	r0, [r2, #0]
 800911e:	7019      	strb	r1, [r3, #0]
 8009120:	4608      	mov	r0, r1
 8009122:	f85d 4b04 	ldr.w	r4, [sp], #4
 8009126:	4770      	bx	lr

08009128 <__sfputs_r>:
 8009128:	b5f8      	push	{r3, r4, r5, r6, r7, lr}
 800912a:	4606      	mov	r6, r0
 800912c:	460f      	mov	r7, r1
 800912e:	4614      	mov	r4, r2
 8009130:	18d5      	adds	r5, r2, r3
 8009132:	42ac      	cmp	r4, r5
 8009134:	d101      	bne.n	800913a <__sfputs_r+0x12>
 8009136:	2000      	movs	r0, #0
 8009138:	e007      	b.n	800914a <__sfputs_r+0x22>
 800913a:	f814 1b01 	ldrb.w	r1, [r4], #1
 800913e:	463a      	mov	r2, r7
 8009140:	4630      	mov	r0, r6
 8009142:	f7ff ffda 	bl	80090fa <__sfputc_r>
 8009146:	1c43      	adds	r3, r0, #1
 8009148:	d1f3      	bne.n	8009132 <__sfputs_r+0xa>
 800914a:	bdf8      	pop	{r3, r4, r5, r6, r7, pc}

0800914c <_vfiprintf_r>:
 800914c:	e92d 4ff0 	stmdb	sp!, {r4, r5, r6, r7, r8, r9, sl, fp, lr}
 8009150:	460d      	mov	r5, r1
 8009152:	b09d      	sub	sp, #116	; 0x74
 8009154:	4614      	mov	r4, r2
 8009156:	4698      	mov	r8, r3
 8009158:	4606      	mov	r6, r0
 800915a:	b118      	cbz	r0, 8009164 <_vfiprintf_r+0x18>
 800915c:	6983      	ldr	r3, [r0, #24]
 800915e:	b90b      	cbnz	r3, 8009164 <_vfiprintf_r+0x18>
 8009160:	f000 fb14 	bl	800978c <__sinit>
 8009164:	4b89      	ldr	r3, [pc, #548]	; (800938c <_vfiprintf_r+0x240>)
 8009166:	429d      	cmp	r5, r3
 8009168:	d11b      	bne.n	80091a2 <_vfiprintf_r+0x56>
 800916a:	6875      	ldr	r5, [r6, #4]
 800916c:	6e6b      	ldr	r3, [r5, #100]	; 0x64
 800916e:	07d9      	lsls	r1, r3, #31
 8009170:	d405      	bmi.n	800917e <_vfiprintf_r+0x32>
 8009172:	89ab      	ldrh	r3, [r5, #12]
 8009174:	059a      	lsls	r2, r3, #22
 8009176:	d402      	bmi.n	800917e <_vfiprintf_r+0x32>
 8009178:	6da8      	ldr	r0, [r5, #88]	; 0x58
 800917a:	f000 fba5 	bl	80098c8 <__retarget_lock_acquire_recursive>
 800917e:	89ab      	ldrh	r3, [r5, #12]
 8009180:	071b      	lsls	r3, r3, #28
 8009182:	d501      	bpl.n	8009188 <_vfiprintf_r+0x3c>
 8009184:	692b      	ldr	r3, [r5, #16]
 8009186:	b9eb      	cbnz	r3, 80091c4 <_vfiprintf_r+0x78>
 8009188:	4629      	mov	r1, r5
 800918a:	4630      	mov	r0, r6
 800918c:	f000 f96e 	bl	800946c <__swsetup_r>
 8009190:	b1c0      	cbz	r0, 80091c4 <_vfiprintf_r+0x78>
 8009192:	6e6b      	ldr	r3, [r5, #100]	; 0x64
 8009194:	07dc      	lsls	r4, r3, #31
 8009196:	d50e      	bpl.n	80091b6 <_vfiprintf_r+0x6a>
 8009198:	f04f 30ff 	mov.w	r0, #4294967295
 800919c:	b01d      	add	sp, #116	; 0x74
 800919e:	e8bd 8ff0 	ldmia.w	sp!, {r4, r5, r6, r7, r8, r9, sl, fp, pc}
 80091a2:	4b7b      	ldr	r3, [pc, #492]	; (8009390 <_vfiprintf_r+0x244>)
 80091a4:	429d      	cmp	r5, r3
 80091a6:	d101      	bne.n	80091ac <_vfiprintf_r+0x60>
 80091a8:	68b5      	ldr	r5, [r6, #8]
 80091aa:	e7df      	b.n	800916c <_vfiprintf_r+0x20>
 80091ac:	4b79      	ldr	r3, [pc, #484]	; (8009394 <_vfiprintf_r+0x248>)
 80091ae:	429d      	cmp	r5, r3
 80091b0:	bf08      	it	eq
 80091b2:	68f5      	ldreq	r5, [r6, #12]
 80091b4:	e7da      	b.n	800916c <_vfiprintf_r+0x20>
 80091b6:	89ab      	ldrh	r3, [r5, #12]
 80091b8:	0598      	lsls	r0, r3, #22
 80091ba:	d4ed      	bmi.n	8009198 <_vfiprintf_r+0x4c>
 80091bc:	6da8      	ldr	r0, [r5, #88]	; 0x58
 80091be:	f000 fb84 	bl	80098ca <__retarget_lock_release_recursive>
 80091c2:	e7e9      	b.n	8009198 <_vfiprintf_r+0x4c>
 80091c4:	2300      	movs	r3, #0
 80091c6:	9309      	str	r3, [sp, #36]	; 0x24
 80091c8:	2320      	movs	r3, #32
 80091ca:	f88d 3029 	strb.w	r3, [sp, #41]	; 0x29
 80091ce:	f8cd 800c 	str.w	r8, [sp, #12]
 80091d2:	2330      	movs	r3, #48	; 0x30
 80091d4:	f8df 81c0 	ldr.w	r8, [pc, #448]	; 8009398 <_vfiprintf_r+0x24c>
 80091d8:	f88d 302a 	strb.w	r3, [sp, #42]	; 0x2a
 80091dc:	f04f 0901 	mov.w	r9, #1
 80091e0:	4623      	mov	r3, r4
 80091e2:	469a      	mov	sl, r3
 80091e4:	f813 2b01 	ldrb.w	r2, [r3], #1
 80091e8:	b10a      	cbz	r2, 80091ee <_vfiprintf_r+0xa2>
 80091ea:	2a25      	cmp	r2, #37	; 0x25
 80091ec:	d1f9      	bne.n	80091e2 <_vfiprintf_r+0x96>
 80091ee:	ebba 0b04 	subs.w	fp, sl, r4
 80091f2:	d00b      	beq.n	800920c <_vfiprintf_r+0xc0>
 80091f4:	465b      	mov	r3, fp
 80091f6:	4622      	mov	r2, r4
 80091f8:	4629      	mov	r1, r5
 80091fa:	4630      	mov	r0, r6
 80091fc:	f7ff ff94 	bl	8009128 <__sfputs_r>
 8009200:	3001      	adds	r0, #1
 8009202:	f000 80aa 	beq.w	800935a <_vfiprintf_r+0x20e>
 8009206:	9a09      	ldr	r2, [sp, #36]	; 0x24
 8009208:	445a      	add	r2, fp
 800920a:	9209      	str	r2, [sp, #36]	; 0x24
 800920c:	f89a 3000 	ldrb.w	r3, [sl]
 8009210:	2b00      	cmp	r3, #0
 8009212:	f000 80a2 	beq.w	800935a <_vfiprintf_r+0x20e>
 8009216:	2300      	movs	r3, #0
 8009218:	f04f 32ff 	mov.w	r2, #4294967295
 800921c:	e9cd 2305 	strd	r2, r3, [sp, #20]
 8009220:	f10a 0a01 	add.w	sl, sl, #1
 8009224:	9304      	str	r3, [sp, #16]
 8009226:	9307      	str	r3, [sp, #28]
 8009228:	f88d 3053 	strb.w	r3, [sp, #83]	; 0x53
 800922c:	931a      	str	r3, [sp, #104]	; 0x68
 800922e:	4654      	mov	r4, sl
 8009230:	2205      	movs	r2, #5
 8009232:	f814 1b01 	ldrb.w	r1, [r4], #1
 8009236:	4858      	ldr	r0, [pc, #352]	; (8009398 <_vfiprintf_r+0x24c>)
 8009238:	f7f6 ffd2 	bl	80001e0 <memchr>
 800923c:	9a04      	ldr	r2, [sp, #16]
 800923e:	b9d8      	cbnz	r0, 8009278 <_vfiprintf_r+0x12c>
 8009240:	06d1      	lsls	r1, r2, #27
 8009242:	bf44      	itt	mi
 8009244:	2320      	movmi	r3, #32
 8009246:	f88d 3053 	strbmi.w	r3, [sp, #83]	; 0x53
 800924a:	0713      	lsls	r3, r2, #28
 800924c:	bf44      	itt	mi
 800924e:	232b      	movmi	r3, #43	; 0x2b
 8009250:	f88d 3053 	strbmi.w	r3, [sp, #83]	; 0x53
 8009254:	f89a 3000 	ldrb.w	r3, [sl]
 8009258:	2b2a      	cmp	r3, #42	; 0x2a
 800925a:	d015      	beq.n	8009288 <_vfiprintf_r+0x13c>
 800925c:	9a07      	ldr	r2, [sp, #28]
 800925e:	4654      	mov	r4, sl
 8009260:	2000      	movs	r0, #0
 8009262:	f04f 0c0a 	mov.w	ip, #10
 8009266:	4621      	mov	r1, r4
 8009268:	f811 3b01 	ldrb.w	r3, [r1], #1
 800926c:	3b30      	subs	r3, #48	; 0x30
 800926e:	2b09      	cmp	r3, #9
 8009270:	d94e      	bls.n	8009310 <_vfiprintf_r+0x1c4>
 8009272:	b1b0      	cbz	r0, 80092a2 <_vfiprintf_r+0x156>
 8009274:	9207      	str	r2, [sp, #28]
 8009276:	e014      	b.n	80092a2 <_vfiprintf_r+0x156>
 8009278:	eba0 0308 	sub.w	r3, r0, r8
 800927c:	fa09 f303 	lsl.w	r3, r9, r3
 8009280:	4313      	orrs	r3, r2
 8009282:	9304      	str	r3, [sp, #16]
 8009284:	46a2      	mov	sl, r4
 8009286:	e7d2      	b.n	800922e <_vfiprintf_r+0xe2>
 8009288:	9b03      	ldr	r3, [sp, #12]
 800928a:	1d19      	adds	r1, r3, #4
 800928c:	681b      	ldr	r3, [r3, #0]
 800928e:	9103      	str	r1, [sp, #12]
 8009290:	2b00      	cmp	r3, #0
 8009292:	bfbb      	ittet	lt
 8009294:	425b      	neglt	r3, r3
 8009296:	f042 0202 	orrlt.w	r2, r2, #2
 800929a:	9307      	strge	r3, [sp, #28]
 800929c:	9307      	strlt	r3, [sp, #28]
 800929e:	bfb8      	it	lt
 80092a0:	9204      	strlt	r2, [sp, #16]
 80092a2:	7823      	ldrb	r3, [r4, #0]
 80092a4:	2b2e      	cmp	r3, #46	; 0x2e
 80092a6:	d10c      	bne.n	80092c2 <_vfiprintf_r+0x176>
 80092a8:	7863      	ldrb	r3, [r4, #1]
 80092aa:	2b2a      	cmp	r3, #42	; 0x2a
 80092ac:	d135      	bne.n	800931a <_vfiprintf_r+0x1ce>
 80092ae:	9b03      	ldr	r3, [sp, #12]
 80092b0:	1d1a      	adds	r2, r3, #4
 80092b2:	681b      	ldr	r3, [r3, #0]
 80092b4:	9203      	str	r2, [sp, #12]
 80092b6:	2b00      	cmp	r3, #0
 80092b8:	bfb8      	it	lt
 80092ba:	f04f 33ff 	movlt.w	r3, #4294967295
 80092be:	3402      	adds	r4, #2
 80092c0:	9305      	str	r3, [sp, #20]
 80092c2:	f8df a0e4 	ldr.w	sl, [pc, #228]	; 80093a8 <_vfiprintf_r+0x25c>
 80092c6:	7821      	ldrb	r1, [r4, #0]
 80092c8:	2203      	movs	r2, #3
 80092ca:	4650      	mov	r0, sl
 80092cc:	f7f6 ff88 	bl	80001e0 <memchr>
 80092d0:	b140      	cbz	r0, 80092e4 <_vfiprintf_r+0x198>
 80092d2:	2340      	movs	r3, #64	; 0x40
 80092d4:	eba0 000a 	sub.w	r0, r0, sl
 80092d8:	fa03 f000 	lsl.w	r0, r3, r0
 80092dc:	9b04      	ldr	r3, [sp, #16]
 80092de:	4303      	orrs	r3, r0
 80092e0:	3401      	adds	r4, #1
 80092e2:	9304      	str	r3, [sp, #16]
 80092e4:	f814 1b01 	ldrb.w	r1, [r4], #1
 80092e8:	482c      	ldr	r0, [pc, #176]	; (800939c <_vfiprintf_r+0x250>)
 80092ea:	f88d 1028 	strb.w	r1, [sp, #40]	; 0x28
 80092ee:	2206      	movs	r2, #6
 80092f0:	f7f6 ff76 	bl	80001e0 <memchr>
 80092f4:	2800      	cmp	r0, #0
 80092f6:	d03f      	beq.n	8009378 <_vfiprintf_r+0x22c>
 80092f8:	4b29      	ldr	r3, [pc, #164]	; (80093a0 <_vfiprintf_r+0x254>)
 80092fa:	bb1b      	cbnz	r3, 8009344 <_vfiprintf_r+0x1f8>
 80092fc:	9b03      	ldr	r3, [sp, #12]
 80092fe:	3307      	adds	r3, #7
 8009300:	f023 0307 	bic.w	r3, r3, #7
 8009304:	3308      	adds	r3, #8
 8009306:	9303      	str	r3, [sp, #12]
 8009308:	9b09      	ldr	r3, [sp, #36]	; 0x24
 800930a:	443b      	add	r3, r7
 800930c:	9309      	str	r3, [sp, #36]	; 0x24
 800930e:	e767      	b.n	80091e0 <_vfiprintf_r+0x94>
 8009310:	fb0c 3202 	mla	r2, ip, r2, r3
 8009314:	460c      	mov	r4, r1
 8009316:	2001      	movs	r0, #1
 8009318:	e7a5      	b.n	8009266 <_vfiprintf_r+0x11a>
 800931a:	2300      	movs	r3, #0
 800931c:	3401      	adds	r4, #1
 800931e:	9305      	str	r3, [sp, #20]
 8009320:	4619      	mov	r1, r3
 8009322:	f04f 0c0a 	mov.w	ip, #10
 8009326:	4620      	mov	r0, r4
 8009328:	f810 2b01 	ldrb.w	r2, [r0], #1
 800932c:	3a30      	subs	r2, #48	; 0x30
 800932e:	2a09      	cmp	r2, #9
 8009330:	d903      	bls.n	800933a <_vfiprintf_r+0x1ee>
 8009332:	2b00      	cmp	r3, #0
 8009334:	d0c5      	beq.n	80092c2 <_vfiprintf_r+0x176>
 8009336:	9105      	str	r1, [sp, #20]
 8009338:	e7c3      	b.n	80092c2 <_vfiprintf_r+0x176>
 800933a:	fb0c 2101 	mla	r1, ip, r1, r2
 800933e:	4604      	mov	r4, r0
 8009340:	2301      	movs	r3, #1
 8009342:	e7f0      	b.n	8009326 <_vfiprintf_r+0x1da>
 8009344:	ab03      	add	r3, sp, #12
 8009346:	9300      	str	r3, [sp, #0]
 8009348:	462a      	mov	r2, r5
 800934a:	4b16      	ldr	r3, [pc, #88]	; (80093a4 <_vfiprintf_r+0x258>)
 800934c:	a904      	add	r1, sp, #16
 800934e:	4630      	mov	r0, r6
 8009350:	f7fd fdd8 	bl	8006f04 <_printf_float>
 8009354:	4607      	mov	r7, r0
 8009356:	1c78      	adds	r0, r7, #1
 8009358:	d1d6      	bne.n	8009308 <_vfiprintf_r+0x1bc>
 800935a:	6e6b      	ldr	r3, [r5, #100]	; 0x64
 800935c:	07d9      	lsls	r1, r3, #31
 800935e:	d405      	bmi.n	800936c <_vfiprintf_r+0x220>
 8009360:	89ab      	ldrh	r3, [r5, #12]
 8009362:	059a      	lsls	r2, r3, #22
 8009364:	d402      	bmi.n	800936c <_vfiprintf_r+0x220>
 8009366:	6da8      	ldr	r0, [r5, #88]	; 0x58
 8009368:	f000 faaf 	bl	80098ca <__retarget_lock_release_recursive>
 800936c:	89ab      	ldrh	r3, [r5, #12]
 800936e:	065b      	lsls	r3, r3, #25
 8009370:	f53f af12 	bmi.w	8009198 <_vfiprintf_r+0x4c>
 8009374:	9809      	ldr	r0, [sp, #36]	; 0x24
 8009376:	e711      	b.n	800919c <_vfiprintf_r+0x50>
 8009378:	ab03      	add	r3, sp, #12
 800937a:	9300      	str	r3, [sp, #0]
 800937c:	462a      	mov	r2, r5
 800937e:	4b09      	ldr	r3, [pc, #36]	; (80093a4 <_vfiprintf_r+0x258>)
 8009380:	a904      	add	r1, sp, #16
 8009382:	4630      	mov	r0, r6
 8009384:	f7fe f862 	bl	800744c <_printf_i>
 8009388:	e7e4      	b.n	8009354 <_vfiprintf_r+0x208>
 800938a:	bf00      	nop
 800938c:	0800c06c 	.word	0x0800c06c
 8009390:	0800c08c 	.word	0x0800c08c
 8009394:	0800c04c 	.word	0x0800c04c
 8009398:	0800bef4 	.word	0x0800bef4
 800939c:	0800befe 	.word	0x0800befe
 80093a0:	08006f05 	.word	0x08006f05
 80093a4:	08009129 	.word	0x08009129
 80093a8:	0800befa 	.word	0x0800befa

080093ac <__swbuf_r>:
 80093ac:	b5f8      	push	{r3, r4, r5, r6, r7, lr}
 80093ae:	460e      	mov	r6, r1
 80093b0:	4614      	mov	r4, r2
 80093b2:	4605      	mov	r5, r0
 80093b4:	b118      	cbz	r0, 80093be <__swbuf_r+0x12>
 80093b6:	6983      	ldr	r3, [r0, #24]
 80093b8:	b90b      	cbnz	r3, 80093be <__swbuf_r+0x12>
 80093ba:	f000 f9e7 	bl	800978c <__sinit>
 80093be:	4b21      	ldr	r3, [pc, #132]	; (8009444 <__swbuf_r+0x98>)
 80093c0:	429c      	cmp	r4, r3
 80093c2:	d12b      	bne.n	800941c <__swbuf_r+0x70>
 80093c4:	686c      	ldr	r4, [r5, #4]
 80093c6:	69a3      	ldr	r3, [r4, #24]
 80093c8:	60a3      	str	r3, [r4, #8]
 80093ca:	89a3      	ldrh	r3, [r4, #12]
 80093cc:	071a      	lsls	r2, r3, #28
 80093ce:	d52f      	bpl.n	8009430 <__swbuf_r+0x84>
 80093d0:	6923      	ldr	r3, [r4, #16]
 80093d2:	b36b      	cbz	r3, 8009430 <__swbuf_r+0x84>
 80093d4:	6923      	ldr	r3, [r4, #16]
 80093d6:	6820      	ldr	r0, [r4, #0]
 80093d8:	1ac0      	subs	r0, r0, r3
 80093da:	6963      	ldr	r3, [r4, #20]
 80093dc:	b2f6      	uxtb	r6, r6
 80093de:	4283      	cmp	r3, r0
 80093e0:	4637      	mov	r7, r6
 80093e2:	dc04      	bgt.n	80093ee <__swbuf_r+0x42>
 80093e4:	4621      	mov	r1, r4
 80093e6:	4628      	mov	r0, r5
 80093e8:	f000 f93c 	bl	8009664 <_fflush_r>
 80093ec:	bb30      	cbnz	r0, 800943c <__swbuf_r+0x90>
 80093ee:	68a3      	ldr	r3, [r4, #8]
 80093f0:	3b01      	subs	r3, #1
 80093f2:	60a3      	str	r3, [r4, #8]
 80093f4:	6823      	ldr	r3, [r4, #0]
 80093f6:	1c5a      	adds	r2, r3, #1
 80093f8:	6022      	str	r2, [r4, #0]
 80093fa:	701e      	strb	r6, [r3, #0]
 80093fc:	6963      	ldr	r3, [r4, #20]
 80093fe:	3001      	adds	r0, #1
 8009400:	4283      	cmp	r3, r0
 8009402:	d004      	beq.n	800940e <__swbuf_r+0x62>
 8009404:	89a3      	ldrh	r3, [r4, #12]
 8009406:	07db      	lsls	r3, r3, #31
 8009408:	d506      	bpl.n	8009418 <__swbuf_r+0x6c>
 800940a:	2e0a      	cmp	r6, #10
 800940c:	d104      	bne.n	8009418 <__swbuf_r+0x6c>
 800940e:	4621      	mov	r1, r4
 8009410:	4628      	mov	r0, r5
 8009412:	f000 f927 	bl	8009664 <_fflush_r>
 8009416:	b988      	cbnz	r0, 800943c <__swbuf_r+0x90>
 8009418:	4638      	mov	r0, r7
 800941a:	bdf8      	pop	{r3, r4, r5, r6, r7, pc}
 800941c:	4b0a      	ldr	r3, [pc, #40]	; (8009448 <__swbuf_r+0x9c>)
 800941e:	429c      	cmp	r4, r3
 8009420:	d101      	bne.n	8009426 <__swbuf_r+0x7a>
 8009422:	68ac      	ldr	r4, [r5, #8]
 8009424:	e7cf      	b.n	80093c6 <__swbuf_r+0x1a>
 8009426:	4b09      	ldr	r3, [pc, #36]	; (800944c <__swbuf_r+0xa0>)
 8009428:	429c      	cmp	r4, r3
 800942a:	bf08      	it	eq
 800942c:	68ec      	ldreq	r4, [r5, #12]
 800942e:	e7ca      	b.n	80093c6 <__swbuf_r+0x1a>
 8009430:	4621      	mov	r1, r4
 8009432:	4628      	mov	r0, r5
 8009434:	f000 f81a 	bl	800946c <__swsetup_r>
 8009438:	2800      	cmp	r0, #0
 800943a:	d0cb      	beq.n	80093d4 <__swbuf_r+0x28>
 800943c:	f04f 37ff 	mov.w	r7, #4294967295
 8009440:	e7ea      	b.n	8009418 <__swbuf_r+0x6c>
 8009442:	bf00      	nop
 8009444:	0800c06c 	.word	0x0800c06c
 8009448:	0800c08c 	.word	0x0800c08c
 800944c:	0800c04c 	.word	0x0800c04c

08009450 <__ascii_wctomb>:
 8009450:	b149      	cbz	r1, 8009466 <__ascii_wctomb+0x16>
 8009452:	2aff      	cmp	r2, #255	; 0xff
 8009454:	bf85      	ittet	hi
 8009456:	238a      	movhi	r3, #138	; 0x8a
 8009458:	6003      	strhi	r3, [r0, #0]
 800945a:	700a      	strbls	r2, [r1, #0]
 800945c:	f04f 30ff 	movhi.w	r0, #4294967295
 8009460:	bf98      	it	ls
 8009462:	2001      	movls	r0, #1
 8009464:	4770      	bx	lr
 8009466:	4608      	mov	r0, r1
 8009468:	4770      	bx	lr
	...

0800946c <__swsetup_r>:
 800946c:	4b32      	ldr	r3, [pc, #200]	; (8009538 <__swsetup_r+0xcc>)
 800946e:	b570      	push	{r4, r5, r6, lr}
 8009470:	681d      	ldr	r5, [r3, #0]
 8009472:	4606      	mov	r6, r0
 8009474:	460c      	mov	r4, r1
 8009476:	b125      	cbz	r5, 8009482 <__swsetup_r+0x16>
 8009478:	69ab      	ldr	r3, [r5, #24]
 800947a:	b913      	cbnz	r3, 8009482 <__swsetup_r+0x16>
 800947c:	4628      	mov	r0, r5
 800947e:	f000 f985 	bl	800978c <__sinit>
 8009482:	4b2e      	ldr	r3, [pc, #184]	; (800953c <__swsetup_r+0xd0>)
 8009484:	429c      	cmp	r4, r3
 8009486:	d10f      	bne.n	80094a8 <__swsetup_r+0x3c>
 8009488:	686c      	ldr	r4, [r5, #4]
 800948a:	89a3      	ldrh	r3, [r4, #12]
 800948c:	f9b4 200c 	ldrsh.w	r2, [r4, #12]
 8009490:	0719      	lsls	r1, r3, #28
 8009492:	d42c      	bmi.n	80094ee <__swsetup_r+0x82>
 8009494:	06dd      	lsls	r5, r3, #27
 8009496:	d411      	bmi.n	80094bc <__swsetup_r+0x50>
 8009498:	2309      	movs	r3, #9
 800949a:	6033      	str	r3, [r6, #0]
 800949c:	f042 0340 	orr.w	r3, r2, #64	; 0x40
 80094a0:	81a3      	strh	r3, [r4, #12]
 80094a2:	f04f 30ff 	mov.w	r0, #4294967295
 80094a6:	e03e      	b.n	8009526 <__swsetup_r+0xba>
 80094a8:	4b25      	ldr	r3, [pc, #148]	; (8009540 <__swsetup_r+0xd4>)
 80094aa:	429c      	cmp	r4, r3
 80094ac:	d101      	bne.n	80094b2 <__swsetup_r+0x46>
 80094ae:	68ac      	ldr	r4, [r5, #8]
 80094b0:	e7eb      	b.n	800948a <__swsetup_r+0x1e>
 80094b2:	4b24      	ldr	r3, [pc, #144]	; (8009544 <__swsetup_r+0xd8>)
 80094b4:	429c      	cmp	r4, r3
 80094b6:	bf08      	it	eq
 80094b8:	68ec      	ldreq	r4, [r5, #12]
 80094ba:	e7e6      	b.n	800948a <__swsetup_r+0x1e>
 80094bc:	0758      	lsls	r0, r3, #29
 80094be:	d512      	bpl.n	80094e6 <__swsetup_r+0x7a>
 80094c0:	6b61      	ldr	r1, [r4, #52]	; 0x34
 80094c2:	b141      	cbz	r1, 80094d6 <__swsetup_r+0x6a>
 80094c4:	f104 0344 	add.w	r3, r4, #68	; 0x44
 80094c8:	4299      	cmp	r1, r3
 80094ca:	d002      	beq.n	80094d2 <__swsetup_r+0x66>
 80094cc:	4630      	mov	r0, r6
 80094ce:	f7ff fb31 	bl	8008b34 <_free_r>
 80094d2:	2300      	movs	r3, #0
 80094d4:	6363      	str	r3, [r4, #52]	; 0x34
 80094d6:	89a3      	ldrh	r3, [r4, #12]
 80094d8:	f023 0324 	bic.w	r3, r3, #36	; 0x24
 80094dc:	81a3      	strh	r3, [r4, #12]
 80094de:	2300      	movs	r3, #0
 80094e0:	6063      	str	r3, [r4, #4]
 80094e2:	6923      	ldr	r3, [r4, #16]
 80094e4:	6023      	str	r3, [r4, #0]
 80094e6:	89a3      	ldrh	r3, [r4, #12]
 80094e8:	f043 0308 	orr.w	r3, r3, #8
 80094ec:	81a3      	strh	r3, [r4, #12]
 80094ee:	6923      	ldr	r3, [r4, #16]
 80094f0:	b94b      	cbnz	r3, 8009506 <__swsetup_r+0x9a>
 80094f2:	89a3      	ldrh	r3, [r4, #12]
 80094f4:	f403 7320 	and.w	r3, r3, #640	; 0x280
 80094f8:	f5b3 7f00 	cmp.w	r3, #512	; 0x200
 80094fc:	d003      	beq.n	8009506 <__swsetup_r+0x9a>
 80094fe:	4621      	mov	r1, r4
 8009500:	4630      	mov	r0, r6
 8009502:	f000 fa09 	bl	8009918 <__smakebuf_r>
 8009506:	89a0      	ldrh	r0, [r4, #12]
 8009508:	f9b4 200c 	ldrsh.w	r2, [r4, #12]
 800950c:	f010 0301 	ands.w	r3, r0, #1
 8009510:	d00a      	beq.n	8009528 <__swsetup_r+0xbc>
 8009512:	2300      	movs	r3, #0
 8009514:	60a3      	str	r3, [r4, #8]
 8009516:	6963      	ldr	r3, [r4, #20]
 8009518:	425b      	negs	r3, r3
 800951a:	61a3      	str	r3, [r4, #24]
 800951c:	6923      	ldr	r3, [r4, #16]
 800951e:	b943      	cbnz	r3, 8009532 <__swsetup_r+0xc6>
 8009520:	f010 0080 	ands.w	r0, r0, #128	; 0x80
 8009524:	d1ba      	bne.n	800949c <__swsetup_r+0x30>
 8009526:	bd70      	pop	{r4, r5, r6, pc}
 8009528:	0781      	lsls	r1, r0, #30
 800952a:	bf58      	it	pl
 800952c:	6963      	ldrpl	r3, [r4, #20]
 800952e:	60a3      	str	r3, [r4, #8]
 8009530:	e7f4      	b.n	800951c <__swsetup_r+0xb0>
 8009532:	2000      	movs	r0, #0
 8009534:	e7f7      	b.n	8009526 <__swsetup_r+0xba>
 8009536:	bf00      	nop
 8009538:	20000240 	.word	0x20000240
 800953c:	0800c06c 	.word	0x0800c06c
 8009540:	0800c08c 	.word	0x0800c08c
 8009544:	0800c04c 	.word	0x0800c04c

08009548 <abort>:
 8009548:	b508      	push	{r3, lr}
 800954a:	2006      	movs	r0, #6
 800954c:	f000 fa54 	bl	80099f8 <raise>
 8009550:	2001      	movs	r0, #1
 8009552:	f7f9 facd 	bl	8002af0 <_exit>
	...

08009558 <__sflush_r>:
 8009558:	898a      	ldrh	r2, [r1, #12]
 800955a:	e92d 41f0 	stmdb	sp!, {r4, r5, r6, r7, r8, lr}
 800955e:	4605      	mov	r5, r0
 8009560:	0710      	lsls	r0, r2, #28
 8009562:	460c      	mov	r4, r1
 8009564:	d458      	bmi.n	8009618 <__sflush_r+0xc0>
 8009566:	684b      	ldr	r3, [r1, #4]
 8009568:	2b00      	cmp	r3, #0
 800956a:	dc05      	bgt.n	8009578 <__sflush_r+0x20>
 800956c:	6c0b      	ldr	r3, [r1, #64]	; 0x40
 800956e:	2b00      	cmp	r3, #0
 8009570:	dc02      	bgt.n	8009578 <__sflush_r+0x20>
 8009572:	2000      	movs	r0, #0
 8009574:	e8bd 81f0 	ldmia.w	sp!, {r4, r5, r6, r7, r8, pc}
 8009578:	6ae6      	ldr	r6, [r4, #44]	; 0x2c
 800957a:	2e00      	cmp	r6, #0
 800957c:	d0f9      	beq.n	8009572 <__sflush_r+0x1a>
 800957e:	2300      	movs	r3, #0
 8009580:	f412 5280 	ands.w	r2, r2, #4096	; 0x1000
 8009584:	682f      	ldr	r7, [r5, #0]
 8009586:	602b      	str	r3, [r5, #0]
 8009588:	d032      	beq.n	80095f0 <__sflush_r+0x98>
 800958a:	6d60      	ldr	r0, [r4, #84]	; 0x54
 800958c:	89a3      	ldrh	r3, [r4, #12]
 800958e:	075a      	lsls	r2, r3, #29
 8009590:	d505      	bpl.n	800959e <__sflush_r+0x46>
 8009592:	6863      	ldr	r3, [r4, #4]
 8009594:	1ac0      	subs	r0, r0, r3
 8009596:	6b63      	ldr	r3, [r4, #52]	; 0x34
 8009598:	b10b      	cbz	r3, 800959e <__sflush_r+0x46>
 800959a:	6c23      	ldr	r3, [r4, #64]	; 0x40
 800959c:	1ac0      	subs	r0, r0, r3
 800959e:	2300      	movs	r3, #0
 80095a0:	4602      	mov	r2, r0
 80095a2:	6ae6      	ldr	r6, [r4, #44]	; 0x2c
 80095a4:	6a21      	ldr	r1, [r4, #32]
 80095a6:	4628      	mov	r0, r5
 80095a8:	47b0      	blx	r6
 80095aa:	1c43      	adds	r3, r0, #1
 80095ac:	89a3      	ldrh	r3, [r4, #12]
 80095ae:	d106      	bne.n	80095be <__sflush_r+0x66>
 80095b0:	6829      	ldr	r1, [r5, #0]
 80095b2:	291d      	cmp	r1, #29
 80095b4:	d82c      	bhi.n	8009610 <__sflush_r+0xb8>
 80095b6:	4a2a      	ldr	r2, [pc, #168]	; (8009660 <__sflush_r+0x108>)
 80095b8:	40ca      	lsrs	r2, r1
 80095ba:	07d6      	lsls	r6, r2, #31
 80095bc:	d528      	bpl.n	8009610 <__sflush_r+0xb8>
 80095be:	2200      	movs	r2, #0
 80095c0:	6062      	str	r2, [r4, #4]
 80095c2:	04d9      	lsls	r1, r3, #19
 80095c4:	6922      	ldr	r2, [r4, #16]
 80095c6:	6022      	str	r2, [r4, #0]
 80095c8:	d504      	bpl.n	80095d4 <__sflush_r+0x7c>
 80095ca:	1c42      	adds	r2, r0, #1
 80095cc:	d101      	bne.n	80095d2 <__sflush_r+0x7a>
 80095ce:	682b      	ldr	r3, [r5, #0]
 80095d0:	b903      	cbnz	r3, 80095d4 <__sflush_r+0x7c>
 80095d2:	6560      	str	r0, [r4, #84]	; 0x54
 80095d4:	6b61      	ldr	r1, [r4, #52]	; 0x34
 80095d6:	602f      	str	r7, [r5, #0]
 80095d8:	2900      	cmp	r1, #0
 80095da:	d0ca      	beq.n	8009572 <__sflush_r+0x1a>
 80095dc:	f104 0344 	add.w	r3, r4, #68	; 0x44
 80095e0:	4299      	cmp	r1, r3
 80095e2:	d002      	beq.n	80095ea <__sflush_r+0x92>
 80095e4:	4628      	mov	r0, r5
 80095e6:	f7ff faa5 	bl	8008b34 <_free_r>
 80095ea:	2000      	movs	r0, #0
 80095ec:	6360      	str	r0, [r4, #52]	; 0x34
 80095ee:	e7c1      	b.n	8009574 <__sflush_r+0x1c>
 80095f0:	6a21      	ldr	r1, [r4, #32]
 80095f2:	2301      	movs	r3, #1
 80095f4:	4628      	mov	r0, r5
 80095f6:	47b0      	blx	r6
 80095f8:	1c41      	adds	r1, r0, #1
 80095fa:	d1c7      	bne.n	800958c <__sflush_r+0x34>
 80095fc:	682b      	ldr	r3, [r5, #0]
 80095fe:	2b00      	cmp	r3, #0
 8009600:	d0c4      	beq.n	800958c <__sflush_r+0x34>
 8009602:	2b1d      	cmp	r3, #29
 8009604:	d001      	beq.n	800960a <__sflush_r+0xb2>
 8009606:	2b16      	cmp	r3, #22
 8009608:	d101      	bne.n	800960e <__sflush_r+0xb6>
 800960a:	602f      	str	r7, [r5, #0]
 800960c:	e7b1      	b.n	8009572 <__sflush_r+0x1a>
 800960e:	89a3      	ldrh	r3, [r4, #12]
 8009610:	f043 0340 	orr.w	r3, r3, #64	; 0x40
 8009614:	81a3      	strh	r3, [r4, #12]
 8009616:	e7ad      	b.n	8009574 <__sflush_r+0x1c>
 8009618:	690f      	ldr	r7, [r1, #16]
 800961a:	2f00      	cmp	r7, #0
 800961c:	d0a9      	beq.n	8009572 <__sflush_r+0x1a>
 800961e:	0793      	lsls	r3, r2, #30
 8009620:	680e      	ldr	r6, [r1, #0]
 8009622:	bf08      	it	eq
 8009624:	694b      	ldreq	r3, [r1, #20]
 8009626:	600f      	str	r7, [r1, #0]
 8009628:	bf18      	it	ne
 800962a:	2300      	movne	r3, #0
 800962c:	eba6 0807 	sub.w	r8, r6, r7
 8009630:	608b      	str	r3, [r1, #8]
 8009632:	f1b8 0f00 	cmp.w	r8, #0
 8009636:	dd9c      	ble.n	8009572 <__sflush_r+0x1a>
 8009638:	6a21      	ldr	r1, [r4, #32]
 800963a:	6aa6      	ldr	r6, [r4, #40]	; 0x28
 800963c:	4643      	mov	r3, r8
 800963e:	463a      	mov	r2, r7
 8009640:	4628      	mov	r0, r5
 8009642:	47b0      	blx	r6
 8009644:	2800      	cmp	r0, #0
 8009646:	dc06      	bgt.n	8009656 <__sflush_r+0xfe>
 8009648:	89a3      	ldrh	r3, [r4, #12]
 800964a:	f043 0340 	orr.w	r3, r3, #64	; 0x40
 800964e:	81a3      	strh	r3, [r4, #12]
 8009650:	f04f 30ff 	mov.w	r0, #4294967295
 8009654:	e78e      	b.n	8009574 <__sflush_r+0x1c>
 8009656:	4407      	add	r7, r0
 8009658:	eba8 0800 	sub.w	r8, r8, r0
 800965c:	e7e9      	b.n	8009632 <__sflush_r+0xda>
 800965e:	bf00      	nop
 8009660:	20400001 	.word	0x20400001

08009664 <_fflush_r>:
 8009664:	b538      	push	{r3, r4, r5, lr}
 8009666:	690b      	ldr	r3, [r1, #16]
 8009668:	4605      	mov	r5, r0
 800966a:	460c      	mov	r4, r1
 800966c:	b913      	cbnz	r3, 8009674 <_fflush_r+0x10>
 800966e:	2500      	movs	r5, #0
 8009670:	4628      	mov	r0, r5
 8009672:	bd38      	pop	{r3, r4, r5, pc}
 8009674:	b118      	cbz	r0, 800967e <_fflush_r+0x1a>
 8009676:	6983      	ldr	r3, [r0, #24]
 8009678:	b90b      	cbnz	r3, 800967e <_fflush_r+0x1a>
 800967a:	f000 f887 	bl	800978c <__sinit>
 800967e:	4b14      	ldr	r3, [pc, #80]	; (80096d0 <_fflush_r+0x6c>)
 8009680:	429c      	cmp	r4, r3
 8009682:	d11b      	bne.n	80096bc <_fflush_r+0x58>
 8009684:	686c      	ldr	r4, [r5, #4]
 8009686:	f9b4 300c 	ldrsh.w	r3, [r4, #12]
 800968a:	2b00      	cmp	r3, #0
 800968c:	d0ef      	beq.n	800966e <_fflush_r+0xa>
 800968e:	6e62      	ldr	r2, [r4, #100]	; 0x64
 8009690:	07d0      	lsls	r0, r2, #31
 8009692:	d404      	bmi.n	800969e <_fflush_r+0x3a>
 8009694:	0599      	lsls	r1, r3, #22
 8009696:	d402      	bmi.n	800969e <_fflush_r+0x3a>
 8009698:	6da0      	ldr	r0, [r4, #88]	; 0x58
 800969a:	f000 f915 	bl	80098c8 <__retarget_lock_acquire_recursive>
 800969e:	4628      	mov	r0, r5
 80096a0:	4621      	mov	r1, r4
 80096a2:	f7ff ff59 	bl	8009558 <__sflush_r>
 80096a6:	6e63      	ldr	r3, [r4, #100]	; 0x64
 80096a8:	07da      	lsls	r2, r3, #31
 80096aa:	4605      	mov	r5, r0
 80096ac:	d4e0      	bmi.n	8009670 <_fflush_r+0xc>
 80096ae:	89a3      	ldrh	r3, [r4, #12]
 80096b0:	059b      	lsls	r3, r3, #22
 80096b2:	d4dd      	bmi.n	8009670 <_fflush_r+0xc>
 80096b4:	6da0      	ldr	r0, [r4, #88]	; 0x58
 80096b6:	f000 f908 	bl	80098ca <__retarget_lock_release_recursive>
 80096ba:	e7d9      	b.n	8009670 <_fflush_r+0xc>
 80096bc:	4b05      	ldr	r3, [pc, #20]	; (80096d4 <_fflush_r+0x70>)
 80096be:	429c      	cmp	r4, r3
 80096c0:	d101      	bne.n	80096c6 <_fflush_r+0x62>
 80096c2:	68ac      	ldr	r4, [r5, #8]
 80096c4:	e7df      	b.n	8009686 <_fflush_r+0x22>
 80096c6:	4b04      	ldr	r3, [pc, #16]	; (80096d8 <_fflush_r+0x74>)
 80096c8:	429c      	cmp	r4, r3
 80096ca:	bf08      	it	eq
 80096cc:	68ec      	ldreq	r4, [r5, #12]
 80096ce:	e7da      	b.n	8009686 <_fflush_r+0x22>
 80096d0:	0800c06c 	.word	0x0800c06c
 80096d4:	0800c08c 	.word	0x0800c08c
 80096d8:	0800c04c 	.word	0x0800c04c

080096dc <std>:
 80096dc:	2300      	movs	r3, #0
 80096de:	b510      	push	{r4, lr}
 80096e0:	4604      	mov	r4, r0
 80096e2:	e9c0 3300 	strd	r3, r3, [r0]
 80096e6:	e9c0 3304 	strd	r3, r3, [r0, #16]
 80096ea:	6083      	str	r3, [r0, #8]
 80096ec:	8181      	strh	r1, [r0, #12]
 80096ee:	6643      	str	r3, [r0, #100]	; 0x64
 80096f0:	81c2      	strh	r2, [r0, #14]
 80096f2:	6183      	str	r3, [r0, #24]
 80096f4:	4619      	mov	r1, r3
 80096f6:	2208      	movs	r2, #8
 80096f8:	305c      	adds	r0, #92	; 0x5c
 80096fa:	f7fd fb5b 	bl	8006db4 <memset>
 80096fe:	4b05      	ldr	r3, [pc, #20]	; (8009714 <std+0x38>)
 8009700:	6263      	str	r3, [r4, #36]	; 0x24
 8009702:	4b05      	ldr	r3, [pc, #20]	; (8009718 <std+0x3c>)
 8009704:	62a3      	str	r3, [r4, #40]	; 0x28
 8009706:	4b05      	ldr	r3, [pc, #20]	; (800971c <std+0x40>)
 8009708:	62e3      	str	r3, [r4, #44]	; 0x2c
 800970a:	4b05      	ldr	r3, [pc, #20]	; (8009720 <std+0x44>)
 800970c:	6224      	str	r4, [r4, #32]
 800970e:	6323      	str	r3, [r4, #48]	; 0x30
 8009710:	bd10      	pop	{r4, pc}
 8009712:	bf00      	nop
 8009714:	08009a31 	.word	0x08009a31
 8009718:	08009a53 	.word	0x08009a53
 800971c:	08009a8b 	.word	0x08009a8b
 8009720:	08009aaf 	.word	0x08009aaf

08009724 <_cleanup_r>:
 8009724:	4901      	ldr	r1, [pc, #4]	; (800972c <_cleanup_r+0x8>)
 8009726:	f000 b8af 	b.w	8009888 <_fwalk_reent>
 800972a:	bf00      	nop
 800972c:	08009665 	.word	0x08009665

08009730 <__sfmoreglue>:
 8009730:	b570      	push	{r4, r5, r6, lr}
 8009732:	2268      	movs	r2, #104	; 0x68
 8009734:	1e4d      	subs	r5, r1, #1
 8009736:	4355      	muls	r5, r2
 8009738:	460e      	mov	r6, r1
 800973a:	f105 0174 	add.w	r1, r5, #116	; 0x74
 800973e:	f7ff fa65 	bl	8008c0c <_malloc_r>
 8009742:	4604      	mov	r4, r0
 8009744:	b140      	cbz	r0, 8009758 <__sfmoreglue+0x28>
 8009746:	2100      	movs	r1, #0
 8009748:	e9c0 1600 	strd	r1, r6, [r0]
 800974c:	300c      	adds	r0, #12
 800974e:	60a0      	str	r0, [r4, #8]
 8009750:	f105 0268 	add.w	r2, r5, #104	; 0x68
 8009754:	f7fd fb2e 	bl	8006db4 <memset>
 8009758:	4620      	mov	r0, r4
 800975a:	bd70      	pop	{r4, r5, r6, pc}

0800975c <__sfp_lock_acquire>:
 800975c:	4801      	ldr	r0, [pc, #4]	; (8009764 <__sfp_lock_acquire+0x8>)
 800975e:	f000 b8b3 	b.w	80098c8 <__retarget_lock_acquire_recursive>
 8009762:	bf00      	nop
 8009764:	200008ed 	.word	0x200008ed

08009768 <__sfp_lock_release>:
 8009768:	4801      	ldr	r0, [pc, #4]	; (8009770 <__sfp_lock_release+0x8>)
 800976a:	f000 b8ae 	b.w	80098ca <__retarget_lock_release_recursive>
 800976e:	bf00      	nop
 8009770:	200008ed 	.word	0x200008ed

08009774 <__sinit_lock_acquire>:
 8009774:	4801      	ldr	r0, [pc, #4]	; (800977c <__sinit_lock_acquire+0x8>)
 8009776:	f000 b8a7 	b.w	80098c8 <__retarget_lock_acquire_recursive>
 800977a:	bf00      	nop
 800977c:	200008ee 	.word	0x200008ee

08009780 <__sinit_lock_release>:
 8009780:	4801      	ldr	r0, [pc, #4]	; (8009788 <__sinit_lock_release+0x8>)
 8009782:	f000 b8a2 	b.w	80098ca <__retarget_lock_release_recursive>
 8009786:	bf00      	nop
 8009788:	200008ee 	.word	0x200008ee

0800978c <__sinit>:
 800978c:	b510      	push	{r4, lr}
 800978e:	4604      	mov	r4, r0
 8009790:	f7ff fff0 	bl	8009774 <__sinit_lock_acquire>
 8009794:	69a3      	ldr	r3, [r4, #24]
 8009796:	b11b      	cbz	r3, 80097a0 <__sinit+0x14>
 8009798:	e8bd 4010 	ldmia.w	sp!, {r4, lr}
 800979c:	f7ff bff0 	b.w	8009780 <__sinit_lock_release>
 80097a0:	e9c4 3312 	strd	r3, r3, [r4, #72]	; 0x48
 80097a4:	6523      	str	r3, [r4, #80]	; 0x50
 80097a6:	4b13      	ldr	r3, [pc, #76]	; (80097f4 <__sinit+0x68>)
 80097a8:	4a13      	ldr	r2, [pc, #76]	; (80097f8 <__sinit+0x6c>)
 80097aa:	681b      	ldr	r3, [r3, #0]
 80097ac:	62a2      	str	r2, [r4, #40]	; 0x28
 80097ae:	42a3      	cmp	r3, r4
 80097b0:	bf04      	itt	eq
 80097b2:	2301      	moveq	r3, #1
 80097b4:	61a3      	streq	r3, [r4, #24]
 80097b6:	4620      	mov	r0, r4
 80097b8:	f000 f820 	bl	80097fc <__sfp>
 80097bc:	6060      	str	r0, [r4, #4]
 80097be:	4620      	mov	r0, r4
 80097c0:	f000 f81c 	bl	80097fc <__sfp>
 80097c4:	60a0      	str	r0, [r4, #8]
 80097c6:	4620      	mov	r0, r4
 80097c8:	f000 f818 	bl	80097fc <__sfp>
 80097cc:	2200      	movs	r2, #0
 80097ce:	60e0      	str	r0, [r4, #12]
 80097d0:	2104      	movs	r1, #4
 80097d2:	6860      	ldr	r0, [r4, #4]
 80097d4:	f7ff ff82 	bl	80096dc <std>
 80097d8:	68a0      	ldr	r0, [r4, #8]
 80097da:	2201      	movs	r2, #1
 80097dc:	2109      	movs	r1, #9
 80097de:	f7ff ff7d 	bl	80096dc <std>
 80097e2:	68e0      	ldr	r0, [r4, #12]
 80097e4:	2202      	movs	r2, #2
 80097e6:	2112      	movs	r1, #18
 80097e8:	f7ff ff78 	bl	80096dc <std>
 80097ec:	2301      	movs	r3, #1
 80097ee:	61a3      	str	r3, [r4, #24]
 80097f0:	e7d2      	b.n	8009798 <__sinit+0xc>
 80097f2:	bf00      	nop
 80097f4:	0800bcd0 	.word	0x0800bcd0
 80097f8:	08009725 	.word	0x08009725

080097fc <__sfp>:
 80097fc:	b5f8      	push	{r3, r4, r5, r6, r7, lr}
 80097fe:	4607      	mov	r7, r0
 8009800:	f7ff ffac 	bl	800975c <__sfp_lock_acquire>
 8009804:	4b1e      	ldr	r3, [pc, #120]	; (8009880 <__sfp+0x84>)
 8009806:	681e      	ldr	r6, [r3, #0]
 8009808:	69b3      	ldr	r3, [r6, #24]
 800980a:	b913      	cbnz	r3, 8009812 <__sfp+0x16>
 800980c:	4630      	mov	r0, r6
 800980e:	f7ff ffbd 	bl	800978c <__sinit>
 8009812:	3648      	adds	r6, #72	; 0x48
 8009814:	e9d6 3401 	ldrd	r3, r4, [r6, #4]
 8009818:	3b01      	subs	r3, #1
 800981a:	d503      	bpl.n	8009824 <__sfp+0x28>
 800981c:	6833      	ldr	r3, [r6, #0]
 800981e:	b30b      	cbz	r3, 8009864 <__sfp+0x68>
 8009820:	6836      	ldr	r6, [r6, #0]
 8009822:	e7f7      	b.n	8009814 <__sfp+0x18>
 8009824:	f9b4 500c 	ldrsh.w	r5, [r4, #12]
 8009828:	b9d5      	cbnz	r5, 8009860 <__sfp+0x64>
 800982a:	4b16      	ldr	r3, [pc, #88]	; (8009884 <__sfp+0x88>)
 800982c:	60e3      	str	r3, [r4, #12]
 800982e:	f104 0058 	add.w	r0, r4, #88	; 0x58
 8009832:	6665      	str	r5, [r4, #100]	; 0x64
 8009834:	f000 f847 	bl	80098c6 <__retarget_lock_init_recursive>
 8009838:	f7ff ff96 	bl	8009768 <__sfp_lock_release>
 800983c:	e9c4 5501 	strd	r5, r5, [r4, #4]
 8009840:	e9c4 5504 	strd	r5, r5, [r4, #16]
 8009844:	6025      	str	r5, [r4, #0]
 8009846:	61a5      	str	r5, [r4, #24]
 8009848:	2208      	movs	r2, #8
 800984a:	4629      	mov	r1, r5
 800984c:	f104 005c 	add.w	r0, r4, #92	; 0x5c
 8009850:	f7fd fab0 	bl	8006db4 <memset>
 8009854:	e9c4 550d 	strd	r5, r5, [r4, #52]	; 0x34
 8009858:	e9c4 5512 	strd	r5, r5, [r4, #72]	; 0x48
 800985c:	4620      	mov	r0, r4
 800985e:	bdf8      	pop	{r3, r4, r5, r6, r7, pc}
 8009860:	3468      	adds	r4, #104	; 0x68
 8009862:	e7d9      	b.n	8009818 <__sfp+0x1c>
 8009864:	2104      	movs	r1, #4
 8009866:	4638      	mov	r0, r7
 8009868:	f7ff ff62 	bl	8009730 <__sfmoreglue>
 800986c:	4604      	mov	r4, r0
 800986e:	6030      	str	r0, [r6, #0]
 8009870:	2800      	cmp	r0, #0
 8009872:	d1d5      	bne.n	8009820 <__sfp+0x24>
 8009874:	f7ff ff78 	bl	8009768 <__sfp_lock_release>
 8009878:	230c      	movs	r3, #12
 800987a:	603b      	str	r3, [r7, #0]
 800987c:	e7ee      	b.n	800985c <__sfp+0x60>
 800987e:	bf00      	nop
 8009880:	0800bcd0 	.word	0x0800bcd0
 8009884:	ffff0001 	.word	0xffff0001

08009888 <_fwalk_reent>:
 8009888:	e92d 43f8 	stmdb	sp!, {r3, r4, r5, r6, r7, r8, r9, lr}
 800988c:	4606      	mov	r6, r0
 800988e:	4688      	mov	r8, r1
 8009890:	f100 0448 	add.w	r4, r0, #72	; 0x48
 8009894:	2700      	movs	r7, #0
 8009896:	e9d4 9501 	ldrd	r9, r5, [r4, #4]
 800989a:	f1b9 0901 	subs.w	r9, r9, #1
 800989e:	d505      	bpl.n	80098ac <_fwalk_reent+0x24>
 80098a0:	6824      	ldr	r4, [r4, #0]
 80098a2:	2c00      	cmp	r4, #0
 80098a4:	d1f7      	bne.n	8009896 <_fwalk_reent+0xe>
 80098a6:	4638      	mov	r0, r7
 80098a8:	e8bd 83f8 	ldmia.w	sp!, {r3, r4, r5, r6, r7, r8, r9, pc}
 80098ac:	89ab      	ldrh	r3, [r5, #12]
 80098ae:	2b01      	cmp	r3, #1
 80098b0:	d907      	bls.n	80098c2 <_fwalk_reent+0x3a>
 80098b2:	f9b5 300e 	ldrsh.w	r3, [r5, #14]
 80098b6:	3301      	adds	r3, #1
 80098b8:	d003      	beq.n	80098c2 <_fwalk_reent+0x3a>
 80098ba:	4629      	mov	r1, r5
 80098bc:	4630      	mov	r0, r6
 80098be:	47c0      	blx	r8
 80098c0:	4307      	orrs	r7, r0
 80098c2:	3568      	adds	r5, #104	; 0x68
 80098c4:	e7e9      	b.n	800989a <_fwalk_reent+0x12>

080098c6 <__retarget_lock_init_recursive>:
 80098c6:	4770      	bx	lr

080098c8 <__retarget_lock_acquire_recursive>:
 80098c8:	4770      	bx	lr

080098ca <__retarget_lock_release_recursive>:
 80098ca:	4770      	bx	lr

080098cc <__swhatbuf_r>:
 80098cc:	b570      	push	{r4, r5, r6, lr}
 80098ce:	460e      	mov	r6, r1
 80098d0:	f9b1 100e 	ldrsh.w	r1, [r1, #14]
 80098d4:	2900      	cmp	r1, #0
 80098d6:	b096      	sub	sp, #88	; 0x58
 80098d8:	4614      	mov	r4, r2
 80098da:	461d      	mov	r5, r3
 80098dc:	da08      	bge.n	80098f0 <__swhatbuf_r+0x24>
 80098de:	f9b6 300c 	ldrsh.w	r3, [r6, #12]
 80098e2:	2200      	movs	r2, #0
 80098e4:	602a      	str	r2, [r5, #0]
 80098e6:	061a      	lsls	r2, r3, #24
 80098e8:	d410      	bmi.n	800990c <__swhatbuf_r+0x40>
 80098ea:	f44f 6380 	mov.w	r3, #1024	; 0x400
 80098ee:	e00e      	b.n	800990e <__swhatbuf_r+0x42>
 80098f0:	466a      	mov	r2, sp
 80098f2:	f000 f903 	bl	8009afc <_fstat_r>
 80098f6:	2800      	cmp	r0, #0
 80098f8:	dbf1      	blt.n	80098de <__swhatbuf_r+0x12>
 80098fa:	9a01      	ldr	r2, [sp, #4]
 80098fc:	f402 4270 	and.w	r2, r2, #61440	; 0xf000
 8009900:	f5a2 5300 	sub.w	r3, r2, #8192	; 0x2000
 8009904:	425a      	negs	r2, r3
 8009906:	415a      	adcs	r2, r3
 8009908:	602a      	str	r2, [r5, #0]
 800990a:	e7ee      	b.n	80098ea <__swhatbuf_r+0x1e>
 800990c:	2340      	movs	r3, #64	; 0x40
 800990e:	2000      	movs	r0, #0
 8009910:	6023      	str	r3, [r4, #0]
 8009912:	b016      	add	sp, #88	; 0x58
 8009914:	bd70      	pop	{r4, r5, r6, pc}
	...

08009918 <__smakebuf_r>:
 8009918:	898b      	ldrh	r3, [r1, #12]
 800991a:	b573      	push	{r0, r1, r4, r5, r6, lr}
 800991c:	079d      	lsls	r5, r3, #30
 800991e:	4606      	mov	r6, r0
 8009920:	460c      	mov	r4, r1
 8009922:	d507      	bpl.n	8009934 <__smakebuf_r+0x1c>
 8009924:	f104 0347 	add.w	r3, r4, #71	; 0x47
 8009928:	6023      	str	r3, [r4, #0]
 800992a:	6123      	str	r3, [r4, #16]
 800992c:	2301      	movs	r3, #1
 800992e:	6163      	str	r3, [r4, #20]
 8009930:	b002      	add	sp, #8
 8009932:	bd70      	pop	{r4, r5, r6, pc}
 8009934:	ab01      	add	r3, sp, #4
 8009936:	466a      	mov	r2, sp
 8009938:	f7ff ffc8 	bl	80098cc <__swhatbuf_r>
 800993c:	9900      	ldr	r1, [sp, #0]
 800993e:	4605      	mov	r5, r0
 8009940:	4630      	mov	r0, r6
 8009942:	f7ff f963 	bl	8008c0c <_malloc_r>
 8009946:	b948      	cbnz	r0, 800995c <__smakebuf_r+0x44>
 8009948:	f9b4 300c 	ldrsh.w	r3, [r4, #12]
 800994c:	059a      	lsls	r2, r3, #22
 800994e:	d4ef      	bmi.n	8009930 <__smakebuf_r+0x18>
 8009950:	f023 0303 	bic.w	r3, r3, #3
 8009954:	f043 0302 	orr.w	r3, r3, #2
 8009958:	81a3      	strh	r3, [r4, #12]
 800995a:	e7e3      	b.n	8009924 <__smakebuf_r+0xc>
 800995c:	4b0d      	ldr	r3, [pc, #52]	; (8009994 <__smakebuf_r+0x7c>)
 800995e:	62b3      	str	r3, [r6, #40]	; 0x28
 8009960:	89a3      	ldrh	r3, [r4, #12]
 8009962:	6020      	str	r0, [r4, #0]
 8009964:	f043 0380 	orr.w	r3, r3, #128	; 0x80
 8009968:	81a3      	strh	r3, [r4, #12]
 800996a:	9b00      	ldr	r3, [sp, #0]
 800996c:	6163      	str	r3, [r4, #20]
 800996e:	9b01      	ldr	r3, [sp, #4]
 8009970:	6120      	str	r0, [r4, #16]
 8009972:	b15b      	cbz	r3, 800998c <__smakebuf_r+0x74>
 8009974:	f9b4 100e 	ldrsh.w	r1, [r4, #14]
 8009978:	4630      	mov	r0, r6
 800997a:	f000 f8d1 	bl	8009b20 <_isatty_r>
 800997e:	b128      	cbz	r0, 800998c <__smakebuf_r+0x74>
 8009980:	89a3      	ldrh	r3, [r4, #12]
 8009982:	f023 0303 	bic.w	r3, r3, #3
 8009986:	f043 0301 	orr.w	r3, r3, #1
 800998a:	81a3      	strh	r3, [r4, #12]
 800998c:	89a0      	ldrh	r0, [r4, #12]
 800998e:	4305      	orrs	r5, r0
 8009990:	81a5      	strh	r5, [r4, #12]
 8009992:	e7cd      	b.n	8009930 <__smakebuf_r+0x18>
 8009994:	08009725 	.word	0x08009725

08009998 <_malloc_usable_size_r>:
 8009998:	f851 3c04 	ldr.w	r3, [r1, #-4]
 800999c:	1f18      	subs	r0, r3, #4
 800999e:	2b00      	cmp	r3, #0
 80099a0:	bfbc      	itt	lt
 80099a2:	580b      	ldrlt	r3, [r1, r0]
 80099a4:	18c0      	addlt	r0, r0, r3
 80099a6:	4770      	bx	lr

080099a8 <_raise_r>:
 80099a8:	291f      	cmp	r1, #31
 80099aa:	b538      	push	{r3, r4, r5, lr}
 80099ac:	4604      	mov	r4, r0
 80099ae:	460d      	mov	r5, r1
 80099b0:	d904      	bls.n	80099bc <_raise_r+0x14>
 80099b2:	2316      	movs	r3, #22
 80099b4:	6003      	str	r3, [r0, #0]
 80099b6:	f04f 30ff 	mov.w	r0, #4294967295
 80099ba:	bd38      	pop	{r3, r4, r5, pc}
 80099bc:	6c42      	ldr	r2, [r0, #68]	; 0x44
 80099be:	b112      	cbz	r2, 80099c6 <_raise_r+0x1e>
 80099c0:	f852 3021 	ldr.w	r3, [r2, r1, lsl #2]
 80099c4:	b94b      	cbnz	r3, 80099da <_raise_r+0x32>
 80099c6:	4620      	mov	r0, r4
 80099c8:	f000 f830 	bl	8009a2c <_getpid_r>
 80099cc:	462a      	mov	r2, r5
 80099ce:	4601      	mov	r1, r0
 80099d0:	4620      	mov	r0, r4
 80099d2:	e8bd 4038 	ldmia.w	sp!, {r3, r4, r5, lr}
 80099d6:	f000 b817 	b.w	8009a08 <_kill_r>
 80099da:	2b01      	cmp	r3, #1
 80099dc:	d00a      	beq.n	80099f4 <_raise_r+0x4c>
 80099de:	1c59      	adds	r1, r3, #1
 80099e0:	d103      	bne.n	80099ea <_raise_r+0x42>
 80099e2:	2316      	movs	r3, #22
 80099e4:	6003      	str	r3, [r0, #0]
 80099e6:	2001      	movs	r0, #1
 80099e8:	e7e7      	b.n	80099ba <_raise_r+0x12>
 80099ea:	2400      	movs	r4, #0
 80099ec:	f842 4025 	str.w	r4, [r2, r5, lsl #2]
 80099f0:	4628      	mov	r0, r5
 80099f2:	4798      	blx	r3
 80099f4:	2000      	movs	r0, #0
 80099f6:	e7e0      	b.n	80099ba <_raise_r+0x12>

080099f8 <raise>:
 80099f8:	4b02      	ldr	r3, [pc, #8]	; (8009a04 <raise+0xc>)
 80099fa:	4601      	mov	r1, r0
 80099fc:	6818      	ldr	r0, [r3, #0]
 80099fe:	f7ff bfd3 	b.w	80099a8 <_raise_r>
 8009a02:	bf00      	nop
 8009a04:	20000240 	.word	0x20000240

08009a08 <_kill_r>:
 8009a08:	b538      	push	{r3, r4, r5, lr}
 8009a0a:	4d07      	ldr	r5, [pc, #28]	; (8009a28 <_kill_r+0x20>)
 8009a0c:	2300      	movs	r3, #0
 8009a0e:	4604      	mov	r4, r0
 8009a10:	4608      	mov	r0, r1
 8009a12:	4611      	mov	r1, r2
 8009a14:	602b      	str	r3, [r5, #0]
 8009a16:	f7f9 f85b 	bl	8002ad0 <_kill>
 8009a1a:	1c43      	adds	r3, r0, #1
 8009a1c:	d102      	bne.n	8009a24 <_kill_r+0x1c>
 8009a1e:	682b      	ldr	r3, [r5, #0]
 8009a20:	b103      	cbz	r3, 8009a24 <_kill_r+0x1c>
 8009a22:	6023      	str	r3, [r4, #0]
 8009a24:	bd38      	pop	{r3, r4, r5, pc}
 8009a26:	bf00      	nop
 8009a28:	200008e8 	.word	0x200008e8

08009a2c <_getpid_r>:
 8009a2c:	f7f9 b848 	b.w	8002ac0 <_getpid>

08009a30 <__sread>:
 8009a30:	b510      	push	{r4, lr}
 8009a32:	460c      	mov	r4, r1
 8009a34:	f9b1 100e 	ldrsh.w	r1, [r1, #14]
 8009a38:	f000 f894 	bl	8009b64 <_read_r>
 8009a3c:	2800      	cmp	r0, #0
 8009a3e:	bfab      	itete	ge
 8009a40:	6d63      	ldrge	r3, [r4, #84]	; 0x54
 8009a42:	89a3      	ldrhlt	r3, [r4, #12]
 8009a44:	181b      	addge	r3, r3, r0
 8009a46:	f423 5380 	biclt.w	r3, r3, #4096	; 0x1000
 8009a4a:	bfac      	ite	ge
 8009a4c:	6563      	strge	r3, [r4, #84]	; 0x54
 8009a4e:	81a3      	strhlt	r3, [r4, #12]
 8009a50:	bd10      	pop	{r4, pc}

08009a52 <__swrite>:
 8009a52:	e92d 41f0 	stmdb	sp!, {r4, r5, r6, r7, r8, lr}
 8009a56:	461f      	mov	r7, r3
 8009a58:	898b      	ldrh	r3, [r1, #12]
 8009a5a:	05db      	lsls	r3, r3, #23
 8009a5c:	4605      	mov	r5, r0
 8009a5e:	460c      	mov	r4, r1
 8009a60:	4616      	mov	r6, r2
 8009a62:	d505      	bpl.n	8009a70 <__swrite+0x1e>
 8009a64:	f9b1 100e 	ldrsh.w	r1, [r1, #14]
 8009a68:	2302      	movs	r3, #2
 8009a6a:	2200      	movs	r2, #0
 8009a6c:	f000 f868 	bl	8009b40 <_lseek_r>
 8009a70:	89a3      	ldrh	r3, [r4, #12]
 8009a72:	f9b4 100e 	ldrsh.w	r1, [r4, #14]
 8009a76:	f423 5380 	bic.w	r3, r3, #4096	; 0x1000
 8009a7a:	81a3      	strh	r3, [r4, #12]
 8009a7c:	4632      	mov	r2, r6
 8009a7e:	463b      	mov	r3, r7
 8009a80:	4628      	mov	r0, r5
 8009a82:	e8bd 41f0 	ldmia.w	sp!, {r4, r5, r6, r7, r8, lr}
 8009a86:	f000 b817 	b.w	8009ab8 <_write_r>

08009a8a <__sseek>:
 8009a8a:	b510      	push	{r4, lr}
 8009a8c:	460c      	mov	r4, r1
 8009a8e:	f9b1 100e 	ldrsh.w	r1, [r1, #14]
 8009a92:	f000 f855 	bl	8009b40 <_lseek_r>
 8009a96:	1c43      	adds	r3, r0, #1
 8009a98:	89a3      	ldrh	r3, [r4, #12]
 8009a9a:	bf15      	itete	ne
 8009a9c:	6560      	strne	r0, [r4, #84]	; 0x54
 8009a9e:	f423 5380 	biceq.w	r3, r3, #4096	; 0x1000
 8009aa2:	f443 5380 	orrne.w	r3, r3, #4096	; 0x1000
 8009aa6:	81a3      	strheq	r3, [r4, #12]
 8009aa8:	bf18      	it	ne
 8009aaa:	81a3      	strhne	r3, [r4, #12]
 8009aac:	bd10      	pop	{r4, pc}

08009aae <__sclose>:
 8009aae:	f9b1 100e 	ldrsh.w	r1, [r1, #14]
 8009ab2:	f000 b813 	b.w	8009adc <_close_r>
	...

08009ab8 <_write_r>:
 8009ab8:	b538      	push	{r3, r4, r5, lr}
 8009aba:	4d07      	ldr	r5, [pc, #28]	; (8009ad8 <_write_r+0x20>)
 8009abc:	4604      	mov	r4, r0
 8009abe:	4608      	mov	r0, r1
 8009ac0:	4611      	mov	r1, r2
 8009ac2:	2200      	movs	r2, #0
 8009ac4:	602a      	str	r2, [r5, #0]
 8009ac6:	461a      	mov	r2, r3
 8009ac8:	f7f9 f839 	bl	8002b3e <_write>
 8009acc:	1c43      	adds	r3, r0, #1
 8009ace:	d102      	bne.n	8009ad6 <_write_r+0x1e>
 8009ad0:	682b      	ldr	r3, [r5, #0]
 8009ad2:	b103      	cbz	r3, 8009ad6 <_write_r+0x1e>
 8009ad4:	6023      	str	r3, [r4, #0]
 8009ad6:	bd38      	pop	{r3, r4, r5, pc}
 8009ad8:	200008e8 	.word	0x200008e8

08009adc <_close_r>:
 8009adc:	b538      	push	{r3, r4, r5, lr}
 8009ade:	4d06      	ldr	r5, [pc, #24]	; (8009af8 <_close_r+0x1c>)
 8009ae0:	2300      	movs	r3, #0
 8009ae2:	4604      	mov	r4, r0
 8009ae4:	4608      	mov	r0, r1
 8009ae6:	602b      	str	r3, [r5, #0]
 8009ae8:	f7f9 f845 	bl	8002b76 <_close>
 8009aec:	1c43      	adds	r3, r0, #1
 8009aee:	d102      	bne.n	8009af6 <_close_r+0x1a>
 8009af0:	682b      	ldr	r3, [r5, #0]
 8009af2:	b103      	cbz	r3, 8009af6 <_close_r+0x1a>
 8009af4:	6023      	str	r3, [r4, #0]
 8009af6:	bd38      	pop	{r3, r4, r5, pc}
 8009af8:	200008e8 	.word	0x200008e8

08009afc <_fstat_r>:
 8009afc:	b538      	push	{r3, r4, r5, lr}
 8009afe:	4d07      	ldr	r5, [pc, #28]	; (8009b1c <_fstat_r+0x20>)
 8009b00:	2300      	movs	r3, #0
 8009b02:	4604      	mov	r4, r0
 8009b04:	4608      	mov	r0, r1
 8009b06:	4611      	mov	r1, r2
 8009b08:	602b      	str	r3, [r5, #0]
 8009b0a:	f7f9 f840 	bl	8002b8e <_fstat>
 8009b0e:	1c43      	adds	r3, r0, #1
 8009b10:	d102      	bne.n	8009b18 <_fstat_r+0x1c>
 8009b12:	682b      	ldr	r3, [r5, #0]
 8009b14:	b103      	cbz	r3, 8009b18 <_fstat_r+0x1c>
 8009b16:	6023      	str	r3, [r4, #0]
 8009b18:	bd38      	pop	{r3, r4, r5, pc}
 8009b1a:	bf00      	nop
 8009b1c:	200008e8 	.word	0x200008e8

08009b20 <_isatty_r>:
 8009b20:	b538      	push	{r3, r4, r5, lr}
 8009b22:	4d06      	ldr	r5, [pc, #24]	; (8009b3c <_isatty_r+0x1c>)
 8009b24:	2300      	movs	r3, #0
 8009b26:	4604      	mov	r4, r0
 8009b28:	4608      	mov	r0, r1
 8009b2a:	602b      	str	r3, [r5, #0]
 8009b2c:	f7f9 f83f 	bl	8002bae <_isatty>
 8009b30:	1c43      	adds	r3, r0, #1
 8009b32:	d102      	bne.n	8009b3a <_isatty_r+0x1a>
 8009b34:	682b      	ldr	r3, [r5, #0]
 8009b36:	b103      	cbz	r3, 8009b3a <_isatty_r+0x1a>
 8009b38:	6023      	str	r3, [r4, #0]
 8009b3a:	bd38      	pop	{r3, r4, r5, pc}
 8009b3c:	200008e8 	.word	0x200008e8

08009b40 <_lseek_r>:
 8009b40:	b538      	push	{r3, r4, r5, lr}
 8009b42:	4d07      	ldr	r5, [pc, #28]	; (8009b60 <_lseek_r+0x20>)
 8009b44:	4604      	mov	r4, r0
 8009b46:	4608      	mov	r0, r1
 8009b48:	4611      	mov	r1, r2
 8009b4a:	2200      	movs	r2, #0
 8009b4c:	602a      	str	r2, [r5, #0]
 8009b4e:	461a      	mov	r2, r3
 8009b50:	f7f9 f838 	bl	8002bc4 <_lseek>
 8009b54:	1c43      	adds	r3, r0, #1
 8009b56:	d102      	bne.n	8009b5e <_lseek_r+0x1e>
 8009b58:	682b      	ldr	r3, [r5, #0]
 8009b5a:	b103      	cbz	r3, 8009b5e <_lseek_r+0x1e>
 8009b5c:	6023      	str	r3, [r4, #0]
 8009b5e:	bd38      	pop	{r3, r4, r5, pc}
 8009b60:	200008e8 	.word	0x200008e8

08009b64 <_read_r>:
 8009b64:	b538      	push	{r3, r4, r5, lr}
 8009b66:	4d07      	ldr	r5, [pc, #28]	; (8009b84 <_read_r+0x20>)
 8009b68:	4604      	mov	r4, r0
 8009b6a:	4608      	mov	r0, r1
 8009b6c:	4611      	mov	r1, r2
 8009b6e:	2200      	movs	r2, #0
 8009b70:	602a      	str	r2, [r5, #0]
 8009b72:	461a      	mov	r2, r3
 8009b74:	f7f8 ffc6 	bl	8002b04 <_read>
 8009b78:	1c43      	adds	r3, r0, #1
 8009b7a:	d102      	bne.n	8009b82 <_read_r+0x1e>
 8009b7c:	682b      	ldr	r3, [r5, #0]
 8009b7e:	b103      	cbz	r3, 8009b82 <_read_r+0x1e>
 8009b80:	6023      	str	r3, [r4, #0]
 8009b82:	bd38      	pop	{r3, r4, r5, pc}
 8009b84:	200008e8 	.word	0x200008e8

08009b88 <atan>:
 8009b88:	e92d 4ff8 	stmdb	sp!, {r3, r4, r5, r6, r7, r8, r9, sl, fp, lr}
 8009b8c:	ec55 4b10 	vmov	r4, r5, d0
 8009b90:	4bc3      	ldr	r3, [pc, #780]	; (8009ea0 <atan+0x318>)
 8009b92:	f025 4600 	bic.w	r6, r5, #2147483648	; 0x80000000
 8009b96:	429e      	cmp	r6, r3
 8009b98:	46ab      	mov	fp, r5
 8009b9a:	dd18      	ble.n	8009bce <atan+0x46>
 8009b9c:	4bc1      	ldr	r3, [pc, #772]	; (8009ea4 <atan+0x31c>)
 8009b9e:	429e      	cmp	r6, r3
 8009ba0:	dc01      	bgt.n	8009ba6 <atan+0x1e>
 8009ba2:	d109      	bne.n	8009bb8 <atan+0x30>
 8009ba4:	b144      	cbz	r4, 8009bb8 <atan+0x30>
 8009ba6:	4622      	mov	r2, r4
 8009ba8:	462b      	mov	r3, r5
 8009baa:	4620      	mov	r0, r4
 8009bac:	4629      	mov	r1, r5
 8009bae:	f7f6 fb6d 	bl	800028c <__adddf3>
 8009bb2:	4604      	mov	r4, r0
 8009bb4:	460d      	mov	r5, r1
 8009bb6:	e006      	b.n	8009bc6 <atan+0x3e>
 8009bb8:	f1bb 0f00 	cmp.w	fp, #0
 8009bbc:	f300 8131 	bgt.w	8009e22 <atan+0x29a>
 8009bc0:	a59b      	add	r5, pc, #620	; (adr r5, 8009e30 <atan+0x2a8>)
 8009bc2:	e9d5 4500 	ldrd	r4, r5, [r5]
 8009bc6:	ec45 4b10 	vmov	d0, r4, r5
 8009bca:	e8bd 8ff8 	ldmia.w	sp!, {r3, r4, r5, r6, r7, r8, r9, sl, fp, pc}
 8009bce:	4bb6      	ldr	r3, [pc, #728]	; (8009ea8 <atan+0x320>)
 8009bd0:	429e      	cmp	r6, r3
 8009bd2:	dc14      	bgt.n	8009bfe <atan+0x76>
 8009bd4:	f1a3 73de 	sub.w	r3, r3, #29097984	; 0x1bc0000
 8009bd8:	429e      	cmp	r6, r3
 8009bda:	dc0d      	bgt.n	8009bf8 <atan+0x70>
 8009bdc:	a396      	add	r3, pc, #600	; (adr r3, 8009e38 <atan+0x2b0>)
 8009bde:	e9d3 2300 	ldrd	r2, r3, [r3]
 8009be2:	ee10 0a10 	vmov	r0, s0
 8009be6:	4629      	mov	r1, r5
 8009be8:	f7f6 fb50 	bl	800028c <__adddf3>
 8009bec:	4baf      	ldr	r3, [pc, #700]	; (8009eac <atan+0x324>)
 8009bee:	2200      	movs	r2, #0
 8009bf0:	f7f6 ff92 	bl	8000b18 <__aeabi_dcmpgt>
 8009bf4:	2800      	cmp	r0, #0
 8009bf6:	d1e6      	bne.n	8009bc6 <atan+0x3e>
 8009bf8:	f04f 3aff 	mov.w	sl, #4294967295
 8009bfc:	e02b      	b.n	8009c56 <atan+0xce>
 8009bfe:	f000 f963 	bl	8009ec8 <fabs>
 8009c02:	4bab      	ldr	r3, [pc, #684]	; (8009eb0 <atan+0x328>)
 8009c04:	429e      	cmp	r6, r3
 8009c06:	ec55 4b10 	vmov	r4, r5, d0
 8009c0a:	f300 80bf 	bgt.w	8009d8c <atan+0x204>
 8009c0e:	f5a3 2350 	sub.w	r3, r3, #851968	; 0xd0000
 8009c12:	429e      	cmp	r6, r3
 8009c14:	f300 80a0 	bgt.w	8009d58 <atan+0x1d0>
 8009c18:	ee10 2a10 	vmov	r2, s0
 8009c1c:	ee10 0a10 	vmov	r0, s0
 8009c20:	462b      	mov	r3, r5
 8009c22:	4629      	mov	r1, r5
 8009c24:	f7f6 fb32 	bl	800028c <__adddf3>
 8009c28:	4ba0      	ldr	r3, [pc, #640]	; (8009eac <atan+0x324>)
 8009c2a:	2200      	movs	r2, #0
 8009c2c:	f7f6 fb2c 	bl	8000288 <__aeabi_dsub>
 8009c30:	2200      	movs	r2, #0
 8009c32:	4606      	mov	r6, r0
 8009c34:	460f      	mov	r7, r1
 8009c36:	f04f 4380 	mov.w	r3, #1073741824	; 0x40000000
 8009c3a:	4620      	mov	r0, r4
 8009c3c:	4629      	mov	r1, r5
 8009c3e:	f7f6 fb25 	bl	800028c <__adddf3>
 8009c42:	4602      	mov	r2, r0
 8009c44:	460b      	mov	r3, r1
 8009c46:	4630      	mov	r0, r6
 8009c48:	4639      	mov	r1, r7
 8009c4a:	f7f6 fdff 	bl	800084c <__aeabi_ddiv>
 8009c4e:	f04f 0a00 	mov.w	sl, #0
 8009c52:	4604      	mov	r4, r0
 8009c54:	460d      	mov	r5, r1
 8009c56:	4622      	mov	r2, r4
 8009c58:	462b      	mov	r3, r5
 8009c5a:	4620      	mov	r0, r4
 8009c5c:	4629      	mov	r1, r5
 8009c5e:	f7f6 fccb 	bl	80005f8 <__aeabi_dmul>
 8009c62:	4602      	mov	r2, r0
 8009c64:	460b      	mov	r3, r1
 8009c66:	4680      	mov	r8, r0
 8009c68:	4689      	mov	r9, r1
 8009c6a:	f7f6 fcc5 	bl	80005f8 <__aeabi_dmul>
 8009c6e:	a374      	add	r3, pc, #464	; (adr r3, 8009e40 <atan+0x2b8>)
 8009c70:	e9d3 2300 	ldrd	r2, r3, [r3]
 8009c74:	4606      	mov	r6, r0
 8009c76:	460f      	mov	r7, r1
 8009c78:	f7f6 fcbe 	bl	80005f8 <__aeabi_dmul>
 8009c7c:	a372      	add	r3, pc, #456	; (adr r3, 8009e48 <atan+0x2c0>)
 8009c7e:	e9d3 2300 	ldrd	r2, r3, [r3]
 8009c82:	f7f6 fb03 	bl	800028c <__adddf3>
 8009c86:	4632      	mov	r2, r6
 8009c88:	463b      	mov	r3, r7
 8009c8a:	f7f6 fcb5 	bl	80005f8 <__aeabi_dmul>
 8009c8e:	a370      	add	r3, pc, #448	; (adr r3, 8009e50 <atan+0x2c8>)
 8009c90:	e9d3 2300 	ldrd	r2, r3, [r3]
 8009c94:	f7f6 fafa 	bl	800028c <__adddf3>
 8009c98:	4632      	mov	r2, r6
 8009c9a:	463b      	mov	r3, r7
 8009c9c:	f7f6 fcac 	bl	80005f8 <__aeabi_dmul>
 8009ca0:	a36d      	add	r3, pc, #436	; (adr r3, 8009e58 <atan+0x2d0>)
 8009ca2:	e9d3 2300 	ldrd	r2, r3, [r3]
 8009ca6:	f7f6 faf1 	bl	800028c <__adddf3>
 8009caa:	4632      	mov	r2, r6
 8009cac:	463b      	mov	r3, r7
 8009cae:	f7f6 fca3 	bl	80005f8 <__aeabi_dmul>
 8009cb2:	a36b      	add	r3, pc, #428	; (adr r3, 8009e60 <atan+0x2d8>)
 8009cb4:	e9d3 2300 	ldrd	r2, r3, [r3]
 8009cb8:	f7f6 fae8 	bl	800028c <__adddf3>
 8009cbc:	4632      	mov	r2, r6
 8009cbe:	463b      	mov	r3, r7
 8009cc0:	f7f6 fc9a 	bl	80005f8 <__aeabi_dmul>
 8009cc4:	a368      	add	r3, pc, #416	; (adr r3, 8009e68 <atan+0x2e0>)
 8009cc6:	e9d3 2300 	ldrd	r2, r3, [r3]
 8009cca:	f7f6 fadf 	bl	800028c <__adddf3>
 8009cce:	4642      	mov	r2, r8
 8009cd0:	464b      	mov	r3, r9
 8009cd2:	f7f6 fc91 	bl	80005f8 <__aeabi_dmul>
 8009cd6:	a366      	add	r3, pc, #408	; (adr r3, 8009e70 <atan+0x2e8>)
 8009cd8:	e9d3 2300 	ldrd	r2, r3, [r3]
 8009cdc:	4680      	mov	r8, r0
 8009cde:	4689      	mov	r9, r1
 8009ce0:	4630      	mov	r0, r6
 8009ce2:	4639      	mov	r1, r7
 8009ce4:	f7f6 fc88 	bl	80005f8 <__aeabi_dmul>
 8009ce8:	a363      	add	r3, pc, #396	; (adr r3, 8009e78 <atan+0x2f0>)
 8009cea:	e9d3 2300 	ldrd	r2, r3, [r3]
 8009cee:	f7f6 facb 	bl	8000288 <__aeabi_dsub>
 8009cf2:	4632      	mov	r2, r6
 8009cf4:	463b      	mov	r3, r7
 8009cf6:	f7f6 fc7f 	bl	80005f8 <__aeabi_dmul>
 8009cfa:	a361      	add	r3, pc, #388	; (adr r3, 8009e80 <atan+0x2f8>)
 8009cfc:	e9d3 2300 	ldrd	r2, r3, [r3]
 8009d00:	f7f6 fac2 	bl	8000288 <__aeabi_dsub>
 8009d04:	4632      	mov	r2, r6
 8009d06:	463b      	mov	r3, r7
 8009d08:	f7f6 fc76 	bl	80005f8 <__aeabi_dmul>
 8009d0c:	a35e      	add	r3, pc, #376	; (adr r3, 8009e88 <atan+0x300>)
 8009d0e:	e9d3 2300 	ldrd	r2, r3, [r3]
 8009d12:	f7f6 fab9 	bl	8000288 <__aeabi_dsub>
 8009d16:	4632      	mov	r2, r6
 8009d18:	463b      	mov	r3, r7
 8009d1a:	f7f6 fc6d 	bl	80005f8 <__aeabi_dmul>
 8009d1e:	a35c      	add	r3, pc, #368	; (adr r3, 8009e90 <atan+0x308>)
 8009d20:	e9d3 2300 	ldrd	r2, r3, [r3]
 8009d24:	f7f6 fab0 	bl	8000288 <__aeabi_dsub>
 8009d28:	4632      	mov	r2, r6
 8009d2a:	463b      	mov	r3, r7
 8009d2c:	f7f6 fc64 	bl	80005f8 <__aeabi_dmul>
 8009d30:	4602      	mov	r2, r0
 8009d32:	460b      	mov	r3, r1
 8009d34:	4640      	mov	r0, r8
 8009d36:	4649      	mov	r1, r9
 8009d38:	f7f6 faa8 	bl	800028c <__adddf3>
 8009d3c:	4622      	mov	r2, r4
 8009d3e:	462b      	mov	r3, r5
 8009d40:	f7f6 fc5a 	bl	80005f8 <__aeabi_dmul>
 8009d44:	f1ba 3fff 	cmp.w	sl, #4294967295
 8009d48:	4602      	mov	r2, r0
 8009d4a:	460b      	mov	r3, r1
 8009d4c:	d14b      	bne.n	8009de6 <atan+0x25e>
 8009d4e:	4620      	mov	r0, r4
 8009d50:	4629      	mov	r1, r5
 8009d52:	f7f6 fa99 	bl	8000288 <__aeabi_dsub>
 8009d56:	e72c      	b.n	8009bb2 <atan+0x2a>
 8009d58:	ee10 0a10 	vmov	r0, s0
 8009d5c:	4b53      	ldr	r3, [pc, #332]	; (8009eac <atan+0x324>)
 8009d5e:	2200      	movs	r2, #0
 8009d60:	4629      	mov	r1, r5
 8009d62:	f7f6 fa91 	bl	8000288 <__aeabi_dsub>
 8009d66:	4b51      	ldr	r3, [pc, #324]	; (8009eac <atan+0x324>)
 8009d68:	4606      	mov	r6, r0
 8009d6a:	460f      	mov	r7, r1
 8009d6c:	2200      	movs	r2, #0
 8009d6e:	4620      	mov	r0, r4
 8009d70:	4629      	mov	r1, r5
 8009d72:	f7f6 fa8b 	bl	800028c <__adddf3>
 8009d76:	4602      	mov	r2, r0
 8009d78:	460b      	mov	r3, r1
 8009d7a:	4630      	mov	r0, r6
 8009d7c:	4639      	mov	r1, r7
 8009d7e:	f7f6 fd65 	bl	800084c <__aeabi_ddiv>
 8009d82:	f04f 0a01 	mov.w	sl, #1
 8009d86:	4604      	mov	r4, r0
 8009d88:	460d      	mov	r5, r1
 8009d8a:	e764      	b.n	8009c56 <atan+0xce>
 8009d8c:	4b49      	ldr	r3, [pc, #292]	; (8009eb4 <atan+0x32c>)
 8009d8e:	429e      	cmp	r6, r3
 8009d90:	da1d      	bge.n	8009dce <atan+0x246>
 8009d92:	ee10 0a10 	vmov	r0, s0
 8009d96:	4b48      	ldr	r3, [pc, #288]	; (8009eb8 <atan+0x330>)
 8009d98:	2200      	movs	r2, #0
 8009d9a:	4629      	mov	r1, r5
 8009d9c:	f7f6 fa74 	bl	8000288 <__aeabi_dsub>
 8009da0:	4b45      	ldr	r3, [pc, #276]	; (8009eb8 <atan+0x330>)
 8009da2:	4606      	mov	r6, r0
 8009da4:	460f      	mov	r7, r1
 8009da6:	2200      	movs	r2, #0
 8009da8:	4620      	mov	r0, r4
 8009daa:	4629      	mov	r1, r5
 8009dac:	f7f6 fc24 	bl	80005f8 <__aeabi_dmul>
 8009db0:	4b3e      	ldr	r3, [pc, #248]	; (8009eac <atan+0x324>)
 8009db2:	2200      	movs	r2, #0
 8009db4:	f7f6 fa6a 	bl	800028c <__adddf3>
 8009db8:	4602      	mov	r2, r0
 8009dba:	460b      	mov	r3, r1
 8009dbc:	4630      	mov	r0, r6
 8009dbe:	4639      	mov	r1, r7
 8009dc0:	f7f6 fd44 	bl	800084c <__aeabi_ddiv>
 8009dc4:	f04f 0a02 	mov.w	sl, #2
 8009dc8:	4604      	mov	r4, r0
 8009dca:	460d      	mov	r5, r1
 8009dcc:	e743      	b.n	8009c56 <atan+0xce>
 8009dce:	462b      	mov	r3, r5
 8009dd0:	ee10 2a10 	vmov	r2, s0
 8009dd4:	4939      	ldr	r1, [pc, #228]	; (8009ebc <atan+0x334>)
 8009dd6:	2000      	movs	r0, #0
 8009dd8:	f7f6 fd38 	bl	800084c <__aeabi_ddiv>
 8009ddc:	f04f 0a03 	mov.w	sl, #3
 8009de0:	4604      	mov	r4, r0
 8009de2:	460d      	mov	r5, r1
 8009de4:	e737      	b.n	8009c56 <atan+0xce>
 8009de6:	4b36      	ldr	r3, [pc, #216]	; (8009ec0 <atan+0x338>)
 8009de8:	4e36      	ldr	r6, [pc, #216]	; (8009ec4 <atan+0x33c>)
 8009dea:	eb06 06ca 	add.w	r6, r6, sl, lsl #3
 8009dee:	eb03 0aca 	add.w	sl, r3, sl, lsl #3
 8009df2:	e9da 2300 	ldrd	r2, r3, [sl]
 8009df6:	f7f6 fa47 	bl	8000288 <__aeabi_dsub>
 8009dfa:	4622      	mov	r2, r4
 8009dfc:	462b      	mov	r3, r5
 8009dfe:	f7f6 fa43 	bl	8000288 <__aeabi_dsub>
 8009e02:	4602      	mov	r2, r0
 8009e04:	460b      	mov	r3, r1
 8009e06:	e9d6 0100 	ldrd	r0, r1, [r6]
 8009e0a:	f7f6 fa3d 	bl	8000288 <__aeabi_dsub>
 8009e0e:	f1bb 0f00 	cmp.w	fp, #0
 8009e12:	4604      	mov	r4, r0
 8009e14:	460d      	mov	r5, r1
 8009e16:	f6bf aed6 	bge.w	8009bc6 <atan+0x3e>
 8009e1a:	f101 4300 	add.w	r3, r1, #2147483648	; 0x80000000
 8009e1e:	461d      	mov	r5, r3
 8009e20:	e6d1      	b.n	8009bc6 <atan+0x3e>
 8009e22:	a51d      	add	r5, pc, #116	; (adr r5, 8009e98 <atan+0x310>)
 8009e24:	e9d5 4500 	ldrd	r4, r5, [r5]
 8009e28:	e6cd      	b.n	8009bc6 <atan+0x3e>
 8009e2a:	bf00      	nop
 8009e2c:	f3af 8000 	nop.w
 8009e30:	54442d18 	.word	0x54442d18
 8009e34:	bff921fb 	.word	0xbff921fb
 8009e38:	8800759c 	.word	0x8800759c
 8009e3c:	7e37e43c 	.word	0x7e37e43c
 8009e40:	e322da11 	.word	0xe322da11
 8009e44:	3f90ad3a 	.word	0x3f90ad3a
 8009e48:	24760deb 	.word	0x24760deb
 8009e4c:	3fa97b4b 	.word	0x3fa97b4b
 8009e50:	a0d03d51 	.word	0xa0d03d51
 8009e54:	3fb10d66 	.word	0x3fb10d66
 8009e58:	c54c206e 	.word	0xc54c206e
 8009e5c:	3fb745cd 	.word	0x3fb745cd
 8009e60:	920083ff 	.word	0x920083ff
 8009e64:	3fc24924 	.word	0x3fc24924
 8009e68:	5555550d 	.word	0x5555550d
 8009e6c:	3fd55555 	.word	0x3fd55555
 8009e70:	2c6a6c2f 	.word	0x2c6a6c2f
 8009e74:	bfa2b444 	.word	0xbfa2b444
 8009e78:	52defd9a 	.word	0x52defd9a
 8009e7c:	3fadde2d 	.word	0x3fadde2d
 8009e80:	af749a6d 	.word	0xaf749a6d
 8009e84:	3fb3b0f2 	.word	0x3fb3b0f2
 8009e88:	fe231671 	.word	0xfe231671
 8009e8c:	3fbc71c6 	.word	0x3fbc71c6
 8009e90:	9998ebc4 	.word	0x9998ebc4
 8009e94:	3fc99999 	.word	0x3fc99999
 8009e98:	54442d18 	.word	0x54442d18
 8009e9c:	3ff921fb 	.word	0x3ff921fb
 8009ea0:	440fffff 	.word	0x440fffff
 8009ea4:	7ff00000 	.word	0x7ff00000
 8009ea8:	3fdbffff 	.word	0x3fdbffff
 8009eac:	3ff00000 	.word	0x3ff00000
 8009eb0:	3ff2ffff 	.word	0x3ff2ffff
 8009eb4:	40038000 	.word	0x40038000
 8009eb8:	3ff80000 	.word	0x3ff80000
 8009ebc:	bff00000 	.word	0xbff00000
 8009ec0:	0800c0d0 	.word	0x0800c0d0
 8009ec4:	0800c0b0 	.word	0x0800c0b0

08009ec8 <fabs>:
 8009ec8:	ec51 0b10 	vmov	r0, r1, d0
 8009ecc:	ee10 2a10 	vmov	r2, s0
 8009ed0:	f021 4300 	bic.w	r3, r1, #2147483648	; 0x80000000
 8009ed4:	ec43 2b10 	vmov	d0, r2, r3
 8009ed8:	4770      	bx	lr
	...

08009edc <atanf>:
 8009edc:	b538      	push	{r3, r4, r5, lr}
 8009ede:	ee10 5a10 	vmov	r5, s0
 8009ee2:	f025 4400 	bic.w	r4, r5, #2147483648	; 0x80000000
 8009ee6:	f1b4 4fa1 	cmp.w	r4, #1350565888	; 0x50800000
 8009eea:	eef0 7a40 	vmov.f32	s15, s0
 8009eee:	db10      	blt.n	8009f12 <atanf+0x36>
 8009ef0:	f1b4 4fff 	cmp.w	r4, #2139095040	; 0x7f800000
 8009ef4:	dd04      	ble.n	8009f00 <atanf+0x24>
 8009ef6:	ee70 7a00 	vadd.f32	s15, s0, s0
 8009efa:	eeb0 0a67 	vmov.f32	s0, s15
 8009efe:	bd38      	pop	{r3, r4, r5, pc}
 8009f00:	eddf 7a4d 	vldr	s15, [pc, #308]	; 800a038 <atanf+0x15c>
 8009f04:	ed9f 0a4d 	vldr	s0, [pc, #308]	; 800a03c <atanf+0x160>
 8009f08:	2d00      	cmp	r5, #0
 8009f0a:	bfd8      	it	le
 8009f0c:	eef0 7a40 	vmovle.f32	s15, s0
 8009f10:	e7f3      	b.n	8009efa <atanf+0x1e>
 8009f12:	4b4b      	ldr	r3, [pc, #300]	; (800a040 <atanf+0x164>)
 8009f14:	429c      	cmp	r4, r3
 8009f16:	dc10      	bgt.n	8009f3a <atanf+0x5e>
 8009f18:	f1b4 5f44 	cmp.w	r4, #822083584	; 0x31000000
 8009f1c:	da0a      	bge.n	8009f34 <atanf+0x58>
 8009f1e:	ed9f 7a49 	vldr	s14, [pc, #292]	; 800a044 <atanf+0x168>
 8009f22:	ee30 7a07 	vadd.f32	s14, s0, s14
 8009f26:	eef7 6a00 	vmov.f32	s13, #112	; 0x3f800000  1.0
 8009f2a:	eeb4 7ae6 	vcmpe.f32	s14, s13
 8009f2e:	eef1 fa10 	vmrs	APSR_nzcv, fpscr
 8009f32:	dce2      	bgt.n	8009efa <atanf+0x1e>
 8009f34:	f04f 33ff 	mov.w	r3, #4294967295
 8009f38:	e013      	b.n	8009f62 <atanf+0x86>
 8009f3a:	f000 f8e7 	bl	800a10c <fabsf>
 8009f3e:	4b42      	ldr	r3, [pc, #264]	; (800a048 <atanf+0x16c>)
 8009f40:	429c      	cmp	r4, r3
 8009f42:	dc4f      	bgt.n	8009fe4 <atanf+0x108>
 8009f44:	f5a3 03d0 	sub.w	r3, r3, #6815744	; 0x680000
 8009f48:	429c      	cmp	r4, r3
 8009f4a:	dc41      	bgt.n	8009fd0 <atanf+0xf4>
 8009f4c:	eef0 7a00 	vmov.f32	s15, #0	; 0x40000000  2.0
 8009f50:	eebf 7a00 	vmov.f32	s14, #240	; 0xbf800000 -1.0
 8009f54:	eea0 7a27 	vfma.f32	s14, s0, s15
 8009f58:	2300      	movs	r3, #0
 8009f5a:	ee30 0a27 	vadd.f32	s0, s0, s15
 8009f5e:	eec7 7a00 	vdiv.f32	s15, s14, s0
 8009f62:	1c5a      	adds	r2, r3, #1
 8009f64:	ee27 6aa7 	vmul.f32	s12, s15, s15
 8009f68:	ed9f 7a38 	vldr	s14, [pc, #224]	; 800a04c <atanf+0x170>
 8009f6c:	eddf 5a38 	vldr	s11, [pc, #224]	; 800a050 <atanf+0x174>
 8009f70:	ed9f 5a38 	vldr	s10, [pc, #224]	; 800a054 <atanf+0x178>
 8009f74:	ee66 6a06 	vmul.f32	s13, s12, s12
 8009f78:	eee6 5a87 	vfma.f32	s11, s13, s14
 8009f7c:	ed9f 7a36 	vldr	s14, [pc, #216]	; 800a058 <atanf+0x17c>
 8009f80:	eea5 7aa6 	vfma.f32	s14, s11, s13
 8009f84:	eddf 5a35 	vldr	s11, [pc, #212]	; 800a05c <atanf+0x180>
 8009f88:	eee7 5a26 	vfma.f32	s11, s14, s13
 8009f8c:	ed9f 7a34 	vldr	s14, [pc, #208]	; 800a060 <atanf+0x184>
 8009f90:	eea5 7aa6 	vfma.f32	s14, s11, s13
 8009f94:	eddf 5a33 	vldr	s11, [pc, #204]	; 800a064 <atanf+0x188>
 8009f98:	eee7 5a26 	vfma.f32	s11, s14, s13
 8009f9c:	ed9f 7a32 	vldr	s14, [pc, #200]	; 800a068 <atanf+0x18c>
 8009fa0:	eea6 5a87 	vfma.f32	s10, s13, s14
 8009fa4:	ed9f 7a31 	vldr	s14, [pc, #196]	; 800a06c <atanf+0x190>
 8009fa8:	eea5 7a26 	vfma.f32	s14, s10, s13
 8009fac:	ed9f 5a30 	vldr	s10, [pc, #192]	; 800a070 <atanf+0x194>
 8009fb0:	eea7 5a26 	vfma.f32	s10, s14, s13
 8009fb4:	ed9f 7a2f 	vldr	s14, [pc, #188]	; 800a074 <atanf+0x198>
 8009fb8:	eea5 7a26 	vfma.f32	s14, s10, s13
 8009fbc:	ee27 7a26 	vmul.f32	s14, s14, s13
 8009fc0:	eea5 7a86 	vfma.f32	s14, s11, s12
 8009fc4:	ee27 7a87 	vmul.f32	s14, s15, s14
 8009fc8:	d121      	bne.n	800a00e <atanf+0x132>
 8009fca:	ee77 7ac7 	vsub.f32	s15, s15, s14
 8009fce:	e794      	b.n	8009efa <atanf+0x1e>
 8009fd0:	eef7 7a00 	vmov.f32	s15, #112	; 0x3f800000  1.0
 8009fd4:	ee30 7a67 	vsub.f32	s14, s0, s15
 8009fd8:	ee30 0a27 	vadd.f32	s0, s0, s15
 8009fdc:	2301      	movs	r3, #1
 8009fde:	eec7 7a00 	vdiv.f32	s15, s14, s0
 8009fe2:	e7be      	b.n	8009f62 <atanf+0x86>
 8009fe4:	4b24      	ldr	r3, [pc, #144]	; (800a078 <atanf+0x19c>)
 8009fe6:	429c      	cmp	r4, r3
 8009fe8:	dc0b      	bgt.n	800a002 <atanf+0x126>
 8009fea:	eef7 7a08 	vmov.f32	s15, #120	; 0x3fc00000  1.5
 8009fee:	eeb7 7a00 	vmov.f32	s14, #112	; 0x3f800000  1.0
 8009ff2:	eea0 7a27 	vfma.f32	s14, s0, s15
 8009ff6:	2302      	movs	r3, #2
 8009ff8:	ee70 6a67 	vsub.f32	s13, s0, s15
 8009ffc:	eec6 7a87 	vdiv.f32	s15, s13, s14
 800a000:	e7af      	b.n	8009f62 <atanf+0x86>
 800a002:	eebf 7a00 	vmov.f32	s14, #240	; 0xbf800000 -1.0
 800a006:	eec7 7a00 	vdiv.f32	s15, s14, s0
 800a00a:	2303      	movs	r3, #3
 800a00c:	e7a9      	b.n	8009f62 <atanf+0x86>
 800a00e:	4a1b      	ldr	r2, [pc, #108]	; (800a07c <atanf+0x1a0>)
 800a010:	491b      	ldr	r1, [pc, #108]	; (800a080 <atanf+0x1a4>)
 800a012:	eb02 0283 	add.w	r2, r2, r3, lsl #2
 800a016:	eb01 0383 	add.w	r3, r1, r3, lsl #2
 800a01a:	ed93 0a00 	vldr	s0, [r3]
 800a01e:	ee37 7a40 	vsub.f32	s14, s14, s0
 800a022:	ed92 0a00 	vldr	s0, [r2]
 800a026:	ee77 7a67 	vsub.f32	s15, s14, s15
 800a02a:	2d00      	cmp	r5, #0
 800a02c:	ee70 7a67 	vsub.f32	s15, s0, s15
 800a030:	bfb8      	it	lt
 800a032:	eef1 7a67 	vneglt.f32	s15, s15
 800a036:	e760      	b.n	8009efa <atanf+0x1e>
 800a038:	3fc90fdb 	.word	0x3fc90fdb
 800a03c:	bfc90fdb 	.word	0xbfc90fdb
 800a040:	3edfffff 	.word	0x3edfffff
 800a044:	7149f2ca 	.word	0x7149f2ca
 800a048:	3f97ffff 	.word	0x3f97ffff
 800a04c:	3c8569d7 	.word	0x3c8569d7
 800a050:	3d4bda59 	.word	0x3d4bda59
 800a054:	bd6ef16b 	.word	0xbd6ef16b
 800a058:	3d886b35 	.word	0x3d886b35
 800a05c:	3dba2e6e 	.word	0x3dba2e6e
 800a060:	3e124925 	.word	0x3e124925
 800a064:	3eaaaaab 	.word	0x3eaaaaab
 800a068:	bd15a221 	.word	0xbd15a221
 800a06c:	bd9d8795 	.word	0xbd9d8795
 800a070:	bde38e38 	.word	0xbde38e38
 800a074:	be4ccccd 	.word	0xbe4ccccd
 800a078:	401bffff 	.word	0x401bffff
 800a07c:	0800c0f0 	.word	0x0800c0f0
 800a080:	0800c100 	.word	0x0800c100

0800a084 <cosf>:
 800a084:	ee10 3a10 	vmov	r3, s0
 800a088:	b507      	push	{r0, r1, r2, lr}
 800a08a:	4a1e      	ldr	r2, [pc, #120]	; (800a104 <cosf+0x80>)
 800a08c:	f023 4300 	bic.w	r3, r3, #2147483648	; 0x80000000
 800a090:	4293      	cmp	r3, r2
 800a092:	dc06      	bgt.n	800a0a2 <cosf+0x1e>
 800a094:	eddf 0a1c 	vldr	s1, [pc, #112]	; 800a108 <cosf+0x84>
 800a098:	b003      	add	sp, #12
 800a09a:	f85d eb04 	ldr.w	lr, [sp], #4
 800a09e:	f001 b867 	b.w	800b170 <__kernel_cosf>
 800a0a2:	f1b3 4fff 	cmp.w	r3, #2139095040	; 0x7f800000
 800a0a6:	db04      	blt.n	800a0b2 <cosf+0x2e>
 800a0a8:	ee30 0a40 	vsub.f32	s0, s0, s0
 800a0ac:	b003      	add	sp, #12
 800a0ae:	f85d fb04 	ldr.w	pc, [sp], #4
 800a0b2:	4668      	mov	r0, sp
 800a0b4:	f000 ff20 	bl	800aef8 <__ieee754_rem_pio2f>
 800a0b8:	f000 0003 	and.w	r0, r0, #3
 800a0bc:	2801      	cmp	r0, #1
 800a0be:	d009      	beq.n	800a0d4 <cosf+0x50>
 800a0c0:	2802      	cmp	r0, #2
 800a0c2:	d010      	beq.n	800a0e6 <cosf+0x62>
 800a0c4:	b9b0      	cbnz	r0, 800a0f4 <cosf+0x70>
 800a0c6:	eddd 0a01 	vldr	s1, [sp, #4]
 800a0ca:	ed9d 0a00 	vldr	s0, [sp]
 800a0ce:	f001 f84f 	bl	800b170 <__kernel_cosf>
 800a0d2:	e7eb      	b.n	800a0ac <cosf+0x28>
 800a0d4:	eddd 0a01 	vldr	s1, [sp, #4]
 800a0d8:	ed9d 0a00 	vldr	s0, [sp]
 800a0dc:	f001 fb1e 	bl	800b71c <__kernel_sinf>
 800a0e0:	eeb1 0a40 	vneg.f32	s0, s0
 800a0e4:	e7e2      	b.n	800a0ac <cosf+0x28>
 800a0e6:	eddd 0a01 	vldr	s1, [sp, #4]
 800a0ea:	ed9d 0a00 	vldr	s0, [sp]
 800a0ee:	f001 f83f 	bl	800b170 <__kernel_cosf>
 800a0f2:	e7f5      	b.n	800a0e0 <cosf+0x5c>
 800a0f4:	eddd 0a01 	vldr	s1, [sp, #4]
 800a0f8:	ed9d 0a00 	vldr	s0, [sp]
 800a0fc:	2001      	movs	r0, #1
 800a0fe:	f001 fb0d 	bl	800b71c <__kernel_sinf>
 800a102:	e7d3      	b.n	800a0ac <cosf+0x28>
 800a104:	3f490fd8 	.word	0x3f490fd8
 800a108:	00000000 	.word	0x00000000

0800a10c <fabsf>:
 800a10c:	ee10 3a10 	vmov	r3, s0
 800a110:	f023 4300 	bic.w	r3, r3, #2147483648	; 0x80000000
 800a114:	ee00 3a10 	vmov	s0, r3
 800a118:	4770      	bx	lr
	...

0800a11c <sinf>:
 800a11c:	ee10 3a10 	vmov	r3, s0
 800a120:	b507      	push	{r0, r1, r2, lr}
 800a122:	4a1f      	ldr	r2, [pc, #124]	; (800a1a0 <sinf+0x84>)
 800a124:	f023 4300 	bic.w	r3, r3, #2147483648	; 0x80000000
 800a128:	4293      	cmp	r3, r2
 800a12a:	dc07      	bgt.n	800a13c <sinf+0x20>
 800a12c:	eddf 0a1d 	vldr	s1, [pc, #116]	; 800a1a4 <sinf+0x88>
 800a130:	2000      	movs	r0, #0
 800a132:	b003      	add	sp, #12
 800a134:	f85d eb04 	ldr.w	lr, [sp], #4
 800a138:	f001 baf0 	b.w	800b71c <__kernel_sinf>
 800a13c:	f1b3 4fff 	cmp.w	r3, #2139095040	; 0x7f800000
 800a140:	db04      	blt.n	800a14c <sinf+0x30>
 800a142:	ee30 0a40 	vsub.f32	s0, s0, s0
 800a146:	b003      	add	sp, #12
 800a148:	f85d fb04 	ldr.w	pc, [sp], #4
 800a14c:	4668      	mov	r0, sp
 800a14e:	f000 fed3 	bl	800aef8 <__ieee754_rem_pio2f>
 800a152:	f000 0003 	and.w	r0, r0, #3
 800a156:	2801      	cmp	r0, #1
 800a158:	d00a      	beq.n	800a170 <sinf+0x54>
 800a15a:	2802      	cmp	r0, #2
 800a15c:	d00f      	beq.n	800a17e <sinf+0x62>
 800a15e:	b9c0      	cbnz	r0, 800a192 <sinf+0x76>
 800a160:	eddd 0a01 	vldr	s1, [sp, #4]
 800a164:	ed9d 0a00 	vldr	s0, [sp]
 800a168:	2001      	movs	r0, #1
 800a16a:	f001 fad7 	bl	800b71c <__kernel_sinf>
 800a16e:	e7ea      	b.n	800a146 <sinf+0x2a>
 800a170:	eddd 0a01 	vldr	s1, [sp, #4]
 800a174:	ed9d 0a00 	vldr	s0, [sp]
 800a178:	f000 fffa 	bl	800b170 <__kernel_cosf>
 800a17c:	e7e3      	b.n	800a146 <sinf+0x2a>
 800a17e:	eddd 0a01 	vldr	s1, [sp, #4]
 800a182:	ed9d 0a00 	vldr	s0, [sp]
 800a186:	2001      	movs	r0, #1
 800a188:	f001 fac8 	bl	800b71c <__kernel_sinf>
 800a18c:	eeb1 0a40 	vneg.f32	s0, s0
 800a190:	e7d9      	b.n	800a146 <sinf+0x2a>
 800a192:	eddd 0a01 	vldr	s1, [sp, #4]
 800a196:	ed9d 0a00 	vldr	s0, [sp]
 800a19a:	f000 ffe9 	bl	800b170 <__kernel_cosf>
 800a19e:	e7f5      	b.n	800a18c <sinf+0x70>
 800a1a0:	3f490fd8 	.word	0x3f490fd8
 800a1a4:	00000000 	.word	0x00000000

0800a1a8 <tanf>:
 800a1a8:	ee10 3a10 	vmov	r3, s0
 800a1ac:	b507      	push	{r0, r1, r2, lr}
 800a1ae:	4a12      	ldr	r2, [pc, #72]	; (800a1f8 <tanf+0x50>)
 800a1b0:	f023 4300 	bic.w	r3, r3, #2147483648	; 0x80000000
 800a1b4:	4293      	cmp	r3, r2
 800a1b6:	dc07      	bgt.n	800a1c8 <tanf+0x20>
 800a1b8:	eddf 0a10 	vldr	s1, [pc, #64]	; 800a1fc <tanf+0x54>
 800a1bc:	2001      	movs	r0, #1
 800a1be:	b003      	add	sp, #12
 800a1c0:	f85d eb04 	ldr.w	lr, [sp], #4
 800a1c4:	f001 baf2 	b.w	800b7ac <__kernel_tanf>
 800a1c8:	f1b3 4fff 	cmp.w	r3, #2139095040	; 0x7f800000
 800a1cc:	db04      	blt.n	800a1d8 <tanf+0x30>
 800a1ce:	ee30 0a40 	vsub.f32	s0, s0, s0
 800a1d2:	b003      	add	sp, #12
 800a1d4:	f85d fb04 	ldr.w	pc, [sp], #4
 800a1d8:	4668      	mov	r0, sp
 800a1da:	f000 fe8d 	bl	800aef8 <__ieee754_rem_pio2f>
 800a1de:	0040      	lsls	r0, r0, #1
 800a1e0:	f000 0002 	and.w	r0, r0, #2
 800a1e4:	eddd 0a01 	vldr	s1, [sp, #4]
 800a1e8:	ed9d 0a00 	vldr	s0, [sp]
 800a1ec:	f1c0 0001 	rsb	r0, r0, #1
 800a1f0:	f001 fadc 	bl	800b7ac <__kernel_tanf>
 800a1f4:	e7ed      	b.n	800a1d2 <tanf+0x2a>
 800a1f6:	bf00      	nop
 800a1f8:	3f490fda 	.word	0x3f490fda
 800a1fc:	00000000 	.word	0x00000000

0800a200 <pow>:
 800a200:	b5f8      	push	{r3, r4, r5, r6, r7, lr}
 800a202:	ed2d 8b02 	vpush	{d8}
 800a206:	eeb0 8a40 	vmov.f32	s16, s0
 800a20a:	eef0 8a60 	vmov.f32	s17, s1
 800a20e:	ec55 4b11 	vmov	r4, r5, d1
 800a212:	f000 f891 	bl	800a338 <__ieee754_pow>
 800a216:	4622      	mov	r2, r4
 800a218:	462b      	mov	r3, r5
 800a21a:	4620      	mov	r0, r4
 800a21c:	4629      	mov	r1, r5
 800a21e:	ec57 6b10 	vmov	r6, r7, d0
 800a222:	f7f6 fc83 	bl	8000b2c <__aeabi_dcmpun>
 800a226:	2800      	cmp	r0, #0
 800a228:	d13b      	bne.n	800a2a2 <pow+0xa2>
 800a22a:	ec51 0b18 	vmov	r0, r1, d8
 800a22e:	2200      	movs	r2, #0
 800a230:	2300      	movs	r3, #0
 800a232:	f7f6 fc49 	bl	8000ac8 <__aeabi_dcmpeq>
 800a236:	b1b8      	cbz	r0, 800a268 <pow+0x68>
 800a238:	2200      	movs	r2, #0
 800a23a:	2300      	movs	r3, #0
 800a23c:	4620      	mov	r0, r4
 800a23e:	4629      	mov	r1, r5
 800a240:	f7f6 fc42 	bl	8000ac8 <__aeabi_dcmpeq>
 800a244:	2800      	cmp	r0, #0
 800a246:	d146      	bne.n	800a2d6 <pow+0xd6>
 800a248:	ec45 4b10 	vmov	d0, r4, r5
 800a24c:	f001 fbbe 	bl	800b9cc <finite>
 800a250:	b338      	cbz	r0, 800a2a2 <pow+0xa2>
 800a252:	2200      	movs	r2, #0
 800a254:	2300      	movs	r3, #0
 800a256:	4620      	mov	r0, r4
 800a258:	4629      	mov	r1, r5
 800a25a:	f7f6 fc3f 	bl	8000adc <__aeabi_dcmplt>
 800a25e:	b300      	cbz	r0, 800a2a2 <pow+0xa2>
 800a260:	f7fc fd7e 	bl	8006d60 <__errno>
 800a264:	2322      	movs	r3, #34	; 0x22
 800a266:	e01b      	b.n	800a2a0 <pow+0xa0>
 800a268:	ec47 6b10 	vmov	d0, r6, r7
 800a26c:	f001 fbae 	bl	800b9cc <finite>
 800a270:	b9e0      	cbnz	r0, 800a2ac <pow+0xac>
 800a272:	eeb0 0a48 	vmov.f32	s0, s16
 800a276:	eef0 0a68 	vmov.f32	s1, s17
 800a27a:	f001 fba7 	bl	800b9cc <finite>
 800a27e:	b1a8      	cbz	r0, 800a2ac <pow+0xac>
 800a280:	ec45 4b10 	vmov	d0, r4, r5
 800a284:	f001 fba2 	bl	800b9cc <finite>
 800a288:	b180      	cbz	r0, 800a2ac <pow+0xac>
 800a28a:	4632      	mov	r2, r6
 800a28c:	463b      	mov	r3, r7
 800a28e:	4630      	mov	r0, r6
 800a290:	4639      	mov	r1, r7
 800a292:	f7f6 fc4b 	bl	8000b2c <__aeabi_dcmpun>
 800a296:	2800      	cmp	r0, #0
 800a298:	d0e2      	beq.n	800a260 <pow+0x60>
 800a29a:	f7fc fd61 	bl	8006d60 <__errno>
 800a29e:	2321      	movs	r3, #33	; 0x21
 800a2a0:	6003      	str	r3, [r0, #0]
 800a2a2:	ecbd 8b02 	vpop	{d8}
 800a2a6:	ec47 6b10 	vmov	d0, r6, r7
 800a2aa:	bdf8      	pop	{r3, r4, r5, r6, r7, pc}
 800a2ac:	2200      	movs	r2, #0
 800a2ae:	2300      	movs	r3, #0
 800a2b0:	4630      	mov	r0, r6
 800a2b2:	4639      	mov	r1, r7
 800a2b4:	f7f6 fc08 	bl	8000ac8 <__aeabi_dcmpeq>
 800a2b8:	2800      	cmp	r0, #0
 800a2ba:	d0f2      	beq.n	800a2a2 <pow+0xa2>
 800a2bc:	eeb0 0a48 	vmov.f32	s0, s16
 800a2c0:	eef0 0a68 	vmov.f32	s1, s17
 800a2c4:	f001 fb82 	bl	800b9cc <finite>
 800a2c8:	2800      	cmp	r0, #0
 800a2ca:	d0ea      	beq.n	800a2a2 <pow+0xa2>
 800a2cc:	ec45 4b10 	vmov	d0, r4, r5
 800a2d0:	f001 fb7c 	bl	800b9cc <finite>
 800a2d4:	e7c3      	b.n	800a25e <pow+0x5e>
 800a2d6:	4f01      	ldr	r7, [pc, #4]	; (800a2dc <pow+0xdc>)
 800a2d8:	2600      	movs	r6, #0
 800a2da:	e7e2      	b.n	800a2a2 <pow+0xa2>
 800a2dc:	3ff00000 	.word	0x3ff00000

0800a2e0 <sqrt>:
 800a2e0:	b538      	push	{r3, r4, r5, lr}
 800a2e2:	ed2d 8b02 	vpush	{d8}
 800a2e6:	ec55 4b10 	vmov	r4, r5, d0
 800a2ea:	f000 fd53 	bl	800ad94 <__ieee754_sqrt>
 800a2ee:	4622      	mov	r2, r4
 800a2f0:	462b      	mov	r3, r5
 800a2f2:	4620      	mov	r0, r4
 800a2f4:	4629      	mov	r1, r5
 800a2f6:	eeb0 8a40 	vmov.f32	s16, s0
 800a2fa:	eef0 8a60 	vmov.f32	s17, s1
 800a2fe:	f7f6 fc15 	bl	8000b2c <__aeabi_dcmpun>
 800a302:	b990      	cbnz	r0, 800a32a <sqrt+0x4a>
 800a304:	2200      	movs	r2, #0
 800a306:	2300      	movs	r3, #0
 800a308:	4620      	mov	r0, r4
 800a30a:	4629      	mov	r1, r5
 800a30c:	f7f6 fbe6 	bl	8000adc <__aeabi_dcmplt>
 800a310:	b158      	cbz	r0, 800a32a <sqrt+0x4a>
 800a312:	f7fc fd25 	bl	8006d60 <__errno>
 800a316:	2321      	movs	r3, #33	; 0x21
 800a318:	6003      	str	r3, [r0, #0]
 800a31a:	2200      	movs	r2, #0
 800a31c:	2300      	movs	r3, #0
 800a31e:	4610      	mov	r0, r2
 800a320:	4619      	mov	r1, r3
 800a322:	f7f6 fa93 	bl	800084c <__aeabi_ddiv>
 800a326:	ec41 0b18 	vmov	d8, r0, r1
 800a32a:	eeb0 0a48 	vmov.f32	s0, s16
 800a32e:	eef0 0a68 	vmov.f32	s1, s17
 800a332:	ecbd 8b02 	vpop	{d8}
 800a336:	bd38      	pop	{r3, r4, r5, pc}

0800a338 <__ieee754_pow>:
 800a338:	e92d 4ff0 	stmdb	sp!, {r4, r5, r6, r7, r8, r9, sl, fp, lr}
 800a33c:	ed2d 8b06 	vpush	{d8-d10}
 800a340:	b089      	sub	sp, #36	; 0x24
 800a342:	ed8d 1b00 	vstr	d1, [sp]
 800a346:	e9dd 2900 	ldrd	r2, r9, [sp]
 800a34a:	f029 4800 	bic.w	r8, r9, #2147483648	; 0x80000000
 800a34e:	ea58 0102 	orrs.w	r1, r8, r2
 800a352:	ec57 6b10 	vmov	r6, r7, d0
 800a356:	d115      	bne.n	800a384 <__ieee754_pow+0x4c>
 800a358:	19b3      	adds	r3, r6, r6
 800a35a:	f487 2200 	eor.w	r2, r7, #524288	; 0x80000
 800a35e:	4152      	adcs	r2, r2
 800a360:	4299      	cmp	r1, r3
 800a362:	4b89      	ldr	r3, [pc, #548]	; (800a588 <__ieee754_pow+0x250>)
 800a364:	4193      	sbcs	r3, r2
 800a366:	f080 84d2 	bcs.w	800ad0e <__ieee754_pow+0x9d6>
 800a36a:	e9dd 2300 	ldrd	r2, r3, [sp]
 800a36e:	4630      	mov	r0, r6
 800a370:	4639      	mov	r1, r7
 800a372:	f7f5 ff8b 	bl	800028c <__adddf3>
 800a376:	ec41 0b10 	vmov	d0, r0, r1
 800a37a:	b009      	add	sp, #36	; 0x24
 800a37c:	ecbd 8b06 	vpop	{d8-d10}
 800a380:	e8bd 8ff0 	ldmia.w	sp!, {r4, r5, r6, r7, r8, r9, sl, fp, pc}
 800a384:	4b81      	ldr	r3, [pc, #516]	; (800a58c <__ieee754_pow+0x254>)
 800a386:	f027 4400 	bic.w	r4, r7, #2147483648	; 0x80000000
 800a38a:	429c      	cmp	r4, r3
 800a38c:	ee10 aa10 	vmov	sl, s0
 800a390:	463d      	mov	r5, r7
 800a392:	dc06      	bgt.n	800a3a2 <__ieee754_pow+0x6a>
 800a394:	d101      	bne.n	800a39a <__ieee754_pow+0x62>
 800a396:	2e00      	cmp	r6, #0
 800a398:	d1e7      	bne.n	800a36a <__ieee754_pow+0x32>
 800a39a:	4598      	cmp	r8, r3
 800a39c:	dc01      	bgt.n	800a3a2 <__ieee754_pow+0x6a>
 800a39e:	d10f      	bne.n	800a3c0 <__ieee754_pow+0x88>
 800a3a0:	b172      	cbz	r2, 800a3c0 <__ieee754_pow+0x88>
 800a3a2:	f105 4540 	add.w	r5, r5, #3221225472	; 0xc0000000
 800a3a6:	f505 1580 	add.w	r5, r5, #1048576	; 0x100000
 800a3aa:	ea55 050a 	orrs.w	r5, r5, sl
 800a3ae:	d1dc      	bne.n	800a36a <__ieee754_pow+0x32>
 800a3b0:	e9dd 3200 	ldrd	r3, r2, [sp]
 800a3b4:	18db      	adds	r3, r3, r3
 800a3b6:	f482 2200 	eor.w	r2, r2, #524288	; 0x80000
 800a3ba:	4152      	adcs	r2, r2
 800a3bc:	429d      	cmp	r5, r3
 800a3be:	e7d0      	b.n	800a362 <__ieee754_pow+0x2a>
 800a3c0:	2d00      	cmp	r5, #0
 800a3c2:	da3b      	bge.n	800a43c <__ieee754_pow+0x104>
 800a3c4:	4b72      	ldr	r3, [pc, #456]	; (800a590 <__ieee754_pow+0x258>)
 800a3c6:	4598      	cmp	r8, r3
 800a3c8:	dc51      	bgt.n	800a46e <__ieee754_pow+0x136>
 800a3ca:	f1a3 7354 	sub.w	r3, r3, #55574528	; 0x3500000
 800a3ce:	4598      	cmp	r8, r3
 800a3d0:	f340 84ac 	ble.w	800ad2c <__ieee754_pow+0x9f4>
 800a3d4:	ea4f 5328 	mov.w	r3, r8, asr #20
 800a3d8:	f2a3 33ff 	subw	r3, r3, #1023	; 0x3ff
 800a3dc:	2b14      	cmp	r3, #20
 800a3de:	dd0f      	ble.n	800a400 <__ieee754_pow+0xc8>
 800a3e0:	f1c3 0334 	rsb	r3, r3, #52	; 0x34
 800a3e4:	fa22 f103 	lsr.w	r1, r2, r3
 800a3e8:	fa01 f303 	lsl.w	r3, r1, r3
 800a3ec:	4293      	cmp	r3, r2
 800a3ee:	f040 849d 	bne.w	800ad2c <__ieee754_pow+0x9f4>
 800a3f2:	f001 0101 	and.w	r1, r1, #1
 800a3f6:	f1c1 0302 	rsb	r3, r1, #2
 800a3fa:	9304      	str	r3, [sp, #16]
 800a3fc:	b182      	cbz	r2, 800a420 <__ieee754_pow+0xe8>
 800a3fe:	e05f      	b.n	800a4c0 <__ieee754_pow+0x188>
 800a400:	2a00      	cmp	r2, #0
 800a402:	d15b      	bne.n	800a4bc <__ieee754_pow+0x184>
 800a404:	f1c3 0314 	rsb	r3, r3, #20
 800a408:	fa48 f103 	asr.w	r1, r8, r3
 800a40c:	fa01 f303 	lsl.w	r3, r1, r3
 800a410:	4543      	cmp	r3, r8
 800a412:	f040 8488 	bne.w	800ad26 <__ieee754_pow+0x9ee>
 800a416:	f001 0101 	and.w	r1, r1, #1
 800a41a:	f1c1 0302 	rsb	r3, r1, #2
 800a41e:	9304      	str	r3, [sp, #16]
 800a420:	4b5c      	ldr	r3, [pc, #368]	; (800a594 <__ieee754_pow+0x25c>)
 800a422:	4598      	cmp	r8, r3
 800a424:	d132      	bne.n	800a48c <__ieee754_pow+0x154>
 800a426:	f1b9 0f00 	cmp.w	r9, #0
 800a42a:	f280 8478 	bge.w	800ad1e <__ieee754_pow+0x9e6>
 800a42e:	4959      	ldr	r1, [pc, #356]	; (800a594 <__ieee754_pow+0x25c>)
 800a430:	4632      	mov	r2, r6
 800a432:	463b      	mov	r3, r7
 800a434:	2000      	movs	r0, #0
 800a436:	f7f6 fa09 	bl	800084c <__aeabi_ddiv>
 800a43a:	e79c      	b.n	800a376 <__ieee754_pow+0x3e>
 800a43c:	2300      	movs	r3, #0
 800a43e:	9304      	str	r3, [sp, #16]
 800a440:	2a00      	cmp	r2, #0
 800a442:	d13d      	bne.n	800a4c0 <__ieee754_pow+0x188>
 800a444:	4b51      	ldr	r3, [pc, #324]	; (800a58c <__ieee754_pow+0x254>)
 800a446:	4598      	cmp	r8, r3
 800a448:	d1ea      	bne.n	800a420 <__ieee754_pow+0xe8>
 800a44a:	f104 4340 	add.w	r3, r4, #3221225472	; 0xc0000000
 800a44e:	f503 1380 	add.w	r3, r3, #1048576	; 0x100000
 800a452:	ea53 030a 	orrs.w	r3, r3, sl
 800a456:	f000 845a 	beq.w	800ad0e <__ieee754_pow+0x9d6>
 800a45a:	4b4f      	ldr	r3, [pc, #316]	; (800a598 <__ieee754_pow+0x260>)
 800a45c:	429c      	cmp	r4, r3
 800a45e:	dd08      	ble.n	800a472 <__ieee754_pow+0x13a>
 800a460:	f1b9 0f00 	cmp.w	r9, #0
 800a464:	f2c0 8457 	blt.w	800ad16 <__ieee754_pow+0x9de>
 800a468:	e9dd 0100 	ldrd	r0, r1, [sp]
 800a46c:	e783      	b.n	800a376 <__ieee754_pow+0x3e>
 800a46e:	2302      	movs	r3, #2
 800a470:	e7e5      	b.n	800a43e <__ieee754_pow+0x106>
 800a472:	f1b9 0f00 	cmp.w	r9, #0
 800a476:	f04f 0000 	mov.w	r0, #0
 800a47a:	f04f 0100 	mov.w	r1, #0
 800a47e:	f6bf af7a 	bge.w	800a376 <__ieee754_pow+0x3e>
 800a482:	e9dd 0300 	ldrd	r0, r3, [sp]
 800a486:	f103 4100 	add.w	r1, r3, #2147483648	; 0x80000000
 800a48a:	e774      	b.n	800a376 <__ieee754_pow+0x3e>
 800a48c:	f1b9 4f80 	cmp.w	r9, #1073741824	; 0x40000000
 800a490:	d106      	bne.n	800a4a0 <__ieee754_pow+0x168>
 800a492:	4632      	mov	r2, r6
 800a494:	463b      	mov	r3, r7
 800a496:	4630      	mov	r0, r6
 800a498:	4639      	mov	r1, r7
 800a49a:	f7f6 f8ad 	bl	80005f8 <__aeabi_dmul>
 800a49e:	e76a      	b.n	800a376 <__ieee754_pow+0x3e>
 800a4a0:	4b3e      	ldr	r3, [pc, #248]	; (800a59c <__ieee754_pow+0x264>)
 800a4a2:	4599      	cmp	r9, r3
 800a4a4:	d10c      	bne.n	800a4c0 <__ieee754_pow+0x188>
 800a4a6:	2d00      	cmp	r5, #0
 800a4a8:	db0a      	blt.n	800a4c0 <__ieee754_pow+0x188>
 800a4aa:	ec47 6b10 	vmov	d0, r6, r7
 800a4ae:	b009      	add	sp, #36	; 0x24
 800a4b0:	ecbd 8b06 	vpop	{d8-d10}
 800a4b4:	e8bd 4ff0 	ldmia.w	sp!, {r4, r5, r6, r7, r8, r9, sl, fp, lr}
 800a4b8:	f000 bc6c 	b.w	800ad94 <__ieee754_sqrt>
 800a4bc:	2300      	movs	r3, #0
 800a4be:	9304      	str	r3, [sp, #16]
 800a4c0:	ec47 6b10 	vmov	d0, r6, r7
 800a4c4:	f7ff fd00 	bl	8009ec8 <fabs>
 800a4c8:	ec51 0b10 	vmov	r0, r1, d0
 800a4cc:	f1ba 0f00 	cmp.w	sl, #0
 800a4d0:	d129      	bne.n	800a526 <__ieee754_pow+0x1ee>
 800a4d2:	b124      	cbz	r4, 800a4de <__ieee754_pow+0x1a6>
 800a4d4:	4b2f      	ldr	r3, [pc, #188]	; (800a594 <__ieee754_pow+0x25c>)
 800a4d6:	f025 4240 	bic.w	r2, r5, #3221225472	; 0xc0000000
 800a4da:	429a      	cmp	r2, r3
 800a4dc:	d123      	bne.n	800a526 <__ieee754_pow+0x1ee>
 800a4de:	f1b9 0f00 	cmp.w	r9, #0
 800a4e2:	da05      	bge.n	800a4f0 <__ieee754_pow+0x1b8>
 800a4e4:	4602      	mov	r2, r0
 800a4e6:	460b      	mov	r3, r1
 800a4e8:	2000      	movs	r0, #0
 800a4ea:	492a      	ldr	r1, [pc, #168]	; (800a594 <__ieee754_pow+0x25c>)
 800a4ec:	f7f6 f9ae 	bl	800084c <__aeabi_ddiv>
 800a4f0:	2d00      	cmp	r5, #0
 800a4f2:	f6bf af40 	bge.w	800a376 <__ieee754_pow+0x3e>
 800a4f6:	9b04      	ldr	r3, [sp, #16]
 800a4f8:	f104 4440 	add.w	r4, r4, #3221225472	; 0xc0000000
 800a4fc:	f504 1480 	add.w	r4, r4, #1048576	; 0x100000
 800a500:	4323      	orrs	r3, r4
 800a502:	d108      	bne.n	800a516 <__ieee754_pow+0x1de>
 800a504:	4602      	mov	r2, r0
 800a506:	460b      	mov	r3, r1
 800a508:	4610      	mov	r0, r2
 800a50a:	4619      	mov	r1, r3
 800a50c:	f7f5 febc 	bl	8000288 <__aeabi_dsub>
 800a510:	4602      	mov	r2, r0
 800a512:	460b      	mov	r3, r1
 800a514:	e78f      	b.n	800a436 <__ieee754_pow+0xfe>
 800a516:	9b04      	ldr	r3, [sp, #16]
 800a518:	2b01      	cmp	r3, #1
 800a51a:	f47f af2c 	bne.w	800a376 <__ieee754_pow+0x3e>
 800a51e:	f101 4300 	add.w	r3, r1, #2147483648	; 0x80000000
 800a522:	4619      	mov	r1, r3
 800a524:	e727      	b.n	800a376 <__ieee754_pow+0x3e>
 800a526:	0feb      	lsrs	r3, r5, #31
 800a528:	3b01      	subs	r3, #1
 800a52a:	9306      	str	r3, [sp, #24]
 800a52c:	9a06      	ldr	r2, [sp, #24]
 800a52e:	9b04      	ldr	r3, [sp, #16]
 800a530:	4313      	orrs	r3, r2
 800a532:	d102      	bne.n	800a53a <__ieee754_pow+0x202>
 800a534:	4632      	mov	r2, r6
 800a536:	463b      	mov	r3, r7
 800a538:	e7e6      	b.n	800a508 <__ieee754_pow+0x1d0>
 800a53a:	4b19      	ldr	r3, [pc, #100]	; (800a5a0 <__ieee754_pow+0x268>)
 800a53c:	4598      	cmp	r8, r3
 800a53e:	f340 80fb 	ble.w	800a738 <__ieee754_pow+0x400>
 800a542:	f103 7304 	add.w	r3, r3, #34603008	; 0x2100000
 800a546:	4598      	cmp	r8, r3
 800a548:	4b13      	ldr	r3, [pc, #76]	; (800a598 <__ieee754_pow+0x260>)
 800a54a:	dd0c      	ble.n	800a566 <__ieee754_pow+0x22e>
 800a54c:	429c      	cmp	r4, r3
 800a54e:	dc0f      	bgt.n	800a570 <__ieee754_pow+0x238>
 800a550:	f1b9 0f00 	cmp.w	r9, #0
 800a554:	da0f      	bge.n	800a576 <__ieee754_pow+0x23e>
 800a556:	2000      	movs	r0, #0
 800a558:	b009      	add	sp, #36	; 0x24
 800a55a:	ecbd 8b06 	vpop	{d8-d10}
 800a55e:	e8bd 4ff0 	ldmia.w	sp!, {r4, r5, r6, r7, r8, r9, sl, fp, lr}
 800a562:	f001 ba2a 	b.w	800b9ba <__math_oflow>
 800a566:	429c      	cmp	r4, r3
 800a568:	dbf2      	blt.n	800a550 <__ieee754_pow+0x218>
 800a56a:	4b0a      	ldr	r3, [pc, #40]	; (800a594 <__ieee754_pow+0x25c>)
 800a56c:	429c      	cmp	r4, r3
 800a56e:	dd19      	ble.n	800a5a4 <__ieee754_pow+0x26c>
 800a570:	f1b9 0f00 	cmp.w	r9, #0
 800a574:	dcef      	bgt.n	800a556 <__ieee754_pow+0x21e>
 800a576:	2000      	movs	r0, #0
 800a578:	b009      	add	sp, #36	; 0x24
 800a57a:	ecbd 8b06 	vpop	{d8-d10}
 800a57e:	e8bd 4ff0 	ldmia.w	sp!, {r4, r5, r6, r7, r8, r9, sl, fp, lr}
 800a582:	f001 ba11 	b.w	800b9a8 <__math_uflow>
 800a586:	bf00      	nop
 800a588:	fff00000 	.word	0xfff00000
 800a58c:	7ff00000 	.word	0x7ff00000
 800a590:	433fffff 	.word	0x433fffff
 800a594:	3ff00000 	.word	0x3ff00000
 800a598:	3fefffff 	.word	0x3fefffff
 800a59c:	3fe00000 	.word	0x3fe00000
 800a5a0:	41e00000 	.word	0x41e00000
 800a5a4:	4b60      	ldr	r3, [pc, #384]	; (800a728 <__ieee754_pow+0x3f0>)
 800a5a6:	2200      	movs	r2, #0
 800a5a8:	f7f5 fe6e 	bl	8000288 <__aeabi_dsub>
 800a5ac:	a354      	add	r3, pc, #336	; (adr r3, 800a700 <__ieee754_pow+0x3c8>)
 800a5ae:	e9d3 2300 	ldrd	r2, r3, [r3]
 800a5b2:	4604      	mov	r4, r0
 800a5b4:	460d      	mov	r5, r1
 800a5b6:	f7f6 f81f 	bl	80005f8 <__aeabi_dmul>
 800a5ba:	a353      	add	r3, pc, #332	; (adr r3, 800a708 <__ieee754_pow+0x3d0>)
 800a5bc:	e9d3 2300 	ldrd	r2, r3, [r3]
 800a5c0:	4606      	mov	r6, r0
 800a5c2:	460f      	mov	r7, r1
 800a5c4:	4620      	mov	r0, r4
 800a5c6:	4629      	mov	r1, r5
 800a5c8:	f7f6 f816 	bl	80005f8 <__aeabi_dmul>
 800a5cc:	4b57      	ldr	r3, [pc, #348]	; (800a72c <__ieee754_pow+0x3f4>)
 800a5ce:	4682      	mov	sl, r0
 800a5d0:	468b      	mov	fp, r1
 800a5d2:	2200      	movs	r2, #0
 800a5d4:	4620      	mov	r0, r4
 800a5d6:	4629      	mov	r1, r5
 800a5d8:	f7f6 f80e 	bl	80005f8 <__aeabi_dmul>
 800a5dc:	4602      	mov	r2, r0
 800a5de:	460b      	mov	r3, r1
 800a5e0:	a14b      	add	r1, pc, #300	; (adr r1, 800a710 <__ieee754_pow+0x3d8>)
 800a5e2:	e9d1 0100 	ldrd	r0, r1, [r1]
 800a5e6:	f7f5 fe4f 	bl	8000288 <__aeabi_dsub>
 800a5ea:	4622      	mov	r2, r4
 800a5ec:	462b      	mov	r3, r5
 800a5ee:	f7f6 f803 	bl	80005f8 <__aeabi_dmul>
 800a5f2:	4602      	mov	r2, r0
 800a5f4:	460b      	mov	r3, r1
 800a5f6:	2000      	movs	r0, #0
 800a5f8:	494d      	ldr	r1, [pc, #308]	; (800a730 <__ieee754_pow+0x3f8>)
 800a5fa:	f7f5 fe45 	bl	8000288 <__aeabi_dsub>
 800a5fe:	4622      	mov	r2, r4
 800a600:	4680      	mov	r8, r0
 800a602:	4689      	mov	r9, r1
 800a604:	462b      	mov	r3, r5
 800a606:	4620      	mov	r0, r4
 800a608:	4629      	mov	r1, r5
 800a60a:	f7f5 fff5 	bl	80005f8 <__aeabi_dmul>
 800a60e:	4602      	mov	r2, r0
 800a610:	460b      	mov	r3, r1
 800a612:	4640      	mov	r0, r8
 800a614:	4649      	mov	r1, r9
 800a616:	f7f5 ffef 	bl	80005f8 <__aeabi_dmul>
 800a61a:	a33f      	add	r3, pc, #252	; (adr r3, 800a718 <__ieee754_pow+0x3e0>)
 800a61c:	e9d3 2300 	ldrd	r2, r3, [r3]
 800a620:	f7f5 ffea 	bl	80005f8 <__aeabi_dmul>
 800a624:	4602      	mov	r2, r0
 800a626:	460b      	mov	r3, r1
 800a628:	4650      	mov	r0, sl
 800a62a:	4659      	mov	r1, fp
 800a62c:	f7f5 fe2c 	bl	8000288 <__aeabi_dsub>
 800a630:	4602      	mov	r2, r0
 800a632:	460b      	mov	r3, r1
 800a634:	4680      	mov	r8, r0
 800a636:	4689      	mov	r9, r1
 800a638:	4630      	mov	r0, r6
 800a63a:	4639      	mov	r1, r7
 800a63c:	f7f5 fe26 	bl	800028c <__adddf3>
 800a640:	2000      	movs	r0, #0
 800a642:	4632      	mov	r2, r6
 800a644:	463b      	mov	r3, r7
 800a646:	4604      	mov	r4, r0
 800a648:	460d      	mov	r5, r1
 800a64a:	f7f5 fe1d 	bl	8000288 <__aeabi_dsub>
 800a64e:	4602      	mov	r2, r0
 800a650:	460b      	mov	r3, r1
 800a652:	4640      	mov	r0, r8
 800a654:	4649      	mov	r1, r9
 800a656:	f7f5 fe17 	bl	8000288 <__aeabi_dsub>
 800a65a:	9b04      	ldr	r3, [sp, #16]
 800a65c:	9a06      	ldr	r2, [sp, #24]
 800a65e:	3b01      	subs	r3, #1
 800a660:	4313      	orrs	r3, r2
 800a662:	4682      	mov	sl, r0
 800a664:	468b      	mov	fp, r1
 800a666:	f040 81e7 	bne.w	800aa38 <__ieee754_pow+0x700>
 800a66a:	ed9f 7b2d 	vldr	d7, [pc, #180]	; 800a720 <__ieee754_pow+0x3e8>
 800a66e:	eeb0 8a47 	vmov.f32	s16, s14
 800a672:	eef0 8a67 	vmov.f32	s17, s15
 800a676:	e9dd 6700 	ldrd	r6, r7, [sp]
 800a67a:	2600      	movs	r6, #0
 800a67c:	4632      	mov	r2, r6
 800a67e:	463b      	mov	r3, r7
 800a680:	e9dd 0100 	ldrd	r0, r1, [sp]
 800a684:	f7f5 fe00 	bl	8000288 <__aeabi_dsub>
 800a688:	4622      	mov	r2, r4
 800a68a:	462b      	mov	r3, r5
 800a68c:	f7f5 ffb4 	bl	80005f8 <__aeabi_dmul>
 800a690:	e9dd 2300 	ldrd	r2, r3, [sp]
 800a694:	4680      	mov	r8, r0
 800a696:	4689      	mov	r9, r1
 800a698:	4650      	mov	r0, sl
 800a69a:	4659      	mov	r1, fp
 800a69c:	f7f5 ffac 	bl	80005f8 <__aeabi_dmul>
 800a6a0:	4602      	mov	r2, r0
 800a6a2:	460b      	mov	r3, r1
 800a6a4:	4640      	mov	r0, r8
 800a6a6:	4649      	mov	r1, r9
 800a6a8:	f7f5 fdf0 	bl	800028c <__adddf3>
 800a6ac:	4632      	mov	r2, r6
 800a6ae:	463b      	mov	r3, r7
 800a6b0:	4680      	mov	r8, r0
 800a6b2:	4689      	mov	r9, r1
 800a6b4:	4620      	mov	r0, r4
 800a6b6:	4629      	mov	r1, r5
 800a6b8:	f7f5 ff9e 	bl	80005f8 <__aeabi_dmul>
 800a6bc:	460b      	mov	r3, r1
 800a6be:	4604      	mov	r4, r0
 800a6c0:	460d      	mov	r5, r1
 800a6c2:	4602      	mov	r2, r0
 800a6c4:	4649      	mov	r1, r9
 800a6c6:	4640      	mov	r0, r8
 800a6c8:	f7f5 fde0 	bl	800028c <__adddf3>
 800a6cc:	4b19      	ldr	r3, [pc, #100]	; (800a734 <__ieee754_pow+0x3fc>)
 800a6ce:	4299      	cmp	r1, r3
 800a6d0:	ec45 4b19 	vmov	d9, r4, r5
 800a6d4:	4606      	mov	r6, r0
 800a6d6:	460f      	mov	r7, r1
 800a6d8:	468b      	mov	fp, r1
 800a6da:	f340 82f1 	ble.w	800acc0 <__ieee754_pow+0x988>
 800a6de:	f101 433f 	add.w	r3, r1, #3204448256	; 0xbf000000
 800a6e2:	f503 03e0 	add.w	r3, r3, #7340032	; 0x700000
 800a6e6:	4303      	orrs	r3, r0
 800a6e8:	f000 81e4 	beq.w	800aab4 <__ieee754_pow+0x77c>
 800a6ec:	ec51 0b18 	vmov	r0, r1, d8
 800a6f0:	2200      	movs	r2, #0
 800a6f2:	2300      	movs	r3, #0
 800a6f4:	f7f6 f9f2 	bl	8000adc <__aeabi_dcmplt>
 800a6f8:	3800      	subs	r0, #0
 800a6fa:	bf18      	it	ne
 800a6fc:	2001      	movne	r0, #1
 800a6fe:	e72b      	b.n	800a558 <__ieee754_pow+0x220>
 800a700:	60000000 	.word	0x60000000
 800a704:	3ff71547 	.word	0x3ff71547
 800a708:	f85ddf44 	.word	0xf85ddf44
 800a70c:	3e54ae0b 	.word	0x3e54ae0b
 800a710:	55555555 	.word	0x55555555
 800a714:	3fd55555 	.word	0x3fd55555
 800a718:	652b82fe 	.word	0x652b82fe
 800a71c:	3ff71547 	.word	0x3ff71547
 800a720:	00000000 	.word	0x00000000
 800a724:	bff00000 	.word	0xbff00000
 800a728:	3ff00000 	.word	0x3ff00000
 800a72c:	3fd00000 	.word	0x3fd00000
 800a730:	3fe00000 	.word	0x3fe00000
 800a734:	408fffff 	.word	0x408fffff
 800a738:	4bd5      	ldr	r3, [pc, #852]	; (800aa90 <__ieee754_pow+0x758>)
 800a73a:	402b      	ands	r3, r5
 800a73c:	2200      	movs	r2, #0
 800a73e:	b92b      	cbnz	r3, 800a74c <__ieee754_pow+0x414>
 800a740:	4bd4      	ldr	r3, [pc, #848]	; (800aa94 <__ieee754_pow+0x75c>)
 800a742:	f7f5 ff59 	bl	80005f8 <__aeabi_dmul>
 800a746:	f06f 0234 	mvn.w	r2, #52	; 0x34
 800a74a:	460c      	mov	r4, r1
 800a74c:	1523      	asrs	r3, r4, #20
 800a74e:	f2a3 33ff 	subw	r3, r3, #1023	; 0x3ff
 800a752:	4413      	add	r3, r2
 800a754:	9305      	str	r3, [sp, #20]
 800a756:	4bd0      	ldr	r3, [pc, #832]	; (800aa98 <__ieee754_pow+0x760>)
 800a758:	f3c4 0413 	ubfx	r4, r4, #0, #20
 800a75c:	f044 557f 	orr.w	r5, r4, #1069547520	; 0x3fc00000
 800a760:	429c      	cmp	r4, r3
 800a762:	f445 1540 	orr.w	r5, r5, #3145728	; 0x300000
 800a766:	dd08      	ble.n	800a77a <__ieee754_pow+0x442>
 800a768:	4bcc      	ldr	r3, [pc, #816]	; (800aa9c <__ieee754_pow+0x764>)
 800a76a:	429c      	cmp	r4, r3
 800a76c:	f340 8162 	ble.w	800aa34 <__ieee754_pow+0x6fc>
 800a770:	9b05      	ldr	r3, [sp, #20]
 800a772:	3301      	adds	r3, #1
 800a774:	9305      	str	r3, [sp, #20]
 800a776:	f5a5 1580 	sub.w	r5, r5, #1048576	; 0x100000
 800a77a:	2400      	movs	r4, #0
 800a77c:	00e3      	lsls	r3, r4, #3
 800a77e:	9307      	str	r3, [sp, #28]
 800a780:	4bc7      	ldr	r3, [pc, #796]	; (800aaa0 <__ieee754_pow+0x768>)
 800a782:	eb03 03c4 	add.w	r3, r3, r4, lsl #3
 800a786:	ed93 7b00 	vldr	d7, [r3]
 800a78a:	4629      	mov	r1, r5
 800a78c:	ec53 2b17 	vmov	r2, r3, d7
 800a790:	eeb0 9a47 	vmov.f32	s18, s14
 800a794:	eef0 9a67 	vmov.f32	s19, s15
 800a798:	4682      	mov	sl, r0
 800a79a:	f7f5 fd75 	bl	8000288 <__aeabi_dsub>
 800a79e:	4652      	mov	r2, sl
 800a7a0:	4606      	mov	r6, r0
 800a7a2:	460f      	mov	r7, r1
 800a7a4:	462b      	mov	r3, r5
 800a7a6:	ec51 0b19 	vmov	r0, r1, d9
 800a7aa:	f7f5 fd6f 	bl	800028c <__adddf3>
 800a7ae:	4602      	mov	r2, r0
 800a7b0:	460b      	mov	r3, r1
 800a7b2:	2000      	movs	r0, #0
 800a7b4:	49bb      	ldr	r1, [pc, #748]	; (800aaa4 <__ieee754_pow+0x76c>)
 800a7b6:	f7f6 f849 	bl	800084c <__aeabi_ddiv>
 800a7ba:	ec41 0b1a 	vmov	d10, r0, r1
 800a7be:	4602      	mov	r2, r0
 800a7c0:	460b      	mov	r3, r1
 800a7c2:	4630      	mov	r0, r6
 800a7c4:	4639      	mov	r1, r7
 800a7c6:	f7f5 ff17 	bl	80005f8 <__aeabi_dmul>
 800a7ca:	2300      	movs	r3, #0
 800a7cc:	e9cd 0102 	strd	r0, r1, [sp, #8]
 800a7d0:	9302      	str	r3, [sp, #8]
 800a7d2:	e9dd 8902 	ldrd	r8, r9, [sp, #8]
 800a7d6:	46ab      	mov	fp, r5
 800a7d8:	106d      	asrs	r5, r5, #1
 800a7da:	f045 5500 	orr.w	r5, r5, #536870912	; 0x20000000
 800a7de:	f505 2500 	add.w	r5, r5, #524288	; 0x80000
 800a7e2:	ec41 0b18 	vmov	d8, r0, r1
 800a7e6:	eb05 4384 	add.w	r3, r5, r4, lsl #18
 800a7ea:	2200      	movs	r2, #0
 800a7ec:	4640      	mov	r0, r8
 800a7ee:	4649      	mov	r1, r9
 800a7f0:	4614      	mov	r4, r2
 800a7f2:	461d      	mov	r5, r3
 800a7f4:	f7f5 ff00 	bl	80005f8 <__aeabi_dmul>
 800a7f8:	4602      	mov	r2, r0
 800a7fa:	460b      	mov	r3, r1
 800a7fc:	4630      	mov	r0, r6
 800a7fe:	4639      	mov	r1, r7
 800a800:	f7f5 fd42 	bl	8000288 <__aeabi_dsub>
 800a804:	ec53 2b19 	vmov	r2, r3, d9
 800a808:	4606      	mov	r6, r0
 800a80a:	460f      	mov	r7, r1
 800a80c:	4620      	mov	r0, r4
 800a80e:	4629      	mov	r1, r5
 800a810:	f7f5 fd3a 	bl	8000288 <__aeabi_dsub>
 800a814:	4602      	mov	r2, r0
 800a816:	460b      	mov	r3, r1
 800a818:	4650      	mov	r0, sl
 800a81a:	4659      	mov	r1, fp
 800a81c:	f7f5 fd34 	bl	8000288 <__aeabi_dsub>
 800a820:	4642      	mov	r2, r8
 800a822:	464b      	mov	r3, r9
 800a824:	f7f5 fee8 	bl	80005f8 <__aeabi_dmul>
 800a828:	4602      	mov	r2, r0
 800a82a:	460b      	mov	r3, r1
 800a82c:	4630      	mov	r0, r6
 800a82e:	4639      	mov	r1, r7
 800a830:	f7f5 fd2a 	bl	8000288 <__aeabi_dsub>
 800a834:	ec53 2b1a 	vmov	r2, r3, d10
 800a838:	f7f5 fede 	bl	80005f8 <__aeabi_dmul>
 800a83c:	ec53 2b18 	vmov	r2, r3, d8
 800a840:	ec41 0b19 	vmov	d9, r0, r1
 800a844:	ec51 0b18 	vmov	r0, r1, d8
 800a848:	f7f5 fed6 	bl	80005f8 <__aeabi_dmul>
 800a84c:	a37c      	add	r3, pc, #496	; (adr r3, 800aa40 <__ieee754_pow+0x708>)
 800a84e:	e9d3 2300 	ldrd	r2, r3, [r3]
 800a852:	4604      	mov	r4, r0
 800a854:	460d      	mov	r5, r1
 800a856:	f7f5 fecf 	bl	80005f8 <__aeabi_dmul>
 800a85a:	a37b      	add	r3, pc, #492	; (adr r3, 800aa48 <__ieee754_pow+0x710>)
 800a85c:	e9d3 2300 	ldrd	r2, r3, [r3]
 800a860:	f7f5 fd14 	bl	800028c <__adddf3>
 800a864:	4622      	mov	r2, r4
 800a866:	462b      	mov	r3, r5
 800a868:	f7f5 fec6 	bl	80005f8 <__aeabi_dmul>
 800a86c:	a378      	add	r3, pc, #480	; (adr r3, 800aa50 <__ieee754_pow+0x718>)
 800a86e:	e9d3 2300 	ldrd	r2, r3, [r3]
 800a872:	f7f5 fd0b 	bl	800028c <__adddf3>
 800a876:	4622      	mov	r2, r4
 800a878:	462b      	mov	r3, r5
 800a87a:	f7f5 febd 	bl	80005f8 <__aeabi_dmul>
 800a87e:	a376      	add	r3, pc, #472	; (adr r3, 800aa58 <__ieee754_pow+0x720>)
 800a880:	e9d3 2300 	ldrd	r2, r3, [r3]
 800a884:	f7f5 fd02 	bl	800028c <__adddf3>
 800a888:	4622      	mov	r2, r4
 800a88a:	462b      	mov	r3, r5
 800a88c:	f7f5 feb4 	bl	80005f8 <__aeabi_dmul>
 800a890:	a373      	add	r3, pc, #460	; (adr r3, 800aa60 <__ieee754_pow+0x728>)
 800a892:	e9d3 2300 	ldrd	r2, r3, [r3]
 800a896:	f7f5 fcf9 	bl	800028c <__adddf3>
 800a89a:	4622      	mov	r2, r4
 800a89c:	462b      	mov	r3, r5
 800a89e:	f7f5 feab 	bl	80005f8 <__aeabi_dmul>
 800a8a2:	a371      	add	r3, pc, #452	; (adr r3, 800aa68 <__ieee754_pow+0x730>)
 800a8a4:	e9d3 2300 	ldrd	r2, r3, [r3]
 800a8a8:	f7f5 fcf0 	bl	800028c <__adddf3>
 800a8ac:	4622      	mov	r2, r4
 800a8ae:	4606      	mov	r6, r0
 800a8b0:	460f      	mov	r7, r1
 800a8b2:	462b      	mov	r3, r5
 800a8b4:	4620      	mov	r0, r4
 800a8b6:	4629      	mov	r1, r5
 800a8b8:	f7f5 fe9e 	bl	80005f8 <__aeabi_dmul>
 800a8bc:	4602      	mov	r2, r0
 800a8be:	460b      	mov	r3, r1
 800a8c0:	4630      	mov	r0, r6
 800a8c2:	4639      	mov	r1, r7
 800a8c4:	f7f5 fe98 	bl	80005f8 <__aeabi_dmul>
 800a8c8:	4642      	mov	r2, r8
 800a8ca:	4604      	mov	r4, r0
 800a8cc:	460d      	mov	r5, r1
 800a8ce:	464b      	mov	r3, r9
 800a8d0:	ec51 0b18 	vmov	r0, r1, d8
 800a8d4:	f7f5 fcda 	bl	800028c <__adddf3>
 800a8d8:	ec53 2b19 	vmov	r2, r3, d9
 800a8dc:	f7f5 fe8c 	bl	80005f8 <__aeabi_dmul>
 800a8e0:	4622      	mov	r2, r4
 800a8e2:	462b      	mov	r3, r5
 800a8e4:	f7f5 fcd2 	bl	800028c <__adddf3>
 800a8e8:	4642      	mov	r2, r8
 800a8ea:	4682      	mov	sl, r0
 800a8ec:	468b      	mov	fp, r1
 800a8ee:	464b      	mov	r3, r9
 800a8f0:	4640      	mov	r0, r8
 800a8f2:	4649      	mov	r1, r9
 800a8f4:	f7f5 fe80 	bl	80005f8 <__aeabi_dmul>
 800a8f8:	4b6b      	ldr	r3, [pc, #428]	; (800aaa8 <__ieee754_pow+0x770>)
 800a8fa:	2200      	movs	r2, #0
 800a8fc:	4606      	mov	r6, r0
 800a8fe:	460f      	mov	r7, r1
 800a900:	f7f5 fcc4 	bl	800028c <__adddf3>
 800a904:	4652      	mov	r2, sl
 800a906:	465b      	mov	r3, fp
 800a908:	f7f5 fcc0 	bl	800028c <__adddf3>
 800a90c:	2000      	movs	r0, #0
 800a90e:	4604      	mov	r4, r0
 800a910:	460d      	mov	r5, r1
 800a912:	4602      	mov	r2, r0
 800a914:	460b      	mov	r3, r1
 800a916:	4640      	mov	r0, r8
 800a918:	4649      	mov	r1, r9
 800a91a:	f7f5 fe6d 	bl	80005f8 <__aeabi_dmul>
 800a91e:	4b62      	ldr	r3, [pc, #392]	; (800aaa8 <__ieee754_pow+0x770>)
 800a920:	4680      	mov	r8, r0
 800a922:	4689      	mov	r9, r1
 800a924:	2200      	movs	r2, #0
 800a926:	4620      	mov	r0, r4
 800a928:	4629      	mov	r1, r5
 800a92a:	f7f5 fcad 	bl	8000288 <__aeabi_dsub>
 800a92e:	4632      	mov	r2, r6
 800a930:	463b      	mov	r3, r7
 800a932:	f7f5 fca9 	bl	8000288 <__aeabi_dsub>
 800a936:	4602      	mov	r2, r0
 800a938:	460b      	mov	r3, r1
 800a93a:	4650      	mov	r0, sl
 800a93c:	4659      	mov	r1, fp
 800a93e:	f7f5 fca3 	bl	8000288 <__aeabi_dsub>
 800a942:	ec53 2b18 	vmov	r2, r3, d8
 800a946:	f7f5 fe57 	bl	80005f8 <__aeabi_dmul>
 800a94a:	4622      	mov	r2, r4
 800a94c:	4606      	mov	r6, r0
 800a94e:	460f      	mov	r7, r1
 800a950:	462b      	mov	r3, r5
 800a952:	ec51 0b19 	vmov	r0, r1, d9
 800a956:	f7f5 fe4f 	bl	80005f8 <__aeabi_dmul>
 800a95a:	4602      	mov	r2, r0
 800a95c:	460b      	mov	r3, r1
 800a95e:	4630      	mov	r0, r6
 800a960:	4639      	mov	r1, r7
 800a962:	f7f5 fc93 	bl	800028c <__adddf3>
 800a966:	4606      	mov	r6, r0
 800a968:	460f      	mov	r7, r1
 800a96a:	4602      	mov	r2, r0
 800a96c:	460b      	mov	r3, r1
 800a96e:	4640      	mov	r0, r8
 800a970:	4649      	mov	r1, r9
 800a972:	f7f5 fc8b 	bl	800028c <__adddf3>
 800a976:	a33e      	add	r3, pc, #248	; (adr r3, 800aa70 <__ieee754_pow+0x738>)
 800a978:	e9d3 2300 	ldrd	r2, r3, [r3]
 800a97c:	2000      	movs	r0, #0
 800a97e:	4604      	mov	r4, r0
 800a980:	460d      	mov	r5, r1
 800a982:	f7f5 fe39 	bl	80005f8 <__aeabi_dmul>
 800a986:	4642      	mov	r2, r8
 800a988:	ec41 0b18 	vmov	d8, r0, r1
 800a98c:	464b      	mov	r3, r9
 800a98e:	4620      	mov	r0, r4
 800a990:	4629      	mov	r1, r5
 800a992:	f7f5 fc79 	bl	8000288 <__aeabi_dsub>
 800a996:	4602      	mov	r2, r0
 800a998:	460b      	mov	r3, r1
 800a99a:	4630      	mov	r0, r6
 800a99c:	4639      	mov	r1, r7
 800a99e:	f7f5 fc73 	bl	8000288 <__aeabi_dsub>
 800a9a2:	a335      	add	r3, pc, #212	; (adr r3, 800aa78 <__ieee754_pow+0x740>)
 800a9a4:	e9d3 2300 	ldrd	r2, r3, [r3]
 800a9a8:	f7f5 fe26 	bl	80005f8 <__aeabi_dmul>
 800a9ac:	a334      	add	r3, pc, #208	; (adr r3, 800aa80 <__ieee754_pow+0x748>)
 800a9ae:	e9d3 2300 	ldrd	r2, r3, [r3]
 800a9b2:	4606      	mov	r6, r0
 800a9b4:	460f      	mov	r7, r1
 800a9b6:	4620      	mov	r0, r4
 800a9b8:	4629      	mov	r1, r5
 800a9ba:	f7f5 fe1d 	bl	80005f8 <__aeabi_dmul>
 800a9be:	4602      	mov	r2, r0
 800a9c0:	460b      	mov	r3, r1
 800a9c2:	4630      	mov	r0, r6
 800a9c4:	4639      	mov	r1, r7
 800a9c6:	f7f5 fc61 	bl	800028c <__adddf3>
 800a9ca:	9a07      	ldr	r2, [sp, #28]
 800a9cc:	4b37      	ldr	r3, [pc, #220]	; (800aaac <__ieee754_pow+0x774>)
 800a9ce:	4413      	add	r3, r2
 800a9d0:	e9d3 2300 	ldrd	r2, r3, [r3]
 800a9d4:	f7f5 fc5a 	bl	800028c <__adddf3>
 800a9d8:	4682      	mov	sl, r0
 800a9da:	9805      	ldr	r0, [sp, #20]
 800a9dc:	468b      	mov	fp, r1
 800a9de:	f7f5 fda1 	bl	8000524 <__aeabi_i2d>
 800a9e2:	9a07      	ldr	r2, [sp, #28]
 800a9e4:	4b32      	ldr	r3, [pc, #200]	; (800aab0 <__ieee754_pow+0x778>)
 800a9e6:	4413      	add	r3, r2
 800a9e8:	e9d3 8900 	ldrd	r8, r9, [r3]
 800a9ec:	4606      	mov	r6, r0
 800a9ee:	460f      	mov	r7, r1
 800a9f0:	4652      	mov	r2, sl
 800a9f2:	465b      	mov	r3, fp
 800a9f4:	ec51 0b18 	vmov	r0, r1, d8
 800a9f8:	f7f5 fc48 	bl	800028c <__adddf3>
 800a9fc:	4642      	mov	r2, r8
 800a9fe:	464b      	mov	r3, r9
 800aa00:	f7f5 fc44 	bl	800028c <__adddf3>
 800aa04:	4632      	mov	r2, r6
 800aa06:	463b      	mov	r3, r7
 800aa08:	f7f5 fc40 	bl	800028c <__adddf3>
 800aa0c:	2000      	movs	r0, #0
 800aa0e:	4632      	mov	r2, r6
 800aa10:	463b      	mov	r3, r7
 800aa12:	4604      	mov	r4, r0
 800aa14:	460d      	mov	r5, r1
 800aa16:	f7f5 fc37 	bl	8000288 <__aeabi_dsub>
 800aa1a:	4642      	mov	r2, r8
 800aa1c:	464b      	mov	r3, r9
 800aa1e:	f7f5 fc33 	bl	8000288 <__aeabi_dsub>
 800aa22:	ec53 2b18 	vmov	r2, r3, d8
 800aa26:	f7f5 fc2f 	bl	8000288 <__aeabi_dsub>
 800aa2a:	4602      	mov	r2, r0
 800aa2c:	460b      	mov	r3, r1
 800aa2e:	4650      	mov	r0, sl
 800aa30:	4659      	mov	r1, fp
 800aa32:	e610      	b.n	800a656 <__ieee754_pow+0x31e>
 800aa34:	2401      	movs	r4, #1
 800aa36:	e6a1      	b.n	800a77c <__ieee754_pow+0x444>
 800aa38:	ed9f 7b13 	vldr	d7, [pc, #76]	; 800aa88 <__ieee754_pow+0x750>
 800aa3c:	e617      	b.n	800a66e <__ieee754_pow+0x336>
 800aa3e:	bf00      	nop
 800aa40:	4a454eef 	.word	0x4a454eef
 800aa44:	3fca7e28 	.word	0x3fca7e28
 800aa48:	93c9db65 	.word	0x93c9db65
 800aa4c:	3fcd864a 	.word	0x3fcd864a
 800aa50:	a91d4101 	.word	0xa91d4101
 800aa54:	3fd17460 	.word	0x3fd17460
 800aa58:	518f264d 	.word	0x518f264d
 800aa5c:	3fd55555 	.word	0x3fd55555
 800aa60:	db6fabff 	.word	0xdb6fabff
 800aa64:	3fdb6db6 	.word	0x3fdb6db6
 800aa68:	33333303 	.word	0x33333303
 800aa6c:	3fe33333 	.word	0x3fe33333
 800aa70:	e0000000 	.word	0xe0000000
 800aa74:	3feec709 	.word	0x3feec709
 800aa78:	dc3a03fd 	.word	0xdc3a03fd
 800aa7c:	3feec709 	.word	0x3feec709
 800aa80:	145b01f5 	.word	0x145b01f5
 800aa84:	be3e2fe0 	.word	0xbe3e2fe0
 800aa88:	00000000 	.word	0x00000000
 800aa8c:	3ff00000 	.word	0x3ff00000
 800aa90:	7ff00000 	.word	0x7ff00000
 800aa94:	43400000 	.word	0x43400000
 800aa98:	0003988e 	.word	0x0003988e
 800aa9c:	000bb679 	.word	0x000bb679
 800aaa0:	0800c110 	.word	0x0800c110
 800aaa4:	3ff00000 	.word	0x3ff00000
 800aaa8:	40080000 	.word	0x40080000
 800aaac:	0800c130 	.word	0x0800c130
 800aab0:	0800c120 	.word	0x0800c120
 800aab4:	a3b5      	add	r3, pc, #724	; (adr r3, 800ad8c <__ieee754_pow+0xa54>)
 800aab6:	e9d3 2300 	ldrd	r2, r3, [r3]
 800aaba:	4640      	mov	r0, r8
 800aabc:	4649      	mov	r1, r9
 800aabe:	f7f5 fbe5 	bl	800028c <__adddf3>
 800aac2:	4622      	mov	r2, r4
 800aac4:	ec41 0b1a 	vmov	d10, r0, r1
 800aac8:	462b      	mov	r3, r5
 800aaca:	4630      	mov	r0, r6
 800aacc:	4639      	mov	r1, r7
 800aace:	f7f5 fbdb 	bl	8000288 <__aeabi_dsub>
 800aad2:	4602      	mov	r2, r0
 800aad4:	460b      	mov	r3, r1
 800aad6:	ec51 0b1a 	vmov	r0, r1, d10
 800aada:	f7f6 f81d 	bl	8000b18 <__aeabi_dcmpgt>
 800aade:	2800      	cmp	r0, #0
 800aae0:	f47f ae04 	bne.w	800a6ec <__ieee754_pow+0x3b4>
 800aae4:	4aa4      	ldr	r2, [pc, #656]	; (800ad78 <__ieee754_pow+0xa40>)
 800aae6:	f02b 4300 	bic.w	r3, fp, #2147483648	; 0x80000000
 800aaea:	4293      	cmp	r3, r2
 800aaec:	f340 8108 	ble.w	800ad00 <__ieee754_pow+0x9c8>
 800aaf0:	151b      	asrs	r3, r3, #20
 800aaf2:	f44f 1a80 	mov.w	sl, #1048576	; 0x100000
 800aaf6:	f2a3 33fe 	subw	r3, r3, #1022	; 0x3fe
 800aafa:	fa4a f303 	asr.w	r3, sl, r3
 800aafe:	445b      	add	r3, fp
 800ab00:	f3c3 520a 	ubfx	r2, r3, #20, #11
 800ab04:	4e9d      	ldr	r6, [pc, #628]	; (800ad7c <__ieee754_pow+0xa44>)
 800ab06:	f2a2 32ff 	subw	r2, r2, #1023	; 0x3ff
 800ab0a:	4116      	asrs	r6, r2
 800ab0c:	f3c3 0a13 	ubfx	sl, r3, #0, #20
 800ab10:	2000      	movs	r0, #0
 800ab12:	ea23 0106 	bic.w	r1, r3, r6
 800ab16:	f1c2 0214 	rsb	r2, r2, #20
 800ab1a:	f44a 1a80 	orr.w	sl, sl, #1048576	; 0x100000
 800ab1e:	fa4a fa02 	asr.w	sl, sl, r2
 800ab22:	f1bb 0f00 	cmp.w	fp, #0
 800ab26:	4602      	mov	r2, r0
 800ab28:	460b      	mov	r3, r1
 800ab2a:	4620      	mov	r0, r4
 800ab2c:	4629      	mov	r1, r5
 800ab2e:	bfb8      	it	lt
 800ab30:	f1ca 0a00 	rsblt	sl, sl, #0
 800ab34:	f7f5 fba8 	bl	8000288 <__aeabi_dsub>
 800ab38:	ec41 0b19 	vmov	d9, r0, r1
 800ab3c:	4642      	mov	r2, r8
 800ab3e:	464b      	mov	r3, r9
 800ab40:	ec51 0b19 	vmov	r0, r1, d9
 800ab44:	f7f5 fba2 	bl	800028c <__adddf3>
 800ab48:	a37b      	add	r3, pc, #492	; (adr r3, 800ad38 <__ieee754_pow+0xa00>)
 800ab4a:	e9d3 2300 	ldrd	r2, r3, [r3]
 800ab4e:	2000      	movs	r0, #0
 800ab50:	4604      	mov	r4, r0
 800ab52:	460d      	mov	r5, r1
 800ab54:	f7f5 fd50 	bl	80005f8 <__aeabi_dmul>
 800ab58:	ec53 2b19 	vmov	r2, r3, d9
 800ab5c:	4606      	mov	r6, r0
 800ab5e:	460f      	mov	r7, r1
 800ab60:	4620      	mov	r0, r4
 800ab62:	4629      	mov	r1, r5
 800ab64:	f7f5 fb90 	bl	8000288 <__aeabi_dsub>
 800ab68:	4602      	mov	r2, r0
 800ab6a:	460b      	mov	r3, r1
 800ab6c:	4640      	mov	r0, r8
 800ab6e:	4649      	mov	r1, r9
 800ab70:	f7f5 fb8a 	bl	8000288 <__aeabi_dsub>
 800ab74:	a372      	add	r3, pc, #456	; (adr r3, 800ad40 <__ieee754_pow+0xa08>)
 800ab76:	e9d3 2300 	ldrd	r2, r3, [r3]
 800ab7a:	f7f5 fd3d 	bl	80005f8 <__aeabi_dmul>
 800ab7e:	a372      	add	r3, pc, #456	; (adr r3, 800ad48 <__ieee754_pow+0xa10>)
 800ab80:	e9d3 2300 	ldrd	r2, r3, [r3]
 800ab84:	4680      	mov	r8, r0
 800ab86:	4689      	mov	r9, r1
 800ab88:	4620      	mov	r0, r4
 800ab8a:	4629      	mov	r1, r5
 800ab8c:	f7f5 fd34 	bl	80005f8 <__aeabi_dmul>
 800ab90:	4602      	mov	r2, r0
 800ab92:	460b      	mov	r3, r1
 800ab94:	4640      	mov	r0, r8
 800ab96:	4649      	mov	r1, r9
 800ab98:	f7f5 fb78 	bl	800028c <__adddf3>
 800ab9c:	4604      	mov	r4, r0
 800ab9e:	460d      	mov	r5, r1
 800aba0:	4602      	mov	r2, r0
 800aba2:	460b      	mov	r3, r1
 800aba4:	4630      	mov	r0, r6
 800aba6:	4639      	mov	r1, r7
 800aba8:	f7f5 fb70 	bl	800028c <__adddf3>
 800abac:	4632      	mov	r2, r6
 800abae:	463b      	mov	r3, r7
 800abb0:	4680      	mov	r8, r0
 800abb2:	4689      	mov	r9, r1
 800abb4:	f7f5 fb68 	bl	8000288 <__aeabi_dsub>
 800abb8:	4602      	mov	r2, r0
 800abba:	460b      	mov	r3, r1
 800abbc:	4620      	mov	r0, r4
 800abbe:	4629      	mov	r1, r5
 800abc0:	f7f5 fb62 	bl	8000288 <__aeabi_dsub>
 800abc4:	4642      	mov	r2, r8
 800abc6:	4606      	mov	r6, r0
 800abc8:	460f      	mov	r7, r1
 800abca:	464b      	mov	r3, r9
 800abcc:	4640      	mov	r0, r8
 800abce:	4649      	mov	r1, r9
 800abd0:	f7f5 fd12 	bl	80005f8 <__aeabi_dmul>
 800abd4:	a35e      	add	r3, pc, #376	; (adr r3, 800ad50 <__ieee754_pow+0xa18>)
 800abd6:	e9d3 2300 	ldrd	r2, r3, [r3]
 800abda:	4604      	mov	r4, r0
 800abdc:	460d      	mov	r5, r1
 800abde:	f7f5 fd0b 	bl	80005f8 <__aeabi_dmul>
 800abe2:	a35d      	add	r3, pc, #372	; (adr r3, 800ad58 <__ieee754_pow+0xa20>)
 800abe4:	e9d3 2300 	ldrd	r2, r3, [r3]
 800abe8:	f7f5 fb4e 	bl	8000288 <__aeabi_dsub>
 800abec:	4622      	mov	r2, r4
 800abee:	462b      	mov	r3, r5
 800abf0:	f7f5 fd02 	bl	80005f8 <__aeabi_dmul>
 800abf4:	a35a      	add	r3, pc, #360	; (adr r3, 800ad60 <__ieee754_pow+0xa28>)
 800abf6:	e9d3 2300 	ldrd	r2, r3, [r3]
 800abfa:	f7f5 fb47 	bl	800028c <__adddf3>
 800abfe:	4622      	mov	r2, r4
 800ac00:	462b      	mov	r3, r5
 800ac02:	f7f5 fcf9 	bl	80005f8 <__aeabi_dmul>
 800ac06:	a358      	add	r3, pc, #352	; (adr r3, 800ad68 <__ieee754_pow+0xa30>)
 800ac08:	e9d3 2300 	ldrd	r2, r3, [r3]
 800ac0c:	f7f5 fb3c 	bl	8000288 <__aeabi_dsub>
 800ac10:	4622      	mov	r2, r4
 800ac12:	462b      	mov	r3, r5
 800ac14:	f7f5 fcf0 	bl	80005f8 <__aeabi_dmul>
 800ac18:	a355      	add	r3, pc, #340	; (adr r3, 800ad70 <__ieee754_pow+0xa38>)
 800ac1a:	e9d3 2300 	ldrd	r2, r3, [r3]
 800ac1e:	f7f5 fb35 	bl	800028c <__adddf3>
 800ac22:	4622      	mov	r2, r4
 800ac24:	462b      	mov	r3, r5
 800ac26:	f7f5 fce7 	bl	80005f8 <__aeabi_dmul>
 800ac2a:	4602      	mov	r2, r0
 800ac2c:	460b      	mov	r3, r1
 800ac2e:	4640      	mov	r0, r8
 800ac30:	4649      	mov	r1, r9
 800ac32:	f7f5 fb29 	bl	8000288 <__aeabi_dsub>
 800ac36:	4604      	mov	r4, r0
 800ac38:	460d      	mov	r5, r1
 800ac3a:	4602      	mov	r2, r0
 800ac3c:	460b      	mov	r3, r1
 800ac3e:	4640      	mov	r0, r8
 800ac40:	4649      	mov	r1, r9
 800ac42:	f7f5 fcd9 	bl	80005f8 <__aeabi_dmul>
 800ac46:	2200      	movs	r2, #0
 800ac48:	ec41 0b19 	vmov	d9, r0, r1
 800ac4c:	f04f 4380 	mov.w	r3, #1073741824	; 0x40000000
 800ac50:	4620      	mov	r0, r4
 800ac52:	4629      	mov	r1, r5
 800ac54:	f7f5 fb18 	bl	8000288 <__aeabi_dsub>
 800ac58:	4602      	mov	r2, r0
 800ac5a:	460b      	mov	r3, r1
 800ac5c:	ec51 0b19 	vmov	r0, r1, d9
 800ac60:	f7f5 fdf4 	bl	800084c <__aeabi_ddiv>
 800ac64:	4632      	mov	r2, r6
 800ac66:	4604      	mov	r4, r0
 800ac68:	460d      	mov	r5, r1
 800ac6a:	463b      	mov	r3, r7
 800ac6c:	4640      	mov	r0, r8
 800ac6e:	4649      	mov	r1, r9
 800ac70:	f7f5 fcc2 	bl	80005f8 <__aeabi_dmul>
 800ac74:	4632      	mov	r2, r6
 800ac76:	463b      	mov	r3, r7
 800ac78:	f7f5 fb08 	bl	800028c <__adddf3>
 800ac7c:	4602      	mov	r2, r0
 800ac7e:	460b      	mov	r3, r1
 800ac80:	4620      	mov	r0, r4
 800ac82:	4629      	mov	r1, r5
 800ac84:	f7f5 fb00 	bl	8000288 <__aeabi_dsub>
 800ac88:	4642      	mov	r2, r8
 800ac8a:	464b      	mov	r3, r9
 800ac8c:	f7f5 fafc 	bl	8000288 <__aeabi_dsub>
 800ac90:	460b      	mov	r3, r1
 800ac92:	4602      	mov	r2, r0
 800ac94:	493a      	ldr	r1, [pc, #232]	; (800ad80 <__ieee754_pow+0xa48>)
 800ac96:	2000      	movs	r0, #0
 800ac98:	f7f5 faf6 	bl	8000288 <__aeabi_dsub>
 800ac9c:	ec41 0b10 	vmov	d0, r0, r1
 800aca0:	ee10 3a90 	vmov	r3, s1
 800aca4:	eb03 530a 	add.w	r3, r3, sl, lsl #20
 800aca8:	f5b3 1f80 	cmp.w	r3, #1048576	; 0x100000
 800acac:	da2b      	bge.n	800ad06 <__ieee754_pow+0x9ce>
 800acae:	4650      	mov	r0, sl
 800acb0:	f000 fe9a 	bl	800b9e8 <scalbn>
 800acb4:	ec51 0b10 	vmov	r0, r1, d0
 800acb8:	ec53 2b18 	vmov	r2, r3, d8
 800acbc:	f7ff bbed 	b.w	800a49a <__ieee754_pow+0x162>
 800acc0:	4b30      	ldr	r3, [pc, #192]	; (800ad84 <__ieee754_pow+0xa4c>)
 800acc2:	f021 4600 	bic.w	r6, r1, #2147483648	; 0x80000000
 800acc6:	429e      	cmp	r6, r3
 800acc8:	f77f af0c 	ble.w	800aae4 <__ieee754_pow+0x7ac>
 800accc:	4b2e      	ldr	r3, [pc, #184]	; (800ad88 <__ieee754_pow+0xa50>)
 800acce:	440b      	add	r3, r1
 800acd0:	4303      	orrs	r3, r0
 800acd2:	d009      	beq.n	800ace8 <__ieee754_pow+0x9b0>
 800acd4:	ec51 0b18 	vmov	r0, r1, d8
 800acd8:	2200      	movs	r2, #0
 800acda:	2300      	movs	r3, #0
 800acdc:	f7f5 fefe 	bl	8000adc <__aeabi_dcmplt>
 800ace0:	3800      	subs	r0, #0
 800ace2:	bf18      	it	ne
 800ace4:	2001      	movne	r0, #1
 800ace6:	e447      	b.n	800a578 <__ieee754_pow+0x240>
 800ace8:	4622      	mov	r2, r4
 800acea:	462b      	mov	r3, r5
 800acec:	f7f5 facc 	bl	8000288 <__aeabi_dsub>
 800acf0:	4642      	mov	r2, r8
 800acf2:	464b      	mov	r3, r9
 800acf4:	f7f5 ff06 	bl	8000b04 <__aeabi_dcmpge>
 800acf8:	2800      	cmp	r0, #0
 800acfa:	f43f aef3 	beq.w	800aae4 <__ieee754_pow+0x7ac>
 800acfe:	e7e9      	b.n	800acd4 <__ieee754_pow+0x99c>
 800ad00:	f04f 0a00 	mov.w	sl, #0
 800ad04:	e71a      	b.n	800ab3c <__ieee754_pow+0x804>
 800ad06:	ec51 0b10 	vmov	r0, r1, d0
 800ad0a:	4619      	mov	r1, r3
 800ad0c:	e7d4      	b.n	800acb8 <__ieee754_pow+0x980>
 800ad0e:	491c      	ldr	r1, [pc, #112]	; (800ad80 <__ieee754_pow+0xa48>)
 800ad10:	2000      	movs	r0, #0
 800ad12:	f7ff bb30 	b.w	800a376 <__ieee754_pow+0x3e>
 800ad16:	2000      	movs	r0, #0
 800ad18:	2100      	movs	r1, #0
 800ad1a:	f7ff bb2c 	b.w	800a376 <__ieee754_pow+0x3e>
 800ad1e:	4630      	mov	r0, r6
 800ad20:	4639      	mov	r1, r7
 800ad22:	f7ff bb28 	b.w	800a376 <__ieee754_pow+0x3e>
 800ad26:	9204      	str	r2, [sp, #16]
 800ad28:	f7ff bb7a 	b.w	800a420 <__ieee754_pow+0xe8>
 800ad2c:	2300      	movs	r3, #0
 800ad2e:	f7ff bb64 	b.w	800a3fa <__ieee754_pow+0xc2>
 800ad32:	bf00      	nop
 800ad34:	f3af 8000 	nop.w
 800ad38:	00000000 	.word	0x00000000
 800ad3c:	3fe62e43 	.word	0x3fe62e43
 800ad40:	fefa39ef 	.word	0xfefa39ef
 800ad44:	3fe62e42 	.word	0x3fe62e42
 800ad48:	0ca86c39 	.word	0x0ca86c39
 800ad4c:	be205c61 	.word	0xbe205c61
 800ad50:	72bea4d0 	.word	0x72bea4d0
 800ad54:	3e663769 	.word	0x3e663769
 800ad58:	c5d26bf1 	.word	0xc5d26bf1
 800ad5c:	3ebbbd41 	.word	0x3ebbbd41
 800ad60:	af25de2c 	.word	0xaf25de2c
 800ad64:	3f11566a 	.word	0x3f11566a
 800ad68:	16bebd93 	.word	0x16bebd93
 800ad6c:	3f66c16c 	.word	0x3f66c16c
 800ad70:	5555553e 	.word	0x5555553e
 800ad74:	3fc55555 	.word	0x3fc55555
 800ad78:	3fe00000 	.word	0x3fe00000
 800ad7c:	000fffff 	.word	0x000fffff
 800ad80:	3ff00000 	.word	0x3ff00000
 800ad84:	4090cbff 	.word	0x4090cbff
 800ad88:	3f6f3400 	.word	0x3f6f3400
 800ad8c:	652b82fe 	.word	0x652b82fe
 800ad90:	3c971547 	.word	0x3c971547

0800ad94 <__ieee754_sqrt>:
 800ad94:	e92d 41f0 	stmdb	sp!, {r4, r5, r6, r7, r8, lr}
 800ad98:	ec55 4b10 	vmov	r4, r5, d0
 800ad9c:	4e55      	ldr	r6, [pc, #340]	; (800aef4 <__ieee754_sqrt+0x160>)
 800ad9e:	43ae      	bics	r6, r5
 800ada0:	ee10 0a10 	vmov	r0, s0
 800ada4:	ee10 3a10 	vmov	r3, s0
 800ada8:	462a      	mov	r2, r5
 800adaa:	4629      	mov	r1, r5
 800adac:	d110      	bne.n	800add0 <__ieee754_sqrt+0x3c>
 800adae:	ee10 2a10 	vmov	r2, s0
 800adb2:	462b      	mov	r3, r5
 800adb4:	f7f5 fc20 	bl	80005f8 <__aeabi_dmul>
 800adb8:	4602      	mov	r2, r0
 800adba:	460b      	mov	r3, r1
 800adbc:	4620      	mov	r0, r4
 800adbe:	4629      	mov	r1, r5
 800adc0:	f7f5 fa64 	bl	800028c <__adddf3>
 800adc4:	4604      	mov	r4, r0
 800adc6:	460d      	mov	r5, r1
 800adc8:	ec45 4b10 	vmov	d0, r4, r5
 800adcc:	e8bd 81f0 	ldmia.w	sp!, {r4, r5, r6, r7, r8, pc}
 800add0:	2d00      	cmp	r5, #0
 800add2:	dc10      	bgt.n	800adf6 <__ieee754_sqrt+0x62>
 800add4:	f025 4600 	bic.w	r6, r5, #2147483648	; 0x80000000
 800add8:	4330      	orrs	r0, r6
 800adda:	d0f5      	beq.n	800adc8 <__ieee754_sqrt+0x34>
 800addc:	b15d      	cbz	r5, 800adf6 <__ieee754_sqrt+0x62>
 800adde:	ee10 2a10 	vmov	r2, s0
 800ade2:	462b      	mov	r3, r5
 800ade4:	ee10 0a10 	vmov	r0, s0
 800ade8:	f7f5 fa4e 	bl	8000288 <__aeabi_dsub>
 800adec:	4602      	mov	r2, r0
 800adee:	460b      	mov	r3, r1
 800adf0:	f7f5 fd2c 	bl	800084c <__aeabi_ddiv>
 800adf4:	e7e6      	b.n	800adc4 <__ieee754_sqrt+0x30>
 800adf6:	1512      	asrs	r2, r2, #20
 800adf8:	d074      	beq.n	800aee4 <__ieee754_sqrt+0x150>
 800adfa:	07d4      	lsls	r4, r2, #31
 800adfc:	f3c1 0113 	ubfx	r1, r1, #0, #20
 800ae00:	f2a2 37ff 	subw	r7, r2, #1023	; 0x3ff
 800ae04:	f441 1180 	orr.w	r1, r1, #1048576	; 0x100000
 800ae08:	bf5e      	ittt	pl
 800ae0a:	0fda      	lsrpl	r2, r3, #31
 800ae0c:	005b      	lslpl	r3, r3, #1
 800ae0e:	eb02 0141 	addpl.w	r1, r2, r1, lsl #1
 800ae12:	2400      	movs	r4, #0
 800ae14:	0fda      	lsrs	r2, r3, #31
 800ae16:	eb02 0141 	add.w	r1, r2, r1, lsl #1
 800ae1a:	107f      	asrs	r7, r7, #1
 800ae1c:	005b      	lsls	r3, r3, #1
 800ae1e:	2516      	movs	r5, #22
 800ae20:	4620      	mov	r0, r4
 800ae22:	f44f 1200 	mov.w	r2, #2097152	; 0x200000
 800ae26:	1886      	adds	r6, r0, r2
 800ae28:	428e      	cmp	r6, r1
 800ae2a:	bfde      	ittt	le
 800ae2c:	1b89      	suble	r1, r1, r6
 800ae2e:	18b0      	addle	r0, r6, r2
 800ae30:	18a4      	addle	r4, r4, r2
 800ae32:	0049      	lsls	r1, r1, #1
 800ae34:	3d01      	subs	r5, #1
 800ae36:	eb01 71d3 	add.w	r1, r1, r3, lsr #31
 800ae3a:	ea4f 0252 	mov.w	r2, r2, lsr #1
 800ae3e:	ea4f 0343 	mov.w	r3, r3, lsl #1
 800ae42:	d1f0      	bne.n	800ae26 <__ieee754_sqrt+0x92>
 800ae44:	462a      	mov	r2, r5
 800ae46:	f04f 0e20 	mov.w	lr, #32
 800ae4a:	f04f 4600 	mov.w	r6, #2147483648	; 0x80000000
 800ae4e:	4281      	cmp	r1, r0
 800ae50:	eb06 0c05 	add.w	ip, r6, r5
 800ae54:	dc02      	bgt.n	800ae5c <__ieee754_sqrt+0xc8>
 800ae56:	d113      	bne.n	800ae80 <__ieee754_sqrt+0xec>
 800ae58:	459c      	cmp	ip, r3
 800ae5a:	d811      	bhi.n	800ae80 <__ieee754_sqrt+0xec>
 800ae5c:	f1bc 0f00 	cmp.w	ip, #0
 800ae60:	eb0c 0506 	add.w	r5, ip, r6
 800ae64:	da43      	bge.n	800aeee <__ieee754_sqrt+0x15a>
 800ae66:	2d00      	cmp	r5, #0
 800ae68:	db41      	blt.n	800aeee <__ieee754_sqrt+0x15a>
 800ae6a:	f100 0801 	add.w	r8, r0, #1
 800ae6e:	1a09      	subs	r1, r1, r0
 800ae70:	459c      	cmp	ip, r3
 800ae72:	bf88      	it	hi
 800ae74:	f101 31ff 	addhi.w	r1, r1, #4294967295
 800ae78:	eba3 030c 	sub.w	r3, r3, ip
 800ae7c:	4432      	add	r2, r6
 800ae7e:	4640      	mov	r0, r8
 800ae80:	ea4f 7cd3 	mov.w	ip, r3, lsr #31
 800ae84:	f1be 0e01 	subs.w	lr, lr, #1
 800ae88:	eb0c 0141 	add.w	r1, ip, r1, lsl #1
 800ae8c:	ea4f 0343 	mov.w	r3, r3, lsl #1
 800ae90:	ea4f 0656 	mov.w	r6, r6, lsr #1
 800ae94:	d1db      	bne.n	800ae4e <__ieee754_sqrt+0xba>
 800ae96:	430b      	orrs	r3, r1
 800ae98:	d006      	beq.n	800aea8 <__ieee754_sqrt+0x114>
 800ae9a:	1c50      	adds	r0, r2, #1
 800ae9c:	bf13      	iteet	ne
 800ae9e:	3201      	addne	r2, #1
 800aea0:	3401      	addeq	r4, #1
 800aea2:	4672      	moveq	r2, lr
 800aea4:	f022 0201 	bicne.w	r2, r2, #1
 800aea8:	1063      	asrs	r3, r4, #1
 800aeaa:	0852      	lsrs	r2, r2, #1
 800aeac:	07e1      	lsls	r1, r4, #31
 800aeae:	f103 537f 	add.w	r3, r3, #1069547520	; 0x3fc00000
 800aeb2:	f503 1300 	add.w	r3, r3, #2097152	; 0x200000
 800aeb6:	bf48      	it	mi
 800aeb8:	f042 4200 	orrmi.w	r2, r2, #2147483648	; 0x80000000
 800aebc:	eb03 5507 	add.w	r5, r3, r7, lsl #20
 800aec0:	4614      	mov	r4, r2
 800aec2:	e781      	b.n	800adc8 <__ieee754_sqrt+0x34>
 800aec4:	0ad9      	lsrs	r1, r3, #11
 800aec6:	3815      	subs	r0, #21
 800aec8:	055b      	lsls	r3, r3, #21
 800aeca:	2900      	cmp	r1, #0
 800aecc:	d0fa      	beq.n	800aec4 <__ieee754_sqrt+0x130>
 800aece:	02cd      	lsls	r5, r1, #11
 800aed0:	d50a      	bpl.n	800aee8 <__ieee754_sqrt+0x154>
 800aed2:	f1c2 0420 	rsb	r4, r2, #32
 800aed6:	fa23 f404 	lsr.w	r4, r3, r4
 800aeda:	1e55      	subs	r5, r2, #1
 800aedc:	4093      	lsls	r3, r2
 800aede:	4321      	orrs	r1, r4
 800aee0:	1b42      	subs	r2, r0, r5
 800aee2:	e78a      	b.n	800adfa <__ieee754_sqrt+0x66>
 800aee4:	4610      	mov	r0, r2
 800aee6:	e7f0      	b.n	800aeca <__ieee754_sqrt+0x136>
 800aee8:	0049      	lsls	r1, r1, #1
 800aeea:	3201      	adds	r2, #1
 800aeec:	e7ef      	b.n	800aece <__ieee754_sqrt+0x13a>
 800aeee:	4680      	mov	r8, r0
 800aef0:	e7bd      	b.n	800ae6e <__ieee754_sqrt+0xda>
 800aef2:	bf00      	nop
 800aef4:	7ff00000 	.word	0x7ff00000

0800aef8 <__ieee754_rem_pio2f>:
 800aef8:	b5f0      	push	{r4, r5, r6, r7, lr}
 800aefa:	ee10 6a10 	vmov	r6, s0
 800aefe:	4b8e      	ldr	r3, [pc, #568]	; (800b138 <__ieee754_rem_pio2f+0x240>)
 800af00:	f026 4500 	bic.w	r5, r6, #2147483648	; 0x80000000
 800af04:	429d      	cmp	r5, r3
 800af06:	b087      	sub	sp, #28
 800af08:	eef0 7a40 	vmov.f32	s15, s0
 800af0c:	4604      	mov	r4, r0
 800af0e:	dc05      	bgt.n	800af1c <__ieee754_rem_pio2f+0x24>
 800af10:	2300      	movs	r3, #0
 800af12:	ed80 0a00 	vstr	s0, [r0]
 800af16:	6043      	str	r3, [r0, #4]
 800af18:	2000      	movs	r0, #0
 800af1a:	e01a      	b.n	800af52 <__ieee754_rem_pio2f+0x5a>
 800af1c:	4b87      	ldr	r3, [pc, #540]	; (800b13c <__ieee754_rem_pio2f+0x244>)
 800af1e:	429d      	cmp	r5, r3
 800af20:	dc46      	bgt.n	800afb0 <__ieee754_rem_pio2f+0xb8>
 800af22:	2e00      	cmp	r6, #0
 800af24:	ed9f 0a86 	vldr	s0, [pc, #536]	; 800b140 <__ieee754_rem_pio2f+0x248>
 800af28:	4b86      	ldr	r3, [pc, #536]	; (800b144 <__ieee754_rem_pio2f+0x24c>)
 800af2a:	f025 050f 	bic.w	r5, r5, #15
 800af2e:	dd1f      	ble.n	800af70 <__ieee754_rem_pio2f+0x78>
 800af30:	429d      	cmp	r5, r3
 800af32:	ee77 7ac0 	vsub.f32	s15, s15, s0
 800af36:	d00e      	beq.n	800af56 <__ieee754_rem_pio2f+0x5e>
 800af38:	ed9f 7a83 	vldr	s14, [pc, #524]	; 800b148 <__ieee754_rem_pio2f+0x250>
 800af3c:	ee37 0ac7 	vsub.f32	s0, s15, s14
 800af40:	ee77 7ac0 	vsub.f32	s15, s15, s0
 800af44:	ed80 0a00 	vstr	s0, [r0]
 800af48:	ee77 7ac7 	vsub.f32	s15, s15, s14
 800af4c:	2001      	movs	r0, #1
 800af4e:	edc4 7a01 	vstr	s15, [r4, #4]
 800af52:	b007      	add	sp, #28
 800af54:	bdf0      	pop	{r4, r5, r6, r7, pc}
 800af56:	ed9f 0a7d 	vldr	s0, [pc, #500]	; 800b14c <__ieee754_rem_pio2f+0x254>
 800af5a:	ed9f 7a7d 	vldr	s14, [pc, #500]	; 800b150 <__ieee754_rem_pio2f+0x258>
 800af5e:	ee77 7ac0 	vsub.f32	s15, s15, s0
 800af62:	ee77 6ac7 	vsub.f32	s13, s15, s14
 800af66:	ee77 7ae6 	vsub.f32	s15, s15, s13
 800af6a:	edc0 6a00 	vstr	s13, [r0]
 800af6e:	e7eb      	b.n	800af48 <__ieee754_rem_pio2f+0x50>
 800af70:	429d      	cmp	r5, r3
 800af72:	ee77 7a80 	vadd.f32	s15, s15, s0
 800af76:	d00e      	beq.n	800af96 <__ieee754_rem_pio2f+0x9e>
 800af78:	ed9f 7a73 	vldr	s14, [pc, #460]	; 800b148 <__ieee754_rem_pio2f+0x250>
 800af7c:	ee37 0a87 	vadd.f32	s0, s15, s14
 800af80:	ee77 7ac0 	vsub.f32	s15, s15, s0
 800af84:	ed80 0a00 	vstr	s0, [r0]
 800af88:	ee77 7a87 	vadd.f32	s15, s15, s14
 800af8c:	f04f 30ff 	mov.w	r0, #4294967295
 800af90:	edc4 7a01 	vstr	s15, [r4, #4]
 800af94:	e7dd      	b.n	800af52 <__ieee754_rem_pio2f+0x5a>
 800af96:	ed9f 0a6d 	vldr	s0, [pc, #436]	; 800b14c <__ieee754_rem_pio2f+0x254>
 800af9a:	ed9f 7a6d 	vldr	s14, [pc, #436]	; 800b150 <__ieee754_rem_pio2f+0x258>
 800af9e:	ee77 7a80 	vadd.f32	s15, s15, s0
 800afa2:	ee77 6a87 	vadd.f32	s13, s15, s14
 800afa6:	ee77 7ae6 	vsub.f32	s15, s15, s13
 800afaa:	edc0 6a00 	vstr	s13, [r0]
 800afae:	e7eb      	b.n	800af88 <__ieee754_rem_pio2f+0x90>
 800afb0:	4b68      	ldr	r3, [pc, #416]	; (800b154 <__ieee754_rem_pio2f+0x25c>)
 800afb2:	429d      	cmp	r5, r3
 800afb4:	dc72      	bgt.n	800b09c <__ieee754_rem_pio2f+0x1a4>
 800afb6:	f7ff f8a9 	bl	800a10c <fabsf>
 800afba:	ed9f 7a67 	vldr	s14, [pc, #412]	; 800b158 <__ieee754_rem_pio2f+0x260>
 800afbe:	eef6 7a00 	vmov.f32	s15, #96	; 0x3f000000  0.5
 800afc2:	eee0 7a07 	vfma.f32	s15, s0, s14
 800afc6:	eefd 7ae7 	vcvt.s32.f32	s15, s15
 800afca:	eeb8 7ae7 	vcvt.f32.s32	s14, s15
 800afce:	ee17 0a90 	vmov	r0, s15
 800afd2:	eddf 7a5b 	vldr	s15, [pc, #364]	; 800b140 <__ieee754_rem_pio2f+0x248>
 800afd6:	eea7 0a67 	vfms.f32	s0, s14, s15
 800afda:	281f      	cmp	r0, #31
 800afdc:	eddf 7a5a 	vldr	s15, [pc, #360]	; 800b148 <__ieee754_rem_pio2f+0x250>
 800afe0:	ee67 7a27 	vmul.f32	s15, s14, s15
 800afe4:	eeb1 6a47 	vneg.f32	s12, s14
 800afe8:	ee70 6a67 	vsub.f32	s13, s0, s15
 800afec:	ee16 2a90 	vmov	r2, s13
 800aff0:	dc1c      	bgt.n	800b02c <__ieee754_rem_pio2f+0x134>
 800aff2:	495a      	ldr	r1, [pc, #360]	; (800b15c <__ieee754_rem_pio2f+0x264>)
 800aff4:	1e47      	subs	r7, r0, #1
 800aff6:	f025 03ff 	bic.w	r3, r5, #255	; 0xff
 800affa:	f851 1027 	ldr.w	r1, [r1, r7, lsl #2]
 800affe:	428b      	cmp	r3, r1
 800b000:	d014      	beq.n	800b02c <__ieee754_rem_pio2f+0x134>
 800b002:	6022      	str	r2, [r4, #0]
 800b004:	ed94 7a00 	vldr	s14, [r4]
 800b008:	ee30 0a47 	vsub.f32	s0, s0, s14
 800b00c:	2e00      	cmp	r6, #0
 800b00e:	ee30 0a67 	vsub.f32	s0, s0, s15
 800b012:	ed84 0a01 	vstr	s0, [r4, #4]
 800b016:	da9c      	bge.n	800af52 <__ieee754_rem_pio2f+0x5a>
 800b018:	eeb1 7a47 	vneg.f32	s14, s14
 800b01c:	eeb1 0a40 	vneg.f32	s0, s0
 800b020:	ed84 7a00 	vstr	s14, [r4]
 800b024:	ed84 0a01 	vstr	s0, [r4, #4]
 800b028:	4240      	negs	r0, r0
 800b02a:	e792      	b.n	800af52 <__ieee754_rem_pio2f+0x5a>
 800b02c:	f3c2 51c7 	ubfx	r1, r2, #23, #8
 800b030:	15eb      	asrs	r3, r5, #23
 800b032:	ebc1 55d5 	rsb	r5, r1, r5, lsr #23
 800b036:	2d08      	cmp	r5, #8
 800b038:	dde3      	ble.n	800b002 <__ieee754_rem_pio2f+0x10a>
 800b03a:	eddf 7a44 	vldr	s15, [pc, #272]	; 800b14c <__ieee754_rem_pio2f+0x254>
 800b03e:	eddf 5a44 	vldr	s11, [pc, #272]	; 800b150 <__ieee754_rem_pio2f+0x258>
 800b042:	eef0 6a40 	vmov.f32	s13, s0
 800b046:	eee6 6a27 	vfma.f32	s13, s12, s15
 800b04a:	ee30 0a66 	vsub.f32	s0, s0, s13
 800b04e:	eea6 0a27 	vfma.f32	s0, s12, s15
 800b052:	eef0 7a40 	vmov.f32	s15, s0
 800b056:	eed7 7a25 	vfnms.f32	s15, s14, s11
 800b05a:	ee76 5ae7 	vsub.f32	s11, s13, s15
 800b05e:	ee15 2a90 	vmov	r2, s11
 800b062:	f3c2 51c7 	ubfx	r1, r2, #23, #8
 800b066:	1a5b      	subs	r3, r3, r1
 800b068:	2b19      	cmp	r3, #25
 800b06a:	dc04      	bgt.n	800b076 <__ieee754_rem_pio2f+0x17e>
 800b06c:	edc4 5a00 	vstr	s11, [r4]
 800b070:	eeb0 0a66 	vmov.f32	s0, s13
 800b074:	e7c6      	b.n	800b004 <__ieee754_rem_pio2f+0x10c>
 800b076:	eddf 5a3a 	vldr	s11, [pc, #232]	; 800b160 <__ieee754_rem_pio2f+0x268>
 800b07a:	eeb0 0a66 	vmov.f32	s0, s13
 800b07e:	eea6 0a25 	vfma.f32	s0, s12, s11
 800b082:	ee76 7ac0 	vsub.f32	s15, s13, s0
 800b086:	eddf 6a37 	vldr	s13, [pc, #220]	; 800b164 <__ieee754_rem_pio2f+0x26c>
 800b08a:	eee6 7a25 	vfma.f32	s15, s12, s11
 800b08e:	eed7 7a26 	vfnms.f32	s15, s14, s13
 800b092:	ee30 7a67 	vsub.f32	s14, s0, s15
 800b096:	ed84 7a00 	vstr	s14, [r4]
 800b09a:	e7b3      	b.n	800b004 <__ieee754_rem_pio2f+0x10c>
 800b09c:	f1b5 4fff 	cmp.w	r5, #2139095040	; 0x7f800000
 800b0a0:	db06      	blt.n	800b0b0 <__ieee754_rem_pio2f+0x1b8>
 800b0a2:	ee70 7a40 	vsub.f32	s15, s0, s0
 800b0a6:	edc0 7a01 	vstr	s15, [r0, #4]
 800b0aa:	edc0 7a00 	vstr	s15, [r0]
 800b0ae:	e733      	b.n	800af18 <__ieee754_rem_pio2f+0x20>
 800b0b0:	15ea      	asrs	r2, r5, #23
 800b0b2:	3a86      	subs	r2, #134	; 0x86
 800b0b4:	eba5 53c2 	sub.w	r3, r5, r2, lsl #23
 800b0b8:	ee07 3a90 	vmov	s15, r3
 800b0bc:	eebd 7ae7 	vcvt.s32.f32	s14, s15
 800b0c0:	eddf 6a29 	vldr	s13, [pc, #164]	; 800b168 <__ieee754_rem_pio2f+0x270>
 800b0c4:	eeb8 7ac7 	vcvt.f32.s32	s14, s14
 800b0c8:	ee77 7ac7 	vsub.f32	s15, s15, s14
 800b0cc:	ed8d 7a03 	vstr	s14, [sp, #12]
 800b0d0:	ee67 7aa6 	vmul.f32	s15, s15, s13
 800b0d4:	eebd 7ae7 	vcvt.s32.f32	s14, s15
 800b0d8:	eeb8 7ac7 	vcvt.f32.s32	s14, s14
 800b0dc:	ee77 7ac7 	vsub.f32	s15, s15, s14
 800b0e0:	ed8d 7a04 	vstr	s14, [sp, #16]
 800b0e4:	ee67 7aa6 	vmul.f32	s15, s15, s13
 800b0e8:	eef5 7a40 	vcmp.f32	s15, #0.0
 800b0ec:	eef1 fa10 	vmrs	APSR_nzcv, fpscr
 800b0f0:	edcd 7a05 	vstr	s15, [sp, #20]
 800b0f4:	d11e      	bne.n	800b134 <__ieee754_rem_pio2f+0x23c>
 800b0f6:	eeb5 7a40 	vcmp.f32	s14, #0.0
 800b0fa:	eef1 fa10 	vmrs	APSR_nzcv, fpscr
 800b0fe:	bf14      	ite	ne
 800b100:	2302      	movne	r3, #2
 800b102:	2301      	moveq	r3, #1
 800b104:	4919      	ldr	r1, [pc, #100]	; (800b16c <__ieee754_rem_pio2f+0x274>)
 800b106:	9101      	str	r1, [sp, #4]
 800b108:	2102      	movs	r1, #2
 800b10a:	9100      	str	r1, [sp, #0]
 800b10c:	a803      	add	r0, sp, #12
 800b10e:	4621      	mov	r1, r4
 800b110:	f000 f88e 	bl	800b230 <__kernel_rem_pio2f>
 800b114:	2e00      	cmp	r6, #0
 800b116:	f6bf af1c 	bge.w	800af52 <__ieee754_rem_pio2f+0x5a>
 800b11a:	edd4 7a00 	vldr	s15, [r4]
 800b11e:	eef1 7a67 	vneg.f32	s15, s15
 800b122:	edc4 7a00 	vstr	s15, [r4]
 800b126:	edd4 7a01 	vldr	s15, [r4, #4]
 800b12a:	eef1 7a67 	vneg.f32	s15, s15
 800b12e:	edc4 7a01 	vstr	s15, [r4, #4]
 800b132:	e779      	b.n	800b028 <__ieee754_rem_pio2f+0x130>
 800b134:	2303      	movs	r3, #3
 800b136:	e7e5      	b.n	800b104 <__ieee754_rem_pio2f+0x20c>
 800b138:	3f490fd8 	.word	0x3f490fd8
 800b13c:	4016cbe3 	.word	0x4016cbe3
 800b140:	3fc90f80 	.word	0x3fc90f80
 800b144:	3fc90fd0 	.word	0x3fc90fd0
 800b148:	37354443 	.word	0x37354443
 800b14c:	37354400 	.word	0x37354400
 800b150:	2e85a308 	.word	0x2e85a308
 800b154:	43490f80 	.word	0x43490f80
 800b158:	3f22f984 	.word	0x3f22f984
 800b15c:	0800c140 	.word	0x0800c140
 800b160:	2e85a300 	.word	0x2e85a300
 800b164:	248d3132 	.word	0x248d3132
 800b168:	43800000 	.word	0x43800000
 800b16c:	0800c1c0 	.word	0x0800c1c0

0800b170 <__kernel_cosf>:
 800b170:	ee10 3a10 	vmov	r3, s0
 800b174:	f023 4300 	bic.w	r3, r3, #2147483648	; 0x80000000
 800b178:	f1b3 5f48 	cmp.w	r3, #838860800	; 0x32000000
 800b17c:	eeb7 6a00 	vmov.f32	s12, #112	; 0x3f800000  1.0
 800b180:	da05      	bge.n	800b18e <__kernel_cosf+0x1e>
 800b182:	eefd 7ac0 	vcvt.s32.f32	s15, s0
 800b186:	ee17 2a90 	vmov	r2, s15
 800b18a:	2a00      	cmp	r2, #0
 800b18c:	d03d      	beq.n	800b20a <__kernel_cosf+0x9a>
 800b18e:	ee60 5a00 	vmul.f32	s11, s0, s0
 800b192:	eddf 7a1f 	vldr	s15, [pc, #124]	; 800b210 <__kernel_cosf+0xa0>
 800b196:	ed9f 7a1f 	vldr	s14, [pc, #124]	; 800b214 <__kernel_cosf+0xa4>
 800b19a:	eddf 6a1f 	vldr	s13, [pc, #124]	; 800b218 <__kernel_cosf+0xa8>
 800b19e:	4a1f      	ldr	r2, [pc, #124]	; (800b21c <__kernel_cosf+0xac>)
 800b1a0:	eea5 7aa7 	vfma.f32	s14, s11, s15
 800b1a4:	4293      	cmp	r3, r2
 800b1a6:	eddf 7a1e 	vldr	s15, [pc, #120]	; 800b220 <__kernel_cosf+0xb0>
 800b1aa:	eee7 7a25 	vfma.f32	s15, s14, s11
 800b1ae:	ed9f 7a1d 	vldr	s14, [pc, #116]	; 800b224 <__kernel_cosf+0xb4>
 800b1b2:	eea7 7aa5 	vfma.f32	s14, s15, s11
 800b1b6:	eddf 7a1c 	vldr	s15, [pc, #112]	; 800b228 <__kernel_cosf+0xb8>
 800b1ba:	eee7 7a25 	vfma.f32	s15, s14, s11
 800b1be:	eeb0 7a66 	vmov.f32	s14, s13
 800b1c2:	eea7 7aa5 	vfma.f32	s14, s15, s11
 800b1c6:	eef6 6a00 	vmov.f32	s13, #96	; 0x3f000000  0.5
 800b1ca:	ee65 7aa6 	vmul.f32	s15, s11, s13
 800b1ce:	ee67 6a25 	vmul.f32	s13, s14, s11
 800b1d2:	ee20 7ac0 	vnmul.f32	s14, s1, s0
 800b1d6:	eea5 7aa6 	vfma.f32	s14, s11, s13
 800b1da:	dc04      	bgt.n	800b1e6 <__kernel_cosf+0x76>
 800b1dc:	ee37 7ac7 	vsub.f32	s14, s15, s14
 800b1e0:	ee36 0a47 	vsub.f32	s0, s12, s14
 800b1e4:	4770      	bx	lr
 800b1e6:	4a11      	ldr	r2, [pc, #68]	; (800b22c <__kernel_cosf+0xbc>)
 800b1e8:	4293      	cmp	r3, r2
 800b1ea:	bfda      	itte	le
 800b1ec:	f103 437f 	addle.w	r3, r3, #4278190080	; 0xff000000
 800b1f0:	ee06 3a90 	vmovle	s13, r3
 800b1f4:	eef5 6a02 	vmovgt.f32	s13, #82	; 0x3e900000  0.2812500
 800b1f8:	ee77 7ae6 	vsub.f32	s15, s15, s13
 800b1fc:	ee36 0a66 	vsub.f32	s0, s12, s13
 800b200:	ee77 7ac7 	vsub.f32	s15, s15, s14
 800b204:	ee30 0a67 	vsub.f32	s0, s0, s15
 800b208:	4770      	bx	lr
 800b20a:	eeb0 0a46 	vmov.f32	s0, s12
 800b20e:	4770      	bx	lr
 800b210:	ad47d74e 	.word	0xad47d74e
 800b214:	310f74f6 	.word	0x310f74f6
 800b218:	3d2aaaab 	.word	0x3d2aaaab
 800b21c:	3e999999 	.word	0x3e999999
 800b220:	b493f27c 	.word	0xb493f27c
 800b224:	37d00d01 	.word	0x37d00d01
 800b228:	bab60b61 	.word	0xbab60b61
 800b22c:	3f480000 	.word	0x3f480000

0800b230 <__kernel_rem_pio2f>:
 800b230:	e92d 4ff0 	stmdb	sp!, {r4, r5, r6, r7, r8, r9, sl, fp, lr}
 800b234:	ed2d 8b04 	vpush	{d8-d9}
 800b238:	b0d9      	sub	sp, #356	; 0x164
 800b23a:	4688      	mov	r8, r1
 800b23c:	9002      	str	r0, [sp, #8]
 800b23e:	49bb      	ldr	r1, [pc, #748]	; (800b52c <__kernel_rem_pio2f+0x2fc>)
 800b240:	9866      	ldr	r0, [sp, #408]	; 0x198
 800b242:	9301      	str	r3, [sp, #4]
 800b244:	f851 a020 	ldr.w	sl, [r1, r0, lsl #2]
 800b248:	f8dd e19c 	ldr.w	lr, [sp, #412]	; 0x19c
 800b24c:	1e59      	subs	r1, r3, #1
 800b24e:	1d13      	adds	r3, r2, #4
 800b250:	db27      	blt.n	800b2a2 <__kernel_rem_pio2f+0x72>
 800b252:	f1b2 0b03 	subs.w	fp, r2, #3
 800b256:	bf48      	it	mi
 800b258:	f102 0b04 	addmi.w	fp, r2, #4
 800b25c:	ea4f 00eb 	mov.w	r0, fp, asr #3
 800b260:	1c45      	adds	r5, r0, #1
 800b262:	00ec      	lsls	r4, r5, #3
 800b264:	1a47      	subs	r7, r0, r1
 800b266:	ed9f 7ab5 	vldr	s14, [pc, #724]	; 800b53c <__kernel_rem_pio2f+0x30c>
 800b26a:	9403      	str	r4, [sp, #12]
 800b26c:	eba2 05c5 	sub.w	r5, r2, r5, lsl #3
 800b270:	eb0a 0c01 	add.w	ip, sl, r1
 800b274:	ae1c      	add	r6, sp, #112	; 0x70
 800b276:	eb0e 0987 	add.w	r9, lr, r7, lsl #2
 800b27a:	2400      	movs	r4, #0
 800b27c:	4564      	cmp	r4, ip
 800b27e:	dd12      	ble.n	800b2a6 <__kernel_rem_pio2f+0x76>
 800b280:	9b01      	ldr	r3, [sp, #4]
 800b282:	ac1c      	add	r4, sp, #112	; 0x70
 800b284:	eb04 0483 	add.w	r4, r4, r3, lsl #2
 800b288:	f50d 7b88 	add.w	fp, sp, #272	; 0x110
 800b28c:	f04f 0c00 	mov.w	ip, #0
 800b290:	45d4      	cmp	ip, sl
 800b292:	dc27      	bgt.n	800b2e4 <__kernel_rem_pio2f+0xb4>
 800b294:	f8dd 9008 	ldr.w	r9, [sp, #8]
 800b298:	eddf 7aa8 	vldr	s15, [pc, #672]	; 800b53c <__kernel_rem_pio2f+0x30c>
 800b29c:	4627      	mov	r7, r4
 800b29e:	2600      	movs	r6, #0
 800b2a0:	e016      	b.n	800b2d0 <__kernel_rem_pio2f+0xa0>
 800b2a2:	2000      	movs	r0, #0
 800b2a4:	e7dc      	b.n	800b260 <__kernel_rem_pio2f+0x30>
 800b2a6:	42e7      	cmn	r7, r4
 800b2a8:	bf5d      	ittte	pl
 800b2aa:	f859 3024 	ldrpl.w	r3, [r9, r4, lsl #2]
 800b2ae:	ee07 3a90 	vmovpl	s15, r3
 800b2b2:	eef8 7ae7 	vcvtpl.f32.s32	s15, s15
 800b2b6:	eef0 7a47 	vmovmi.f32	s15, s14
 800b2ba:	ece6 7a01 	vstmia	r6!, {s15}
 800b2be:	3401      	adds	r4, #1
 800b2c0:	e7dc      	b.n	800b27c <__kernel_rem_pio2f+0x4c>
 800b2c2:	ecf9 6a01 	vldmia	r9!, {s13}
 800b2c6:	ed97 7a00 	vldr	s14, [r7]
 800b2ca:	eee6 7a87 	vfma.f32	s15, s13, s14
 800b2ce:	3601      	adds	r6, #1
 800b2d0:	428e      	cmp	r6, r1
 800b2d2:	f1a7 0704 	sub.w	r7, r7, #4
 800b2d6:	ddf4      	ble.n	800b2c2 <__kernel_rem_pio2f+0x92>
 800b2d8:	eceb 7a01 	vstmia	fp!, {s15}
 800b2dc:	f10c 0c01 	add.w	ip, ip, #1
 800b2e0:	3404      	adds	r4, #4
 800b2e2:	e7d5      	b.n	800b290 <__kernel_rem_pio2f+0x60>
 800b2e4:	ab08      	add	r3, sp, #32
 800b2e6:	eb03 038a 	add.w	r3, r3, sl, lsl #2
 800b2ea:	eddf 8a93 	vldr	s17, [pc, #588]	; 800b538 <__kernel_rem_pio2f+0x308>
 800b2ee:	ed9f 9a91 	vldr	s18, [pc, #580]	; 800b534 <__kernel_rem_pio2f+0x304>
 800b2f2:	9304      	str	r3, [sp, #16]
 800b2f4:	eb0e 0b80 	add.w	fp, lr, r0, lsl #2
 800b2f8:	4656      	mov	r6, sl
 800b2fa:	00b3      	lsls	r3, r6, #2
 800b2fc:	9305      	str	r3, [sp, #20]
 800b2fe:	ab58      	add	r3, sp, #352	; 0x160
 800b300:	eb03 0086 	add.w	r0, r3, r6, lsl #2
 800b304:	ac08      	add	r4, sp, #32
 800b306:	ab44      	add	r3, sp, #272	; 0x110
 800b308:	ed10 0a14 	vldr	s0, [r0, #-80]	; 0xffffffb0
 800b30c:	46a4      	mov	ip, r4
 800b30e:	eb03 0086 	add.w	r0, r3, r6, lsl #2
 800b312:	4637      	mov	r7, r6
 800b314:	2f00      	cmp	r7, #0
 800b316:	f1a0 0004 	sub.w	r0, r0, #4
 800b31a:	dc4f      	bgt.n	800b3bc <__kernel_rem_pio2f+0x18c>
 800b31c:	4628      	mov	r0, r5
 800b31e:	e9cd 1206 	strd	r1, r2, [sp, #24]
 800b322:	f000 fc29 	bl	800bb78 <scalbnf>
 800b326:	eeb0 8a40 	vmov.f32	s16, s0
 800b32a:	eeb4 0a00 	vmov.f32	s0, #64	; 0x3e000000  0.125
 800b32e:	ee28 0a00 	vmul.f32	s0, s16, s0
 800b332:	f000 fbdf 	bl	800baf4 <floorf>
 800b336:	eef2 7a00 	vmov.f32	s15, #32	; 0x41000000  8.0
 800b33a:	eea0 8a67 	vfms.f32	s16, s0, s15
 800b33e:	2d00      	cmp	r5, #0
 800b340:	e9dd 1206 	ldrd	r1, r2, [sp, #24]
 800b344:	eefd 7ac8 	vcvt.s32.f32	s15, s16
 800b348:	eeb8 0ae7 	vcvt.f32.s32	s0, s15
 800b34c:	ee17 9a90 	vmov	r9, s15
 800b350:	ee38 8a40 	vsub.f32	s16, s16, s0
 800b354:	dd44      	ble.n	800b3e0 <__kernel_rem_pio2f+0x1b0>
 800b356:	f106 3cff 	add.w	ip, r6, #4294967295
 800b35a:	ab08      	add	r3, sp, #32
 800b35c:	f1c5 0e08 	rsb	lr, r5, #8
 800b360:	f853 702c 	ldr.w	r7, [r3, ip, lsl #2]
 800b364:	fa47 f00e 	asr.w	r0, r7, lr
 800b368:	4481      	add	r9, r0
 800b36a:	fa00 f00e 	lsl.w	r0, r0, lr
 800b36e:	1a3f      	subs	r7, r7, r0
 800b370:	f1c5 0007 	rsb	r0, r5, #7
 800b374:	f843 702c 	str.w	r7, [r3, ip, lsl #2]
 800b378:	4107      	asrs	r7, r0
 800b37a:	2f00      	cmp	r7, #0
 800b37c:	dd3f      	ble.n	800b3fe <__kernel_rem_pio2f+0x1ce>
 800b37e:	f04f 0e00 	mov.w	lr, #0
 800b382:	f109 0901 	add.w	r9, r9, #1
 800b386:	4673      	mov	r3, lr
 800b388:	4576      	cmp	r6, lr
 800b38a:	dc6b      	bgt.n	800b464 <__kernel_rem_pio2f+0x234>
 800b38c:	2d00      	cmp	r5, #0
 800b38e:	dd04      	ble.n	800b39a <__kernel_rem_pio2f+0x16a>
 800b390:	2d01      	cmp	r5, #1
 800b392:	d078      	beq.n	800b486 <__kernel_rem_pio2f+0x256>
 800b394:	2d02      	cmp	r5, #2
 800b396:	f000 8081 	beq.w	800b49c <__kernel_rem_pio2f+0x26c>
 800b39a:	2f02      	cmp	r7, #2
 800b39c:	d12f      	bne.n	800b3fe <__kernel_rem_pio2f+0x1ce>
 800b39e:	eeb7 0a00 	vmov.f32	s0, #112	; 0x3f800000  1.0
 800b3a2:	ee30 8a48 	vsub.f32	s16, s0, s16
 800b3a6:	b353      	cbz	r3, 800b3fe <__kernel_rem_pio2f+0x1ce>
 800b3a8:	4628      	mov	r0, r5
 800b3aa:	e9cd 1206 	strd	r1, r2, [sp, #24]
 800b3ae:	f000 fbe3 	bl	800bb78 <scalbnf>
 800b3b2:	e9dd 1206 	ldrd	r1, r2, [sp, #24]
 800b3b6:	ee38 8a40 	vsub.f32	s16, s16, s0
 800b3ba:	e020      	b.n	800b3fe <__kernel_rem_pio2f+0x1ce>
 800b3bc:	ee60 7a28 	vmul.f32	s15, s0, s17
 800b3c0:	3f01      	subs	r7, #1
 800b3c2:	eefd 7ae7 	vcvt.s32.f32	s15, s15
 800b3c6:	eef8 7ae7 	vcvt.f32.s32	s15, s15
 800b3ca:	eea7 0ac9 	vfms.f32	s0, s15, s18
 800b3ce:	eebd 0ac0 	vcvt.s32.f32	s0, s0
 800b3d2:	ecac 0a01 	vstmia	ip!, {s0}
 800b3d6:	ed90 0a00 	vldr	s0, [r0]
 800b3da:	ee37 0a80 	vadd.f32	s0, s15, s0
 800b3de:	e799      	b.n	800b314 <__kernel_rem_pio2f+0xe4>
 800b3e0:	d105      	bne.n	800b3ee <__kernel_rem_pio2f+0x1be>
 800b3e2:	1e70      	subs	r0, r6, #1
 800b3e4:	ab08      	add	r3, sp, #32
 800b3e6:	f853 7020 	ldr.w	r7, [r3, r0, lsl #2]
 800b3ea:	11ff      	asrs	r7, r7, #7
 800b3ec:	e7c5      	b.n	800b37a <__kernel_rem_pio2f+0x14a>
 800b3ee:	eef6 7a00 	vmov.f32	s15, #96	; 0x3f000000  0.5
 800b3f2:	eeb4 8ae7 	vcmpe.f32	s16, s15
 800b3f6:	eef1 fa10 	vmrs	APSR_nzcv, fpscr
 800b3fa:	da31      	bge.n	800b460 <__kernel_rem_pio2f+0x230>
 800b3fc:	2700      	movs	r7, #0
 800b3fe:	eeb5 8a40 	vcmp.f32	s16, #0.0
 800b402:	eef1 fa10 	vmrs	APSR_nzcv, fpscr
 800b406:	f040 809b 	bne.w	800b540 <__kernel_rem_pio2f+0x310>
 800b40a:	1e74      	subs	r4, r6, #1
 800b40c:	46a4      	mov	ip, r4
 800b40e:	2000      	movs	r0, #0
 800b410:	45d4      	cmp	ip, sl
 800b412:	da4a      	bge.n	800b4aa <__kernel_rem_pio2f+0x27a>
 800b414:	2800      	cmp	r0, #0
 800b416:	d07a      	beq.n	800b50e <__kernel_rem_pio2f+0x2de>
 800b418:	ab08      	add	r3, sp, #32
 800b41a:	3d08      	subs	r5, #8
 800b41c:	f853 3024 	ldr.w	r3, [r3, r4, lsl #2]
 800b420:	2b00      	cmp	r3, #0
 800b422:	f000 8081 	beq.w	800b528 <__kernel_rem_pio2f+0x2f8>
 800b426:	4628      	mov	r0, r5
 800b428:	eeb7 0a00 	vmov.f32	s0, #112	; 0x3f800000  1.0
 800b42c:	00a5      	lsls	r5, r4, #2
 800b42e:	f000 fba3 	bl	800bb78 <scalbnf>
 800b432:	aa44      	add	r2, sp, #272	; 0x110
 800b434:	1d2b      	adds	r3, r5, #4
 800b436:	ed9f 7a40 	vldr	s14, [pc, #256]	; 800b538 <__kernel_rem_pio2f+0x308>
 800b43a:	18d1      	adds	r1, r2, r3
 800b43c:	4622      	mov	r2, r4
 800b43e:	2a00      	cmp	r2, #0
 800b440:	f280 80ae 	bge.w	800b5a0 <__kernel_rem_pio2f+0x370>
 800b444:	4622      	mov	r2, r4
 800b446:	2a00      	cmp	r2, #0
 800b448:	f2c0 80cc 	blt.w	800b5e4 <__kernel_rem_pio2f+0x3b4>
 800b44c:	a944      	add	r1, sp, #272	; 0x110
 800b44e:	eb01 0682 	add.w	r6, r1, r2, lsl #2
 800b452:	f8df c0dc 	ldr.w	ip, [pc, #220]	; 800b530 <__kernel_rem_pio2f+0x300>
 800b456:	eddf 7a39 	vldr	s15, [pc, #228]	; 800b53c <__kernel_rem_pio2f+0x30c>
 800b45a:	2000      	movs	r0, #0
 800b45c:	1aa1      	subs	r1, r4, r2
 800b45e:	e0b6      	b.n	800b5ce <__kernel_rem_pio2f+0x39e>
 800b460:	2702      	movs	r7, #2
 800b462:	e78c      	b.n	800b37e <__kernel_rem_pio2f+0x14e>
 800b464:	6820      	ldr	r0, [r4, #0]
 800b466:	b94b      	cbnz	r3, 800b47c <__kernel_rem_pio2f+0x24c>
 800b468:	b118      	cbz	r0, 800b472 <__kernel_rem_pio2f+0x242>
 800b46a:	f5c0 7080 	rsb	r0, r0, #256	; 0x100
 800b46e:	6020      	str	r0, [r4, #0]
 800b470:	2001      	movs	r0, #1
 800b472:	f10e 0e01 	add.w	lr, lr, #1
 800b476:	3404      	adds	r4, #4
 800b478:	4603      	mov	r3, r0
 800b47a:	e785      	b.n	800b388 <__kernel_rem_pio2f+0x158>
 800b47c:	f1c0 00ff 	rsb	r0, r0, #255	; 0xff
 800b480:	6020      	str	r0, [r4, #0]
 800b482:	4618      	mov	r0, r3
 800b484:	e7f5      	b.n	800b472 <__kernel_rem_pio2f+0x242>
 800b486:	1e74      	subs	r4, r6, #1
 800b488:	a808      	add	r0, sp, #32
 800b48a:	f850 0024 	ldr.w	r0, [r0, r4, lsl #2]
 800b48e:	f000 007f 	and.w	r0, r0, #127	; 0x7f
 800b492:	f10d 0c20 	add.w	ip, sp, #32
 800b496:	f84c 0024 	str.w	r0, [ip, r4, lsl #2]
 800b49a:	e77e      	b.n	800b39a <__kernel_rem_pio2f+0x16a>
 800b49c:	1e74      	subs	r4, r6, #1
 800b49e:	a808      	add	r0, sp, #32
 800b4a0:	f850 0024 	ldr.w	r0, [r0, r4, lsl #2]
 800b4a4:	f000 003f 	and.w	r0, r0, #63	; 0x3f
 800b4a8:	e7f3      	b.n	800b492 <__kernel_rem_pio2f+0x262>
 800b4aa:	ab08      	add	r3, sp, #32
 800b4ac:	f853 302c 	ldr.w	r3, [r3, ip, lsl #2]
 800b4b0:	f10c 3cff 	add.w	ip, ip, #4294967295
 800b4b4:	4318      	orrs	r0, r3
 800b4b6:	e7ab      	b.n	800b410 <__kernel_rem_pio2f+0x1e0>
 800b4b8:	f10c 0c01 	add.w	ip, ip, #1
 800b4bc:	f850 4d04 	ldr.w	r4, [r0, #-4]!
 800b4c0:	2c00      	cmp	r4, #0
 800b4c2:	d0f9      	beq.n	800b4b8 <__kernel_rem_pio2f+0x288>
 800b4c4:	9b05      	ldr	r3, [sp, #20]
 800b4c6:	f503 73b0 	add.w	r3, r3, #352	; 0x160
 800b4ca:	eb0d 0003 	add.w	r0, sp, r3
 800b4ce:	9b01      	ldr	r3, [sp, #4]
 800b4d0:	18f4      	adds	r4, r6, r3
 800b4d2:	ab1c      	add	r3, sp, #112	; 0x70
 800b4d4:	1c77      	adds	r7, r6, #1
 800b4d6:	384c      	subs	r0, #76	; 0x4c
 800b4d8:	eb03 0484 	add.w	r4, r3, r4, lsl #2
 800b4dc:	4466      	add	r6, ip
 800b4de:	42be      	cmp	r6, r7
 800b4e0:	f6ff af0b 	blt.w	800b2fa <__kernel_rem_pio2f+0xca>
 800b4e4:	f85b 3027 	ldr.w	r3, [fp, r7, lsl #2]
 800b4e8:	f8dd e008 	ldr.w	lr, [sp, #8]
 800b4ec:	ee07 3a90 	vmov	s15, r3
 800b4f0:	eef8 7ae7 	vcvt.f32.s32	s15, s15
 800b4f4:	f04f 0c00 	mov.w	ip, #0
 800b4f8:	ece4 7a01 	vstmia	r4!, {s15}
 800b4fc:	eddf 7a0f 	vldr	s15, [pc, #60]	; 800b53c <__kernel_rem_pio2f+0x30c>
 800b500:	46a1      	mov	r9, r4
 800b502:	458c      	cmp	ip, r1
 800b504:	dd07      	ble.n	800b516 <__kernel_rem_pio2f+0x2e6>
 800b506:	ece0 7a01 	vstmia	r0!, {s15}
 800b50a:	3701      	adds	r7, #1
 800b50c:	e7e7      	b.n	800b4de <__kernel_rem_pio2f+0x2ae>
 800b50e:	9804      	ldr	r0, [sp, #16]
 800b510:	f04f 0c01 	mov.w	ip, #1
 800b514:	e7d2      	b.n	800b4bc <__kernel_rem_pio2f+0x28c>
 800b516:	ecfe 6a01 	vldmia	lr!, {s13}
 800b51a:	ed39 7a01 	vldmdb	r9!, {s14}
 800b51e:	f10c 0c01 	add.w	ip, ip, #1
 800b522:	eee6 7a87 	vfma.f32	s15, s13, s14
 800b526:	e7ec      	b.n	800b502 <__kernel_rem_pio2f+0x2d2>
 800b528:	3c01      	subs	r4, #1
 800b52a:	e775      	b.n	800b418 <__kernel_rem_pio2f+0x1e8>
 800b52c:	0800c504 	.word	0x0800c504
 800b530:	0800c4d8 	.word	0x0800c4d8
 800b534:	43800000 	.word	0x43800000
 800b538:	3b800000 	.word	0x3b800000
 800b53c:	00000000 	.word	0x00000000
 800b540:	9b03      	ldr	r3, [sp, #12]
 800b542:	eeb0 0a48 	vmov.f32	s0, s16
 800b546:	1a98      	subs	r0, r3, r2
 800b548:	f000 fb16 	bl	800bb78 <scalbnf>
 800b54c:	ed1f 7a07 	vldr	s14, [pc, #-28]	; 800b534 <__kernel_rem_pio2f+0x304>
 800b550:	eeb4 0ac7 	vcmpe.f32	s0, s14
 800b554:	eef1 fa10 	vmrs	APSR_nzcv, fpscr
 800b558:	db19      	blt.n	800b58e <__kernel_rem_pio2f+0x35e>
 800b55a:	ed5f 7a09 	vldr	s15, [pc, #-36]	; 800b538 <__kernel_rem_pio2f+0x308>
 800b55e:	ee60 7a27 	vmul.f32	s15, s0, s15
 800b562:	aa08      	add	r2, sp, #32
 800b564:	eefd 7ae7 	vcvt.s32.f32	s15, s15
 800b568:	1c74      	adds	r4, r6, #1
 800b56a:	eef8 7ae7 	vcvt.f32.s32	s15, s15
 800b56e:	3508      	adds	r5, #8
 800b570:	eea7 0ac7 	vfms.f32	s0, s15, s14
 800b574:	eefd 7ae7 	vcvt.s32.f32	s15, s15
 800b578:	eebd 0ac0 	vcvt.s32.f32	s0, s0
 800b57c:	ee10 3a10 	vmov	r3, s0
 800b580:	f842 3026 	str.w	r3, [r2, r6, lsl #2]
 800b584:	ee17 3a90 	vmov	r3, s15
 800b588:	f842 3024 	str.w	r3, [r2, r4, lsl #2]
 800b58c:	e74b      	b.n	800b426 <__kernel_rem_pio2f+0x1f6>
 800b58e:	eebd 0ac0 	vcvt.s32.f32	s0, s0
 800b592:	aa08      	add	r2, sp, #32
 800b594:	ee10 3a10 	vmov	r3, s0
 800b598:	4634      	mov	r4, r6
 800b59a:	f842 3026 	str.w	r3, [r2, r6, lsl #2]
 800b59e:	e742      	b.n	800b426 <__kernel_rem_pio2f+0x1f6>
 800b5a0:	a808      	add	r0, sp, #32
 800b5a2:	f850 0022 	ldr.w	r0, [r0, r2, lsl #2]
 800b5a6:	9001      	str	r0, [sp, #4]
 800b5a8:	ee07 0a90 	vmov	s15, r0
 800b5ac:	eef8 7ae7 	vcvt.f32.s32	s15, s15
 800b5b0:	3a01      	subs	r2, #1
 800b5b2:	ee67 7a80 	vmul.f32	s15, s15, s0
 800b5b6:	ee20 0a07 	vmul.f32	s0, s0, s14
 800b5ba:	ed61 7a01 	vstmdb	r1!, {s15}
 800b5be:	e73e      	b.n	800b43e <__kernel_rem_pio2f+0x20e>
 800b5c0:	ecfc 6a01 	vldmia	ip!, {s13}
 800b5c4:	ecb6 7a01 	vldmia	r6!, {s14}
 800b5c8:	eee6 7a87 	vfma.f32	s15, s13, s14
 800b5cc:	3001      	adds	r0, #1
 800b5ce:	4550      	cmp	r0, sl
 800b5d0:	dc01      	bgt.n	800b5d6 <__kernel_rem_pio2f+0x3a6>
 800b5d2:	4288      	cmp	r0, r1
 800b5d4:	ddf4      	ble.n	800b5c0 <__kernel_rem_pio2f+0x390>
 800b5d6:	a858      	add	r0, sp, #352	; 0x160
 800b5d8:	eb00 0181 	add.w	r1, r0, r1, lsl #2
 800b5dc:	ed41 7a28 	vstr	s15, [r1, #-160]	; 0xffffff60
 800b5e0:	3a01      	subs	r2, #1
 800b5e2:	e730      	b.n	800b446 <__kernel_rem_pio2f+0x216>
 800b5e4:	9a66      	ldr	r2, [sp, #408]	; 0x198
 800b5e6:	2a02      	cmp	r2, #2
 800b5e8:	dc09      	bgt.n	800b5fe <__kernel_rem_pio2f+0x3ce>
 800b5ea:	2a00      	cmp	r2, #0
 800b5ec:	dc2a      	bgt.n	800b644 <__kernel_rem_pio2f+0x414>
 800b5ee:	d043      	beq.n	800b678 <__kernel_rem_pio2f+0x448>
 800b5f0:	f009 0007 	and.w	r0, r9, #7
 800b5f4:	b059      	add	sp, #356	; 0x164
 800b5f6:	ecbd 8b04 	vpop	{d8-d9}
 800b5fa:	e8bd 8ff0 	ldmia.w	sp!, {r4, r5, r6, r7, r8, r9, sl, fp, pc}
 800b5fe:	9b66      	ldr	r3, [sp, #408]	; 0x198
 800b600:	2b03      	cmp	r3, #3
 800b602:	d1f5      	bne.n	800b5f0 <__kernel_rem_pio2f+0x3c0>
 800b604:	ab30      	add	r3, sp, #192	; 0xc0
 800b606:	442b      	add	r3, r5
 800b608:	461a      	mov	r2, r3
 800b60a:	4619      	mov	r1, r3
 800b60c:	4620      	mov	r0, r4
 800b60e:	2800      	cmp	r0, #0
 800b610:	f1a1 0104 	sub.w	r1, r1, #4
 800b614:	dc51      	bgt.n	800b6ba <__kernel_rem_pio2f+0x48a>
 800b616:	4621      	mov	r1, r4
 800b618:	2901      	cmp	r1, #1
 800b61a:	f1a2 0204 	sub.w	r2, r2, #4
 800b61e:	dc5c      	bgt.n	800b6da <__kernel_rem_pio2f+0x4aa>
 800b620:	ed5f 7a3a 	vldr	s15, [pc, #-232]	; 800b53c <__kernel_rem_pio2f+0x30c>
 800b624:	3304      	adds	r3, #4
 800b626:	2c01      	cmp	r4, #1
 800b628:	dc67      	bgt.n	800b6fa <__kernel_rem_pio2f+0x4ca>
 800b62a:	eddd 6a30 	vldr	s13, [sp, #192]	; 0xc0
 800b62e:	ed9d 7a31 	vldr	s14, [sp, #196]	; 0xc4
 800b632:	2f00      	cmp	r7, #0
 800b634:	d167      	bne.n	800b706 <__kernel_rem_pio2f+0x4d6>
 800b636:	edc8 6a00 	vstr	s13, [r8]
 800b63a:	ed88 7a01 	vstr	s14, [r8, #4]
 800b63e:	edc8 7a02 	vstr	s15, [r8, #8]
 800b642:	e7d5      	b.n	800b5f0 <__kernel_rem_pio2f+0x3c0>
 800b644:	aa30      	add	r2, sp, #192	; 0xc0
 800b646:	ed1f 7a43 	vldr	s14, [pc, #-268]	; 800b53c <__kernel_rem_pio2f+0x30c>
 800b64a:	4413      	add	r3, r2
 800b64c:	4622      	mov	r2, r4
 800b64e:	2a00      	cmp	r2, #0
 800b650:	da24      	bge.n	800b69c <__kernel_rem_pio2f+0x46c>
 800b652:	b34f      	cbz	r7, 800b6a8 <__kernel_rem_pio2f+0x478>
 800b654:	eef1 7a47 	vneg.f32	s15, s14
 800b658:	edc8 7a00 	vstr	s15, [r8]
 800b65c:	eddd 7a30 	vldr	s15, [sp, #192]	; 0xc0
 800b660:	ee77 7ac7 	vsub.f32	s15, s15, s14
 800b664:	aa31      	add	r2, sp, #196	; 0xc4
 800b666:	2301      	movs	r3, #1
 800b668:	429c      	cmp	r4, r3
 800b66a:	da20      	bge.n	800b6ae <__kernel_rem_pio2f+0x47e>
 800b66c:	b10f      	cbz	r7, 800b672 <__kernel_rem_pio2f+0x442>
 800b66e:	eef1 7a67 	vneg.f32	s15, s15
 800b672:	edc8 7a01 	vstr	s15, [r8, #4]
 800b676:	e7bb      	b.n	800b5f0 <__kernel_rem_pio2f+0x3c0>
 800b678:	aa30      	add	r2, sp, #192	; 0xc0
 800b67a:	ed5f 7a50 	vldr	s15, [pc, #-320]	; 800b53c <__kernel_rem_pio2f+0x30c>
 800b67e:	4413      	add	r3, r2
 800b680:	2c00      	cmp	r4, #0
 800b682:	da05      	bge.n	800b690 <__kernel_rem_pio2f+0x460>
 800b684:	b10f      	cbz	r7, 800b68a <__kernel_rem_pio2f+0x45a>
 800b686:	eef1 7a67 	vneg.f32	s15, s15
 800b68a:	edc8 7a00 	vstr	s15, [r8]
 800b68e:	e7af      	b.n	800b5f0 <__kernel_rem_pio2f+0x3c0>
 800b690:	ed33 7a01 	vldmdb	r3!, {s14}
 800b694:	3c01      	subs	r4, #1
 800b696:	ee77 7a87 	vadd.f32	s15, s15, s14
 800b69a:	e7f1      	b.n	800b680 <__kernel_rem_pio2f+0x450>
 800b69c:	ed73 7a01 	vldmdb	r3!, {s15}
 800b6a0:	3a01      	subs	r2, #1
 800b6a2:	ee37 7a27 	vadd.f32	s14, s14, s15
 800b6a6:	e7d2      	b.n	800b64e <__kernel_rem_pio2f+0x41e>
 800b6a8:	eef0 7a47 	vmov.f32	s15, s14
 800b6ac:	e7d4      	b.n	800b658 <__kernel_rem_pio2f+0x428>
 800b6ae:	ecb2 7a01 	vldmia	r2!, {s14}
 800b6b2:	3301      	adds	r3, #1
 800b6b4:	ee77 7a87 	vadd.f32	s15, s15, s14
 800b6b8:	e7d6      	b.n	800b668 <__kernel_rem_pio2f+0x438>
 800b6ba:	edd1 7a00 	vldr	s15, [r1]
 800b6be:	edd1 6a01 	vldr	s13, [r1, #4]
 800b6c2:	ee37 7aa6 	vadd.f32	s14, s15, s13
 800b6c6:	3801      	subs	r0, #1
 800b6c8:	ee77 7ac7 	vsub.f32	s15, s15, s14
 800b6cc:	ed81 7a00 	vstr	s14, [r1]
 800b6d0:	ee77 7aa6 	vadd.f32	s15, s15, s13
 800b6d4:	edc1 7a01 	vstr	s15, [r1, #4]
 800b6d8:	e799      	b.n	800b60e <__kernel_rem_pio2f+0x3de>
 800b6da:	edd2 7a00 	vldr	s15, [r2]
 800b6de:	edd2 6a01 	vldr	s13, [r2, #4]
 800b6e2:	ee37 7aa6 	vadd.f32	s14, s15, s13
 800b6e6:	3901      	subs	r1, #1
 800b6e8:	ee77 7ac7 	vsub.f32	s15, s15, s14
 800b6ec:	ed82 7a00 	vstr	s14, [r2]
 800b6f0:	ee77 7aa6 	vadd.f32	s15, s15, s13
 800b6f4:	edc2 7a01 	vstr	s15, [r2, #4]
 800b6f8:	e78e      	b.n	800b618 <__kernel_rem_pio2f+0x3e8>
 800b6fa:	ed33 7a01 	vldmdb	r3!, {s14}
 800b6fe:	3c01      	subs	r4, #1
 800b700:	ee77 7a87 	vadd.f32	s15, s15, s14
 800b704:	e78f      	b.n	800b626 <__kernel_rem_pio2f+0x3f6>
 800b706:	eef1 6a66 	vneg.f32	s13, s13
 800b70a:	eeb1 7a47 	vneg.f32	s14, s14
 800b70e:	edc8 6a00 	vstr	s13, [r8]
 800b712:	ed88 7a01 	vstr	s14, [r8, #4]
 800b716:	eef1 7a67 	vneg.f32	s15, s15
 800b71a:	e790      	b.n	800b63e <__kernel_rem_pio2f+0x40e>

0800b71c <__kernel_sinf>:
 800b71c:	ee10 3a10 	vmov	r3, s0
 800b720:	f023 4300 	bic.w	r3, r3, #2147483648	; 0x80000000
 800b724:	f1b3 5f48 	cmp.w	r3, #838860800	; 0x32000000
 800b728:	da04      	bge.n	800b734 <__kernel_sinf+0x18>
 800b72a:	eefd 7ac0 	vcvt.s32.f32	s15, s0
 800b72e:	ee17 3a90 	vmov	r3, s15
 800b732:	b35b      	cbz	r3, 800b78c <__kernel_sinf+0x70>
 800b734:	ee20 7a00 	vmul.f32	s14, s0, s0
 800b738:	eddf 7a15 	vldr	s15, [pc, #84]	; 800b790 <__kernel_sinf+0x74>
 800b73c:	ed9f 6a15 	vldr	s12, [pc, #84]	; 800b794 <__kernel_sinf+0x78>
 800b740:	eea7 6a27 	vfma.f32	s12, s14, s15
 800b744:	eddf 7a14 	vldr	s15, [pc, #80]	; 800b798 <__kernel_sinf+0x7c>
 800b748:	eee6 7a07 	vfma.f32	s15, s12, s14
 800b74c:	ed9f 6a13 	vldr	s12, [pc, #76]	; 800b79c <__kernel_sinf+0x80>
 800b750:	eea7 6a87 	vfma.f32	s12, s15, s14
 800b754:	eddf 7a12 	vldr	s15, [pc, #72]	; 800b7a0 <__kernel_sinf+0x84>
 800b758:	ee60 6a07 	vmul.f32	s13, s0, s14
 800b75c:	eee6 7a07 	vfma.f32	s15, s12, s14
 800b760:	b930      	cbnz	r0, 800b770 <__kernel_sinf+0x54>
 800b762:	ed9f 6a10 	vldr	s12, [pc, #64]	; 800b7a4 <__kernel_sinf+0x88>
 800b766:	eea7 6a27 	vfma.f32	s12, s14, s15
 800b76a:	eea6 0a26 	vfma.f32	s0, s12, s13
 800b76e:	4770      	bx	lr
 800b770:	ee67 7ae6 	vnmul.f32	s15, s15, s13
 800b774:	eeb6 6a00 	vmov.f32	s12, #96	; 0x3f000000  0.5
 800b778:	eee0 7a86 	vfma.f32	s15, s1, s12
 800b77c:	eed7 0a87 	vfnms.f32	s1, s15, s14
 800b780:	eddf 7a09 	vldr	s15, [pc, #36]	; 800b7a8 <__kernel_sinf+0x8c>
 800b784:	eee6 0aa7 	vfma.f32	s1, s13, s15
 800b788:	ee30 0a60 	vsub.f32	s0, s0, s1
 800b78c:	4770      	bx	lr
 800b78e:	bf00      	nop
 800b790:	2f2ec9d3 	.word	0x2f2ec9d3
 800b794:	b2d72f34 	.word	0xb2d72f34
 800b798:	3638ef1b 	.word	0x3638ef1b
 800b79c:	b9500d01 	.word	0xb9500d01
 800b7a0:	3c088889 	.word	0x3c088889
 800b7a4:	be2aaaab 	.word	0xbe2aaaab
 800b7a8:	3e2aaaab 	.word	0x3e2aaaab

0800b7ac <__kernel_tanf>:
 800b7ac:	b508      	push	{r3, lr}
 800b7ae:	ee10 3a10 	vmov	r3, s0
 800b7b2:	f023 4200 	bic.w	r2, r3, #2147483648	; 0x80000000
 800b7b6:	f1b2 5f46 	cmp.w	r2, #830472192	; 0x31800000
 800b7ba:	eef0 7a40 	vmov.f32	s15, s0
 800b7be:	da17      	bge.n	800b7f0 <__kernel_tanf+0x44>
 800b7c0:	eebd 7ac0 	vcvt.s32.f32	s14, s0
 800b7c4:	ee17 1a10 	vmov	r1, s14
 800b7c8:	bb41      	cbnz	r1, 800b81c <__kernel_tanf+0x70>
 800b7ca:	1c43      	adds	r3, r0, #1
 800b7cc:	4313      	orrs	r3, r2
 800b7ce:	d108      	bne.n	800b7e2 <__kernel_tanf+0x36>
 800b7d0:	f7fe fc9c 	bl	800a10c <fabsf>
 800b7d4:	eeb7 7a00 	vmov.f32	s14, #112	; 0x3f800000  1.0
 800b7d8:	eec7 7a00 	vdiv.f32	s15, s14, s0
 800b7dc:	eeb0 0a67 	vmov.f32	s0, s15
 800b7e0:	bd08      	pop	{r3, pc}
 800b7e2:	2801      	cmp	r0, #1
 800b7e4:	d0fa      	beq.n	800b7dc <__kernel_tanf+0x30>
 800b7e6:	eebf 7a00 	vmov.f32	s14, #240	; 0xbf800000 -1.0
 800b7ea:	eec7 7a00 	vdiv.f32	s15, s14, s0
 800b7ee:	e7f5      	b.n	800b7dc <__kernel_tanf+0x30>
 800b7f0:	494c      	ldr	r1, [pc, #304]	; (800b924 <__kernel_tanf+0x178>)
 800b7f2:	428a      	cmp	r2, r1
 800b7f4:	db12      	blt.n	800b81c <__kernel_tanf+0x70>
 800b7f6:	2b00      	cmp	r3, #0
 800b7f8:	bfb8      	it	lt
 800b7fa:	eef1 7a40 	vneglt.f32	s15, s0
 800b7fe:	ed9f 0a4a 	vldr	s0, [pc, #296]	; 800b928 <__kernel_tanf+0x17c>
 800b802:	ee70 7a67 	vsub.f32	s15, s0, s15
 800b806:	ed9f 0a49 	vldr	s0, [pc, #292]	; 800b92c <__kernel_tanf+0x180>
 800b80a:	bfb8      	it	lt
 800b80c:	eef1 0a60 	vneglt.f32	s1, s1
 800b810:	ee70 0a60 	vsub.f32	s1, s0, s1
 800b814:	ee70 7aa7 	vadd.f32	s15, s1, s15
 800b818:	eddf 0a45 	vldr	s1, [pc, #276]	; 800b930 <__kernel_tanf+0x184>
 800b81c:	eddf 5a45 	vldr	s11, [pc, #276]	; 800b934 <__kernel_tanf+0x188>
 800b820:	ed9f 6a45 	vldr	s12, [pc, #276]	; 800b938 <__kernel_tanf+0x18c>
 800b824:	ed9f 5a45 	vldr	s10, [pc, #276]	; 800b93c <__kernel_tanf+0x190>
 800b828:	493e      	ldr	r1, [pc, #248]	; (800b924 <__kernel_tanf+0x178>)
 800b82a:	ee67 6aa7 	vmul.f32	s13, s15, s15
 800b82e:	428a      	cmp	r2, r1
 800b830:	ee26 7aa6 	vmul.f32	s14, s13, s13
 800b834:	eea7 6a25 	vfma.f32	s12, s14, s11
 800b838:	eddf 5a41 	vldr	s11, [pc, #260]	; 800b940 <__kernel_tanf+0x194>
 800b83c:	eee6 5a07 	vfma.f32	s11, s12, s14
 800b840:	ed9f 6a40 	vldr	s12, [pc, #256]	; 800b944 <__kernel_tanf+0x198>
 800b844:	eea5 6a87 	vfma.f32	s12, s11, s14
 800b848:	eddf 5a3f 	vldr	s11, [pc, #252]	; 800b948 <__kernel_tanf+0x19c>
 800b84c:	eee6 5a07 	vfma.f32	s11, s12, s14
 800b850:	ed9f 6a3e 	vldr	s12, [pc, #248]	; 800b94c <__kernel_tanf+0x1a0>
 800b854:	eea5 6a87 	vfma.f32	s12, s11, s14
 800b858:	eddf 5a3d 	vldr	s11, [pc, #244]	; 800b950 <__kernel_tanf+0x1a4>
 800b85c:	eee7 5a05 	vfma.f32	s11, s14, s10
 800b860:	ed9f 5a3c 	vldr	s10, [pc, #240]	; 800b954 <__kernel_tanf+0x1a8>
 800b864:	eea5 5a87 	vfma.f32	s10, s11, s14
 800b868:	eddf 5a3b 	vldr	s11, [pc, #236]	; 800b958 <__kernel_tanf+0x1ac>
 800b86c:	eee5 5a07 	vfma.f32	s11, s10, s14
 800b870:	ed9f 5a3a 	vldr	s10, [pc, #232]	; 800b95c <__kernel_tanf+0x1b0>
 800b874:	eea5 5a87 	vfma.f32	s10, s11, s14
 800b878:	eddf 5a39 	vldr	s11, [pc, #228]	; 800b960 <__kernel_tanf+0x1b4>
 800b87c:	eee5 5a07 	vfma.f32	s11, s10, s14
 800b880:	eeb0 7a46 	vmov.f32	s14, s12
 800b884:	eea5 7aa6 	vfma.f32	s14, s11, s13
 800b888:	ee27 5aa6 	vmul.f32	s10, s15, s13
 800b88c:	eeb0 6a60 	vmov.f32	s12, s1
 800b890:	eea7 6a05 	vfma.f32	s12, s14, s10
 800b894:	ed9f 7a33 	vldr	s14, [pc, #204]	; 800b964 <__kernel_tanf+0x1b8>
 800b898:	eee6 0a26 	vfma.f32	s1, s12, s13
 800b89c:	eee5 0a07 	vfma.f32	s1, s10, s14
 800b8a0:	ee37 7aa0 	vadd.f32	s14, s15, s1
 800b8a4:	db1d      	blt.n	800b8e2 <__kernel_tanf+0x136>
 800b8a6:	ee06 0a90 	vmov	s13, r0
 800b8aa:	eeb8 0ae6 	vcvt.f32.s32	s0, s13
 800b8ae:	ee27 6a07 	vmul.f32	s12, s14, s14
 800b8b2:	ee37 7a00 	vadd.f32	s14, s14, s0
 800b8b6:	179b      	asrs	r3, r3, #30
 800b8b8:	eec6 6a07 	vdiv.f32	s13, s12, s14
 800b8bc:	f003 0302 	and.w	r3, r3, #2
 800b8c0:	f1c3 0301 	rsb	r3, r3, #1
 800b8c4:	eeb0 7a00 	vmov.f32	s14, #0	; 0x40000000  2.0
 800b8c8:	ee76 0ae0 	vsub.f32	s1, s13, s1
 800b8cc:	ee77 7ae0 	vsub.f32	s15, s15, s1
 800b8d0:	eea7 0ac7 	vfms.f32	s0, s15, s14
 800b8d4:	ee07 3a90 	vmov	s15, r3
 800b8d8:	eef8 7ae7 	vcvt.f32.s32	s15, s15
 800b8dc:	ee67 7a80 	vmul.f32	s15, s15, s0
 800b8e0:	e77c      	b.n	800b7dc <__kernel_tanf+0x30>
 800b8e2:	2801      	cmp	r0, #1
 800b8e4:	d01b      	beq.n	800b91e <__kernel_tanf+0x172>
 800b8e6:	4b20      	ldr	r3, [pc, #128]	; (800b968 <__kernel_tanf+0x1bc>)
 800b8e8:	ee17 2a10 	vmov	r2, s14
 800b8ec:	401a      	ands	r2, r3
 800b8ee:	ee06 2a10 	vmov	s12, r2
 800b8f2:	ee76 7a67 	vsub.f32	s15, s12, s15
 800b8f6:	ee70 0ae7 	vsub.f32	s1, s1, s15
 800b8fa:	eeff 7a00 	vmov.f32	s15, #240	; 0xbf800000 -1.0
 800b8fe:	eec7 6a87 	vdiv.f32	s13, s15, s14
 800b902:	eeb7 7a00 	vmov.f32	s14, #112	; 0x3f800000  1.0
 800b906:	ee16 2a90 	vmov	r2, s13
 800b90a:	4013      	ands	r3, r2
 800b90c:	ee07 3a90 	vmov	s15, r3
 800b910:	eea6 7a27 	vfma.f32	s14, s12, s15
 800b914:	eea0 7aa7 	vfma.f32	s14, s1, s15
 800b918:	eee7 7a26 	vfma.f32	s15, s14, s13
 800b91c:	e75e      	b.n	800b7dc <__kernel_tanf+0x30>
 800b91e:	eef0 7a47 	vmov.f32	s15, s14
 800b922:	e75b      	b.n	800b7dc <__kernel_tanf+0x30>
 800b924:	3f2ca140 	.word	0x3f2ca140
 800b928:	3f490fda 	.word	0x3f490fda
 800b92c:	33222168 	.word	0x33222168
 800b930:	00000000 	.word	0x00000000
 800b934:	b79bae5f 	.word	0xb79bae5f
 800b938:	38a3f445 	.word	0x38a3f445
 800b93c:	37d95384 	.word	0x37d95384
 800b940:	3a1a26c8 	.word	0x3a1a26c8
 800b944:	3b6b6916 	.word	0x3b6b6916
 800b948:	3cb327a4 	.word	0x3cb327a4
 800b94c:	3e088889 	.word	0x3e088889
 800b950:	3895c07a 	.word	0x3895c07a
 800b954:	398137b9 	.word	0x398137b9
 800b958:	3abede48 	.word	0x3abede48
 800b95c:	3c11371f 	.word	0x3c11371f
 800b960:	3d5d0dd1 	.word	0x3d5d0dd1
 800b964:	3eaaaaab 	.word	0x3eaaaaab
 800b968:	fffff000 	.word	0xfffff000

0800b96c <with_errno>:
 800b96c:	b570      	push	{r4, r5, r6, lr}
 800b96e:	4604      	mov	r4, r0
 800b970:	460d      	mov	r5, r1
 800b972:	4616      	mov	r6, r2
 800b974:	f7fb f9f4 	bl	8006d60 <__errno>
 800b978:	4629      	mov	r1, r5
 800b97a:	6006      	str	r6, [r0, #0]
 800b97c:	4620      	mov	r0, r4
 800b97e:	bd70      	pop	{r4, r5, r6, pc}

0800b980 <xflow>:
 800b980:	b537      	push	{r0, r1, r2, r4, r5, lr}
 800b982:	4614      	mov	r4, r2
 800b984:	461d      	mov	r5, r3
 800b986:	b108      	cbz	r0, 800b98c <xflow+0xc>
 800b988:	f103 4300 	add.w	r3, r3, #2147483648	; 0x80000000
 800b98c:	e9cd 2300 	strd	r2, r3, [sp]
 800b990:	e9dd 2300 	ldrd	r2, r3, [sp]
 800b994:	4620      	mov	r0, r4
 800b996:	4629      	mov	r1, r5
 800b998:	f7f4 fe2e 	bl	80005f8 <__aeabi_dmul>
 800b99c:	2222      	movs	r2, #34	; 0x22
 800b99e:	b003      	add	sp, #12
 800b9a0:	e8bd 4030 	ldmia.w	sp!, {r4, r5, lr}
 800b9a4:	f7ff bfe2 	b.w	800b96c <with_errno>

0800b9a8 <__math_uflow>:
 800b9a8:	b508      	push	{r3, lr}
 800b9aa:	2200      	movs	r2, #0
 800b9ac:	f04f 5380 	mov.w	r3, #268435456	; 0x10000000
 800b9b0:	f7ff ffe6 	bl	800b980 <xflow>
 800b9b4:	ec41 0b10 	vmov	d0, r0, r1
 800b9b8:	bd08      	pop	{r3, pc}

0800b9ba <__math_oflow>:
 800b9ba:	b508      	push	{r3, lr}
 800b9bc:	2200      	movs	r2, #0
 800b9be:	f04f 43e0 	mov.w	r3, #1879048192	; 0x70000000
 800b9c2:	f7ff ffdd 	bl	800b980 <xflow>
 800b9c6:	ec41 0b10 	vmov	d0, r0, r1
 800b9ca:	bd08      	pop	{r3, pc}

0800b9cc <finite>:
 800b9cc:	b082      	sub	sp, #8
 800b9ce:	ed8d 0b00 	vstr	d0, [sp]
 800b9d2:	9801      	ldr	r0, [sp, #4]
 800b9d4:	f040 4000 	orr.w	r0, r0, #2147483648	; 0x80000000
 800b9d8:	f500 1080 	add.w	r0, r0, #1048576	; 0x100000
 800b9dc:	0fc0      	lsrs	r0, r0, #31
 800b9de:	b002      	add	sp, #8
 800b9e0:	4770      	bx	lr
 800b9e2:	0000      	movs	r0, r0
 800b9e4:	0000      	movs	r0, r0
	...

0800b9e8 <scalbn>:
 800b9e8:	b570      	push	{r4, r5, r6, lr}
 800b9ea:	ec55 4b10 	vmov	r4, r5, d0
 800b9ee:	f3c5 520a 	ubfx	r2, r5, #20, #11
 800b9f2:	4606      	mov	r6, r0
 800b9f4:	462b      	mov	r3, r5
 800b9f6:	b99a      	cbnz	r2, 800ba20 <scalbn+0x38>
 800b9f8:	f025 4300 	bic.w	r3, r5, #2147483648	; 0x80000000
 800b9fc:	4323      	orrs	r3, r4
 800b9fe:	d036      	beq.n	800ba6e <scalbn+0x86>
 800ba00:	4b39      	ldr	r3, [pc, #228]	; (800bae8 <scalbn+0x100>)
 800ba02:	4629      	mov	r1, r5
 800ba04:	ee10 0a10 	vmov	r0, s0
 800ba08:	2200      	movs	r2, #0
 800ba0a:	f7f4 fdf5 	bl	80005f8 <__aeabi_dmul>
 800ba0e:	4b37      	ldr	r3, [pc, #220]	; (800baec <scalbn+0x104>)
 800ba10:	429e      	cmp	r6, r3
 800ba12:	4604      	mov	r4, r0
 800ba14:	460d      	mov	r5, r1
 800ba16:	da10      	bge.n	800ba3a <scalbn+0x52>
 800ba18:	a32b      	add	r3, pc, #172	; (adr r3, 800bac8 <scalbn+0xe0>)
 800ba1a:	e9d3 2300 	ldrd	r2, r3, [r3]
 800ba1e:	e03a      	b.n	800ba96 <scalbn+0xae>
 800ba20:	f240 71ff 	movw	r1, #2047	; 0x7ff
 800ba24:	428a      	cmp	r2, r1
 800ba26:	d10c      	bne.n	800ba42 <scalbn+0x5a>
 800ba28:	ee10 2a10 	vmov	r2, s0
 800ba2c:	4620      	mov	r0, r4
 800ba2e:	4629      	mov	r1, r5
 800ba30:	f7f4 fc2c 	bl	800028c <__adddf3>
 800ba34:	4604      	mov	r4, r0
 800ba36:	460d      	mov	r5, r1
 800ba38:	e019      	b.n	800ba6e <scalbn+0x86>
 800ba3a:	f3c1 520a 	ubfx	r2, r1, #20, #11
 800ba3e:	460b      	mov	r3, r1
 800ba40:	3a36      	subs	r2, #54	; 0x36
 800ba42:	4432      	add	r2, r6
 800ba44:	f240 71fe 	movw	r1, #2046	; 0x7fe
 800ba48:	428a      	cmp	r2, r1
 800ba4a:	dd08      	ble.n	800ba5e <scalbn+0x76>
 800ba4c:	2d00      	cmp	r5, #0
 800ba4e:	a120      	add	r1, pc, #128	; (adr r1, 800bad0 <scalbn+0xe8>)
 800ba50:	e9d1 0100 	ldrd	r0, r1, [r1]
 800ba54:	da1c      	bge.n	800ba90 <scalbn+0xa8>
 800ba56:	a120      	add	r1, pc, #128	; (adr r1, 800bad8 <scalbn+0xf0>)
 800ba58:	e9d1 0100 	ldrd	r0, r1, [r1]
 800ba5c:	e018      	b.n	800ba90 <scalbn+0xa8>
 800ba5e:	2a00      	cmp	r2, #0
 800ba60:	dd08      	ble.n	800ba74 <scalbn+0x8c>
 800ba62:	f023 43ff 	bic.w	r3, r3, #2139095040	; 0x7f800000
 800ba66:	f423 03e0 	bic.w	r3, r3, #7340032	; 0x700000
 800ba6a:	ea43 5502 	orr.w	r5, r3, r2, lsl #20
 800ba6e:	ec45 4b10 	vmov	d0, r4, r5
 800ba72:	bd70      	pop	{r4, r5, r6, pc}
 800ba74:	f112 0f35 	cmn.w	r2, #53	; 0x35
 800ba78:	da19      	bge.n	800baae <scalbn+0xc6>
 800ba7a:	f24c 3350 	movw	r3, #50000	; 0xc350
 800ba7e:	429e      	cmp	r6, r3
 800ba80:	f005 4300 	and.w	r3, r5, #2147483648	; 0x80000000
 800ba84:	dd0a      	ble.n	800ba9c <scalbn+0xb4>
 800ba86:	a112      	add	r1, pc, #72	; (adr r1, 800bad0 <scalbn+0xe8>)
 800ba88:	e9d1 0100 	ldrd	r0, r1, [r1]
 800ba8c:	2b00      	cmp	r3, #0
 800ba8e:	d1e2      	bne.n	800ba56 <scalbn+0x6e>
 800ba90:	a30f      	add	r3, pc, #60	; (adr r3, 800bad0 <scalbn+0xe8>)
 800ba92:	e9d3 2300 	ldrd	r2, r3, [r3]
 800ba96:	f7f4 fdaf 	bl	80005f8 <__aeabi_dmul>
 800ba9a:	e7cb      	b.n	800ba34 <scalbn+0x4c>
 800ba9c:	a10a      	add	r1, pc, #40	; (adr r1, 800bac8 <scalbn+0xe0>)
 800ba9e:	e9d1 0100 	ldrd	r0, r1, [r1]
 800baa2:	2b00      	cmp	r3, #0
 800baa4:	d0b8      	beq.n	800ba18 <scalbn+0x30>
 800baa6:	a10e      	add	r1, pc, #56	; (adr r1, 800bae0 <scalbn+0xf8>)
 800baa8:	e9d1 0100 	ldrd	r0, r1, [r1]
 800baac:	e7b4      	b.n	800ba18 <scalbn+0x30>
 800baae:	f023 43ff 	bic.w	r3, r3, #2139095040	; 0x7f800000
 800bab2:	3236      	adds	r2, #54	; 0x36
 800bab4:	f423 03e0 	bic.w	r3, r3, #7340032	; 0x700000
 800bab8:	ea43 5102 	orr.w	r1, r3, r2, lsl #20
 800babc:	4620      	mov	r0, r4
 800babe:	4b0c      	ldr	r3, [pc, #48]	; (800baf0 <scalbn+0x108>)
 800bac0:	2200      	movs	r2, #0
 800bac2:	e7e8      	b.n	800ba96 <scalbn+0xae>
 800bac4:	f3af 8000 	nop.w
 800bac8:	c2f8f359 	.word	0xc2f8f359
 800bacc:	01a56e1f 	.word	0x01a56e1f
 800bad0:	8800759c 	.word	0x8800759c
 800bad4:	7e37e43c 	.word	0x7e37e43c
 800bad8:	8800759c 	.word	0x8800759c
 800badc:	fe37e43c 	.word	0xfe37e43c
 800bae0:	c2f8f359 	.word	0xc2f8f359
 800bae4:	81a56e1f 	.word	0x81a56e1f
 800bae8:	43500000 	.word	0x43500000
 800baec:	ffff3cb0 	.word	0xffff3cb0
 800baf0:	3c900000 	.word	0x3c900000

0800baf4 <floorf>:
 800baf4:	ee10 3a10 	vmov	r3, s0
 800baf8:	f3c3 52c7 	ubfx	r2, r3, #23, #8
 800bafc:	3a7f      	subs	r2, #127	; 0x7f
 800bafe:	2a16      	cmp	r2, #22
 800bb00:	f023 4100 	bic.w	r1, r3, #2147483648	; 0x80000000
 800bb04:	dc2a      	bgt.n	800bb5c <floorf+0x68>
 800bb06:	2a00      	cmp	r2, #0
 800bb08:	da11      	bge.n	800bb2e <floorf+0x3a>
 800bb0a:	eddf 7a18 	vldr	s15, [pc, #96]	; 800bb6c <floorf+0x78>
 800bb0e:	ee30 0a27 	vadd.f32	s0, s0, s15
 800bb12:	eeb5 0ac0 	vcmpe.f32	s0, #0.0
 800bb16:	eef1 fa10 	vmrs	APSR_nzcv, fpscr
 800bb1a:	dd05      	ble.n	800bb28 <floorf+0x34>
 800bb1c:	2b00      	cmp	r3, #0
 800bb1e:	da23      	bge.n	800bb68 <floorf+0x74>
 800bb20:	4a13      	ldr	r2, [pc, #76]	; (800bb70 <floorf+0x7c>)
 800bb22:	2900      	cmp	r1, #0
 800bb24:	bf18      	it	ne
 800bb26:	4613      	movne	r3, r2
 800bb28:	ee00 3a10 	vmov	s0, r3
 800bb2c:	4770      	bx	lr
 800bb2e:	4911      	ldr	r1, [pc, #68]	; (800bb74 <floorf+0x80>)
 800bb30:	4111      	asrs	r1, r2
 800bb32:	420b      	tst	r3, r1
 800bb34:	d0fa      	beq.n	800bb2c <floorf+0x38>
 800bb36:	eddf 7a0d 	vldr	s15, [pc, #52]	; 800bb6c <floorf+0x78>
 800bb3a:	ee30 0a27 	vadd.f32	s0, s0, s15
 800bb3e:	eeb5 0ac0 	vcmpe.f32	s0, #0.0
 800bb42:	eef1 fa10 	vmrs	APSR_nzcv, fpscr
 800bb46:	ddef      	ble.n	800bb28 <floorf+0x34>
 800bb48:	2b00      	cmp	r3, #0
 800bb4a:	bfbe      	ittt	lt
 800bb4c:	f44f 0000 	movlt.w	r0, #8388608	; 0x800000
 800bb50:	fa40 f202 	asrlt.w	r2, r0, r2
 800bb54:	189b      	addlt	r3, r3, r2
 800bb56:	ea23 0301 	bic.w	r3, r3, r1
 800bb5a:	e7e5      	b.n	800bb28 <floorf+0x34>
 800bb5c:	f1b1 4fff 	cmp.w	r1, #2139095040	; 0x7f800000
 800bb60:	d3e4      	bcc.n	800bb2c <floorf+0x38>
 800bb62:	ee30 0a00 	vadd.f32	s0, s0, s0
 800bb66:	4770      	bx	lr
 800bb68:	2300      	movs	r3, #0
 800bb6a:	e7dd      	b.n	800bb28 <floorf+0x34>
 800bb6c:	7149f2ca 	.word	0x7149f2ca
 800bb70:	bf800000 	.word	0xbf800000
 800bb74:	007fffff 	.word	0x007fffff

0800bb78 <scalbnf>:
 800bb78:	ee10 3a10 	vmov	r3, s0
 800bb7c:	f033 4200 	bics.w	r2, r3, #2147483648	; 0x80000000
 800bb80:	d025      	beq.n	800bbce <scalbnf+0x56>
 800bb82:	f1b2 4fff 	cmp.w	r2, #2139095040	; 0x7f800000
 800bb86:	d302      	bcc.n	800bb8e <scalbnf+0x16>
 800bb88:	ee30 0a00 	vadd.f32	s0, s0, s0
 800bb8c:	4770      	bx	lr
 800bb8e:	f013 4fff 	tst.w	r3, #2139095040	; 0x7f800000
 800bb92:	d122      	bne.n	800bbda <scalbnf+0x62>
 800bb94:	4b2a      	ldr	r3, [pc, #168]	; (800bc40 <scalbnf+0xc8>)
 800bb96:	eddf 7a2b 	vldr	s15, [pc, #172]	; 800bc44 <scalbnf+0xcc>
 800bb9a:	4298      	cmp	r0, r3
 800bb9c:	ee20 0a27 	vmul.f32	s0, s0, s15
 800bba0:	db16      	blt.n	800bbd0 <scalbnf+0x58>
 800bba2:	ee10 3a10 	vmov	r3, s0
 800bba6:	f3c3 52c7 	ubfx	r2, r3, #23, #8
 800bbaa:	3a19      	subs	r2, #25
 800bbac:	4402      	add	r2, r0
 800bbae:	2afe      	cmp	r2, #254	; 0xfe
 800bbb0:	dd15      	ble.n	800bbde <scalbnf+0x66>
 800bbb2:	ee10 3a10 	vmov	r3, s0
 800bbb6:	eddf 7a24 	vldr	s15, [pc, #144]	; 800bc48 <scalbnf+0xd0>
 800bbba:	eddf 6a24 	vldr	s13, [pc, #144]	; 800bc4c <scalbnf+0xd4>
 800bbbe:	2b00      	cmp	r3, #0
 800bbc0:	eeb0 7a67 	vmov.f32	s14, s15
 800bbc4:	bfb8      	it	lt
 800bbc6:	eef0 7a66 	vmovlt.f32	s15, s13
 800bbca:	ee27 0a27 	vmul.f32	s0, s14, s15
 800bbce:	4770      	bx	lr
 800bbd0:	eddf 7a1f 	vldr	s15, [pc, #124]	; 800bc50 <scalbnf+0xd8>
 800bbd4:	ee20 0a27 	vmul.f32	s0, s0, s15
 800bbd8:	4770      	bx	lr
 800bbda:	0dd2      	lsrs	r2, r2, #23
 800bbdc:	e7e6      	b.n	800bbac <scalbnf+0x34>
 800bbde:	2a00      	cmp	r2, #0
 800bbe0:	dd06      	ble.n	800bbf0 <scalbnf+0x78>
 800bbe2:	f023 43ff 	bic.w	r3, r3, #2139095040	; 0x7f800000
 800bbe6:	ea43 53c2 	orr.w	r3, r3, r2, lsl #23
 800bbea:	ee00 3a10 	vmov	s0, r3
 800bbee:	4770      	bx	lr
 800bbf0:	f112 0f16 	cmn.w	r2, #22
 800bbf4:	da1a      	bge.n	800bc2c <scalbnf+0xb4>
 800bbf6:	f24c 3350 	movw	r3, #50000	; 0xc350
 800bbfa:	4298      	cmp	r0, r3
 800bbfc:	ee10 3a10 	vmov	r3, s0
 800bc00:	f003 4300 	and.w	r3, r3, #2147483648	; 0x80000000
 800bc04:	dd0a      	ble.n	800bc1c <scalbnf+0xa4>
 800bc06:	ed9f 0a10 	vldr	s0, [pc, #64]	; 800bc48 <scalbnf+0xd0>
 800bc0a:	ed9f 7a10 	vldr	s14, [pc, #64]	; 800bc4c <scalbnf+0xd4>
 800bc0e:	eef0 7a40 	vmov.f32	s15, s0
 800bc12:	2b00      	cmp	r3, #0
 800bc14:	bf18      	it	ne
 800bc16:	eeb0 0a47 	vmovne.f32	s0, s14
 800bc1a:	e7db      	b.n	800bbd4 <scalbnf+0x5c>
 800bc1c:	ed9f 0a0c 	vldr	s0, [pc, #48]	; 800bc50 <scalbnf+0xd8>
 800bc20:	ed9f 7a0c 	vldr	s14, [pc, #48]	; 800bc54 <scalbnf+0xdc>
 800bc24:	eef0 7a40 	vmov.f32	s15, s0
 800bc28:	2b00      	cmp	r3, #0
 800bc2a:	e7f3      	b.n	800bc14 <scalbnf+0x9c>
 800bc2c:	3219      	adds	r2, #25
 800bc2e:	f023 43ff 	bic.w	r3, r3, #2139095040	; 0x7f800000
 800bc32:	ea43 53c2 	orr.w	r3, r3, r2, lsl #23
 800bc36:	eddf 7a08 	vldr	s15, [pc, #32]	; 800bc58 <scalbnf+0xe0>
 800bc3a:	ee07 3a10 	vmov	s14, r3
 800bc3e:	e7c4      	b.n	800bbca <scalbnf+0x52>
 800bc40:	ffff3cb0 	.word	0xffff3cb0
 800bc44:	4c000000 	.word	0x4c000000
 800bc48:	7149f2ca 	.word	0x7149f2ca
 800bc4c:	f149f2ca 	.word	0xf149f2ca
 800bc50:	0da24260 	.word	0x0da24260
 800bc54:	8da24260 	.word	0x8da24260
 800bc58:	33000000 	.word	0x33000000

0800bc5c <_init>:
 800bc5c:	b5f8      	push	{r3, r4, r5, r6, r7, lr}
 800bc5e:	bf00      	nop
 800bc60:	bcf8      	pop	{r3, r4, r5, r6, r7}
 800bc62:	bc08      	pop	{r3}
 800bc64:	469e      	mov	lr, r3
 800bc66:	4770      	bx	lr

0800bc68 <_fini>:
 800bc68:	b5f8      	push	{r3, r4, r5, r6, r7, lr}
 800bc6a:	bf00      	nop
 800bc6c:	bcf8      	pop	{r3, r4, r5, r6, r7}
 800bc6e:	bc08      	pop	{r3}
 800bc70:	469e      	mov	lr, r3
 800bc72:	4770      	bx	lr
